00001  0000             ;
00002  0001             ;       L O G
00003  0001             ;
00004  0001             ;       29.10.2019      SET CORRECT INITIAL POSITION OF WINDOW AND RAYMAN
00005  0001             ;                       CORRECTED CALCULATIONS OF SPRITE 0-1 POSITIONS
00006  0001             ;                       ADDED SID CONSTANTS
00007  0001             ;       27.10.2019      ADDED AND RENAMED POSITION VARIABLES
00008  0001             ;       26.10.2019      ADDED VIC CONSTANTS AND COLOR NAME CONSTANTS
00009  0001             ;       26.10.2019      LOG STARTED
00010  0001             ;
00011  0001             
00012  0001             
00013  0001             ;ENTRIES OF JUMP TABLE
00014  0001             JUMP_TABLE_SIZE = 34 ; 17 ; 19 ; 11
00015  0001             
00016  0001             ;ENTRIES OF FALL TABLE
00017  0001             FALL_TABLE_SIZE = 34 ; 17 ; 20 ; 10
00018  0001             
00019  0001             
00020  0001             VIC_SPRITE_X_POS = $D000
00021  0001             VIC_SPRITE_0_X_POS = $D000
00022  0001             VIC_SPRITE_1_X_POS = $D002
00023  0001             VIC_SPRITE_2_X_POS = $D004
00024  0001             VIC_SPRITE_3_X_POS = $D006
00025  0001             VIC_SPRITE_4_X_POS = $D008
00026  0001             VIC_SPRITE_5_X_POS = $D00A
00027  0001             VIC_SPRITE_6_X_POS = $D00C
00028  0001             VIC_SPRITE_7_X_POS = $D00E
00029  0001             
00030  0001             VIC_SPRITE_Y_POS = $D001
00031  0001             VIC_SPRITE_0_Y_POS = $D001
00032  0001             VIC_SPRITE_1_Y_POS = $D003
00033  0001             VIC_SPRITE_2_Y_POS = $D005
00034  0001             VIC_SPRITE_3_Y_POS = $D007
00035  0001             VIC_SPRITE_4_Y_POS = $D009
00036  0001             VIC_SPRITE_5_Y_POS = $D00B
00037  0001             VIC_SPRITE_6_Y_POS = $D00D
00038  0001             VIC_SPRITE_7_Y_POS = $D00F
00039  0001             VIC_SPRITE_X_POS_MSB = $D010
00040  0001             
00041  0001             VIC_YSCROLL_CONTROL = $D011
00042  0001             VIC_RASTER_SCAN_LINE = $D012
00043  0001             VIC_LIGHT_PEN_X_POS = $D013
00044  0001             VIC_LIGHT_PEN_Y_POS = $D014
00045  0001             VIC_SPRITE_ENABLE = $D015
00046  0001             VIC_XSCROLL_CONTROL = $D016
00047  0001             VIC_SPRITE_Y_EXPAND = $D017
00048  0001             VIC_MEMORY_CONTROL = $D018
00049  0001             VIC_IRQ_STATUS_FLAG = $D019
00050  0001             VIC_IRQ_ENABLE = $D01A
00051  0001             VIC_SPRITE_CHAR_PRIORITY = $D01B
00052  0001             VIC_SPRITE_MULTICOLOR_SELECT = $D01C
00053  0001             VIC_SPRITE_X_EXPAND = $D01D
00054  0001             VIC_SPRITE_SPRITE_COLLISION = $D01E
00055  0001             VIC_SPRITE_CHAR_COLLISION = $D01F
00056  0001             
00057  0001             VIC_BORDER_COLOR = $D020
00058  0001             VIC_BACKGROUND_COLOR = $D021
00059  0001             VIC_CHARSET_MULTICOLOR_1 = $D022
00060  0001             VIC_CHARSET_MULTICOLOR_2 = $D023
00061  0001             VIC_EXT_BACKGROUND_COLOR_3 = $D024
00062  0001             VIC_SPRITE_MULTICOLOR_1 = $D025
00063  0001             VIC_SPRITE_MULTICOLOR_2 = $D026
00064  0001             
00065  0001             VIC_SPRITE_COLOR = $D027
00066  0001             VIC_SPRITE_0_COLOR = $D027
00067  0001             VIC_SPRITE_1_COLOR = $D028
00068  0001             VIC_SPRITE_2_COLOR = $D029
00069  0001             VIC_SPRITE_3_COLOR = $D02A
00070  0001             VIC_SPRITE_4_COLOR = $D02B
00071  0001             VIC_SPRITE_5_COLOR = $D02C
00072  0001             VIC_SPRITE_6_COLOR = $D02D
00073  0001             VIC_SPRITE_7_COLOR = $D02E
00074  0001             
00075  0001             BLACK      = 0
00076  0001             WHITE      = 1
00077  0001             RED        = 2
00078  0001             CYAN       = 3
00079  0001             PURPLE     = 4
00080  0001             GREEN      = 5
00081  0001             BLUE       = 6
00082  0001             YELLOW     = 7
00083  0001             ORANGE     = 8
00084  0001             BROWN      = 9
00085  0001             LIGHT_RED  = 10
00086  0001             DARK_GREY  = 11
00087  0001             MED_GREY   = 12
00088  0001             LIGHT_GREEN = 13
00089  0001             LIGHT_BLUE = 14
00090  0001             LIGHT_GREY = 15
00091  0001             
00092  0001             SID_BASE_ADDRESS = $D400
00093  0001             SID_VOICE_FREQ_LO = $D400
00094  0001             SID_VOICE_1_FREQ_LO = $D400
00095  0001             SID_VOICE_FREQ_HI = $D401
00096  0001             SID_VOICE_1_FREQ_HI = $D401
00097  0001             SID_VOICE_PULSE_WIDTH_LO = $D402
00098  0001             SID_VOICE_1_PULSE_WIDTH_LO = $D402
00099  0001             SID_VOICE_PULSE_WIDTH_HI = $D403
00100  0001             SID_VOICE_1_PULSE_WIDTH_HI = $D403
00101  0001             SID_VOICE_WAVEFORM_CONTROL = $D404
00102  0001             SID_VOICE_1_WAVEFORM_CONTROL = $D404
00103  0001             SID_VOICE_ATTACK_DECAY = $D405
00104  0001             SID_VOICE_1_ATTACK_DECAY = $D405
00105  0001             SID_VOICE_SUSTAIN_RELEASE = $D406
00106  0001             SID_VOICE_1_SUSTAIN_RELEASE = $D406
00107  0001             
00108  0001             SID_VOICE_2_FREQ_LO = $D407
00109  0001             SID_VOICE_2_FREQ_HI = $D408
00110  0001             SID_VOICE_2_PULSE_WIDTH_LO = $D409
00111  0001             SID_VOICE_2_PULSE_WIDTH_HI = $D40A
00112  0001             SID_VOICE_2_WAVEFORM_CONTROL = $D40B
00113  0001             SID_VOICE_2_ATTACK_DECAY = $D40C
00114  0001             SID_VOICE_2_SUSTAIN_RELEASE = $D40D
00115  0001             
00116  0001             SID_VOICE_3_FREQ_LO = $D40E
00117  0001             SID_VOICE_3_FREQ_HI = $D40F
00118  0001             SID_VOICE_3_PULSE_WIDTH_LO = $D410
00119  0001             SID_VOICE_3_PULSE_WIDTH_HI = $D411
00120  0001             SID_VOICE_3_WAVEFORM_CONTROL = $D412
00121  0001             SID_VOICE_3_ATTACK_DECAY = $D413
00122  0001             SID_VOICE_3_SUSTAIN_RELEASE = $D414
00123  0001             
00124  0001             SID_FILTER_CUTOFF_FREQ_LO = $D415
00125  0001             SID_FILTER_CUTOFF_FREQ_HI = $D416
00126  0001             SID_FILTER_RESONANCE_CONTROL = $D417
00127  0001             SID_VOLUME_AND_FILTER_SELECT = $D418
00128  0001             
00129  0001             SET        = 53248
00130  0001             DEST       = $C800
00131  0001             SCREEN1    = 49111
00132  0001             SCREEN2    = 50135
00133  0001             IRQLINE1   = 100 ; 104 ;108; CHER ; <100 AND THE SCROLLING HASN'T COMPLETED
00134  0001             IRQLINE2   = 195 ; 208 ; 190 ; 248
00135  0001             
00136  0001             WINMAPX    = 20
00137  0001             WINMAPY    = 21
00138  0001             WINBLKX    = 22
00139  0001             WINBLKY    = 23
00140  0001             WINCHRX    = 24
00141  0001             WINCHRY    = 25
00142  0001             WINPIXX_LO = 26
00143  0001             WINPIXX_HI = 27
00144  0001             WINPIXY_LO = 28
00145  0001             WINPIXY_HI = 29
00146  0001             
00147  0001             RAYMAPCHRX_LO = 30
00148  0001             RAYMAPCHRX_HI = 31
00149  0001             RAYDELTAX  = 32
00150  0001             RAYMAPCHRY_LO = 33
00151  0001             RAYMAPCHRY_HI = 34
00152  0001             RAYDELTAY  = 35
00153  0001             
00154  0001             RAYPIXX_LO = 36
00155  0001             RAYPIXX_HI = 37
00156  0001             RAYPIXY_LO = 38
00157  0001             RAYPIXY_HI = 39
00158  0001             
00159  0001             TMPMAPCHRX_LO = 40
00160  0001             TMPMAPCHRX_HI = 41
00161  0001             TMPMAPCHRY_LO = 42
00162  0001             TMPMAPCHRY_HI = 43
00163  0001             
00164  0001             TMPMAPX    = 44
00165  0001             TMPBLKX    = 45
00166  0001             TMPMAPY    = 46
00167  0001             TMPBLKY    = 47
00168  0001             
00169  0001             TEMPLO     = 208
00170  0001             TEMPHI     = 209
00171  0001             
00172  0001             XDISP      = 210
00173  0001             YDISP      = 211
00174  0001             
00175  0001             FACING     = 212
00176  0001             
00177  0001             ROLLCHR11  = 213 ; 85
00178  0001             ROLLCHR12  = 201 ; 73
00179  0001             ROLLCHR21  = 202 ; 74
00180  0001             ROLLCHR22  = 203 ; 75
00181  0001             ROLLADDR11 = 52904 ; 51880              ; DEST + 8 * ROLLCHR11
00182  0001             ROLLADDR12 = 52808 ; 51784              ; DEST + 8 * ROLLCHR12
00183  0001             ROLLADDR21 = 52816 ; 51792              ; DEST + 8 * ROLLCHR21
00184  0001             ROLLADDR22 = 52824 ; 51800              ; DEST + 8 * ROLLCHR22
00185  0001             
00186  0001             PARAM5     = 48
00187  0001             
00188  0001             
00189  0001             
00190  0001                        * = $0800
00191  0800  00 0C 08              BYTE $00,$0C,$08,$0A,$00,$9E,$20,$32 ; ENCODE SYS 2064
00192  0808  30 36 34              BYTE $30,$36,$34,$00,$00,$00,$00,$00
00193  0810  4C 00 61              JMP START
00194  0813             
00195  0813                        * = $C800
00196  C800             
00197  C800             INCBIN     "RAYCHAR.ROM"
00198  D000             
00199  D000                        * = $C850
00200  C850             
00201  C850             INCBIN     "CLOUDCHARS.BIN"
00202  C870             
00203  C870                        * = $D000               ; RAYMAN FACING RIGHT - HIRES OVERLAY
00204  D000             
00205  D000  00 10 00              BYTE %00000000,%00010000,%00000000
00206  D003  00 00 00              BYTE %00000000,%00000000,%00000000
00207  D006  00 17 00              BYTE %00000000,%00010111,%00000000
00208  D009  00 42 40              BYTE %00000000,%01000010,%01000000
00209  D00C  00 9A 30              BYTE %00000000,%10011010,%00110000
00210  D00F  00 90 00              BYTE %00000000,%10010000,%00000000
00211  D012  00 62 80              BYTE %00000000,%01100010,%10000000
00212  D015  00 22 00              BYTE %00000000,%00100010,%00000000
00213  D018  00 00 00              BYTE %00000000,%00000000,%00000000
00214  D01B  00 10 00              BYTE %00000000,%00010000,%00000000
00215  D01E  00 10 00              BYTE %00000000,%00010000,%00000000
00216  D021  00 04 00              BYTE %00000000,%00000100,%00000000
00217  D024  00 08 00              BYTE %00000000,%00001000,%00000000
00218  D027  00 C0 00              BYTE %00000000,%11000000,%00000000
00219  D02A  00 20 00              BYTE %00000000,%00100000,%00000000
00220  D02D  00 30 00              BYTE %00000000,%00110000,%00000000
00221  D030  01 38 00              BYTE %00000001,%00111000,%00000000
00222  D033  01 20 00              BYTE %00000001,%00100000,%00000000
00223  D036  00 E0 00              BYTE %00000000,%11100000,%00000000
00224  D039  01 80 00              BYTE %00000001,%10000000,%00000000
00225  D03C  00 80 00              BYTE %00000000,%10000000,%00000000
00226  D03F             
00227  D03F                        * = $D040               ; RAYMAN FACING RIGHT - MULTICOLOR BACKGROUND
00228  D040             
00229  D040  00 00 00              BYTE %00000000,%00000000,%00000000
00230  D043  00 00 00              BYTE %00000000,%00000000,%00000000
00231  D046  00 00 00              BYTE %00000000,%00000000,%00000000
00232  D049  00 0A 80              BYTE %00000000,%00001010,%10000000
00233  D04C  00 28 A0              BYTE %00000000,%00101000,%10100000
00234  D04F  00 A5 00              BYTE %00000000,%10100101,%00000000
00235  D052  00 15 A0              BYTE %00000000,%00010101,%10100000
00236  D055  00 0A A0              BYTE %00000000,%00001010,%10100000
00237  D058  00 0A 80              BYTE %00000000,%00001010,%10000000
00238  D05B  00 F0 00              BYTE %00000000,%11110000,%00000000
00239  D05E  03 FC 00              BYTE %00000011,%11111100,%00000000
00240  D061  00 FD 00              BYTE %00000000,%11111101,%00000000
00241  D064  00 F7 00              BYTE %00000000,%11110111,%00000000
00242  D067  01 FD 00              BYTE %00000001,%11111101,%00000000
00243  D06A  05 45 00              BYTE %00000101,%01000101,%00000000
00244  D06D  05 40 00              BYTE %00000101,%01000000,%00000000
00245  D070  02 AA 40              BYTE %00000010,%10101010,%01000000
00246  D073  02 A6 40              BYTE %00000010,%10100110,%01000000
00247  D076  00 A0 00              BYTE %00000000,%10100000,%00000000
00248  D079  00 00 00              BYTE %00000000,%00000000,%00000000
00249  D07C  00 00 00              BYTE %00000000,%00000000,%00000000
00250  D07F             
00251  D07F                        * = $D080                      ; RAYMAN FACING LEFT - HIRES OVERLAY
00252  D080             
00253  D080  00 08 00              BYTE %00000000,%00001000,%00000000
00254  D083  00 00 00              BYTE %00000000,%00000000,%00000000
00255  D086  00 E8 00              BYTE %00000000,%11101000,%00000000
00256  D089  02 42 00              BYTE %00000010,%01000010,%00000000
00257  D08C  0C 59 00              BYTE %00001100,%01011001,%00000000
00258  D08F  00 09 00              BYTE %00000000,%00001001,%00000000
00259  D092  01 46 00              BYTE %00000001,%01000110,%00000000
00260  D095  00 44 00              BYTE %00000000,%01000100,%00000000
00261  D098  00 00 00              BYTE %00000000,%00000000,%00000000
00262  D09B  00 08 00              BYTE %00000000,%00001000,%00000000
00263  D09E  00 08 00              BYTE %00000000,%00001000,%00000000
00264  D0A1  00 20 00              BYTE %00000000,%00100000,%00000000
00265  D0A4  00 10 00              BYTE %00000000,%00010000,%00000000
00266  D0A7  00 03 00              BYTE %00000000,%00000011,%00000000
00267  D0AA  00 04 00              BYTE %00000000,%00000100,%00000000
00268  D0AD  00 0C 00              BYTE %00000000,%00001100,%00000000
00269  D0B0  00 1C 80              BYTE %00000000,%00011100,%10000000
00270  D0B3  00 04 80              BYTE %00000000,%00000100,%10000000
00271  D0B6  00 07 00              BYTE %00000000,%00000111,%00000000
00272  D0B9  00 01 80              BYTE %00000000,%00000001,%10000000
00273  D0BC  00 01 00              BYTE %00000000,%00000001,%00000000
00274  D0BF             
00275  D0BF                        * = $D0C0                      ; RAYMAN FACING LEFT - MULTICOLOR BACKGROUND
00276  D0C0             
00277  D0C0  00 00 00              BYTE %00000000,%00000000,%00000000
00278  D0C3  00 00 00              BYTE %00000000,%00000000,%00000000
00279  D0C6  00 00 00              BYTE %00000000,%00000000,%00000000
00280  D0C9  02 A0 00              BYTE %00000010,%10100000,%00000000
00281  D0CC  0A 28 00              BYTE %00001010,%00101000,%00000000
00282  D0CF  00 5A 00              BYTE %00000000,%01011010,%00000000
00283  D0D2  0A 54 00              BYTE %00001010,%01010100,%00000000
00284  D0D5  0A A0 00              BYTE %00001010,%10100000,%00000000
00285  D0D8  02 A0 00              BYTE %00000010,%10100000,%00000000
00286  D0DB  00 0F 00              BYTE %00000000,%00001111,%00000000
00287  D0DE  00 3F C0              BYTE %00000000,%00111111,%11000000
00288  D0E1  00 7F 00              BYTE %00000000,%01111111,%00000000
00289  D0E4  00 DF 00              BYTE %00000000,%11011111,%00000000
00290  D0E7  00 7F 40              BYTE %00000000,%01111111,%01000000
00291  D0EA  00 51 50              BYTE %00000000,%01010001,%01010000
00292  D0ED  00 01 50              BYTE %00000000,%00000001,%01010000
00293  D0F0  01 AA 80              BYTE %00000001,%10101010,%10000000
00294  D0F3  01 9A 80              BYTE %00000001,%10011010,%10000000
00295  D0F6  00 0A 00              BYTE %00000000,%00001010,%00000000
00296  D0F9  00 00 00              BYTE %00000000,%00000000,%00000000
00297  D0FC  00 00 00              BYTE %00000000,%00000000,%00000000
00298  D0FF             
00299  D0FF             
00300  D0FF                        * = $4000
00301  4000             
00302  4000             BLOCKSTART 
00303  4000             INCBIN     "BLOCKDEFS.BIN"
00304  4C10             
00305  4C10                        * = $5000
00306  5000             
00307  5000             COLORTAB
00308  5000  06 07 00              BYTE 6, 7, 0, 9, 9, 9, 9, 9, 10, 0, 9, 9, 9, 9, 4, 4
00309  5010  00 00 00              BYTE 0, 0, 0, 0, 0, 0, 0, 0, 2, 0, 0, 0, 0, 0, 0, 0
00310  5020  00 00 00              BYTE 0, 0, 0, 0, 0, 0, 0, 0, 0, 3, 0, 0, 0, 0, 0, 0
00311  5030  00 00 00              BYTE 0, 0, 0, 0, 0, 0, 0, 0, 0, 0, 0, 0, 0, 0, 0, 0
00312  5040  00 00 00              BYTE 0, 0, 0, 0, 0, 0, 0, 0, 0, 0, 0, 0, 0, 0, 0, 0
00313  5050  00 06 00              BYTE 0, 6, 0, 0, 0, 0, 0, 0, 0, 0, 0, 0, 0, 0, 0, 0
00314  5060  00 00 00              BYTE 0, 0, 0, 0, 0, 0, 0, 0, 0, 0, 0, 0, 0, 0, 0, 0
00315  5070  00 00 00              BYTE 0, 0, 0, 0, 0, 0, 0, 0, 0, 0, 0, 0, 0, 0, 0, 0
00316  5080  00 00 00              BYTE 0, 0, 0, 0, 0, 0, 0, 0, 0, 0, 0, 0, 0, 0, 0, 0
00317  5090  00 00 00              BYTE 0, 0, 0, 0, 0, 0, 0, 0, 0, 0, 0, 0, 0, 0, 0, 0
00318  50A0  00 00 00              BYTE 0, 0, 0, 0, 0, 0, 0, 0, 0, 0, 0, 0, 0, 0, 0, 0
00319  50B0  00 00 00              BYTE 0, 0, 0, 0, 0, 0, 0, 0, 0, 0, 0, 0, 0, 0, 0, 0
00320  50C0  00 00 00              BYTE 0, 0, 0, 0, 0, 0, 0, 0, 0, 6, 6, 6, 0, 0, 0, 0
00321  50D0  00 00 00              BYTE 0, 0, 0, 0, 0, 6, 0, 0, 0, 0, 0, 0, 0, 0, 0, 0
00322  50E0  00 00 00              BYTE 0, 0, 0, 0, 0, 0, 0, 0, 0, 0, 0, 0, 0, 0, 0, 0
00323  50F0  00 00 00              BYTE 0, 0, 0, 0, 0, 0, 0, 0, 0, 0, 0, 0, 0, 0, 0, 0
00324  5100             
00325  5100             MAPWIDTH
00326  5100  4B                    BYTE 75
00327  5101             MAPHEIGHT
00328  5101  15                    BYTE 21
00329  5102             MAPSTART
00330  5102             INCBIN     "MAPINBLOCKS.BIN"
00331  5729             
00332  5729             
00333  5729             
00334  5729             
00335  5729                        * = $6100
00336  6100             
00337  6100             START
00338  6100             
00339  6100  A9 09                 LDA #9
00340  6102  8D FF FF              STA $FFFF
00341  6105                        
00342  6105             
00343  6105  20 5D 61              JSR COPY_CHARS
00344  6108             
00345  6108  AD 00 DD              LDA $DD00
00346  610B  29 FC                 AND #%11111100
00347  610D  8D 00 DD              STA $DD00
00348  6110             
00349  6110                        ;JSR COPY_SPRITES
00350  6110             
00351  6110  A9 02                 LDA #<MAPSTART
00352  6112  85 02                 STA 2
00353  6114  A9 51                 LDA #>MAPSTART
00354  6116  85 03                 STA 3
00355  6118  A2 00                 LDX #0
00356  611A             NEXTML
00357  611A  9D 8A 77              STA MAPTABHI,X
00358  611D  A5 02                 LDA 2
00359  611F  9D 8A 76              STA MAPTABLO,X
00360  6122  18                    CLC
00361  6123  6D 00 51              ADC MAPWIDTH
00362  6126  85 02                 STA 2
00363  6128  A5 03                 LDA 3
00364  612A  69 00                 ADC #0
00365  612C  85 03                 STA 3
00366  612E  E8                    INX
00367  612F  D0 E9                 BNE NEXTML
00368  6131             
00369  6131  A9 00                 LDA #<BLOCKSTART
00370  6133  85 02                 STA 2
00371  6135  A9 40                 LDA #>BLOCKSTART
00372  6137  85 03                 STA 3
00373  6139  A2 00                 LDX #0
00374  613B             NEXTBLK
00375  613B  9D 8A 79              STA BLKTABHI,X
00376  613E  A5 02                 LDA 2
00377  6140  9D 8A 78              STA BLKTABLO,X
00378  6143  18                    CLC
00379  6144  69 10                 ADC #16
00380  6146  85 02                 STA 2
00381  6148  A5 03                 LDA 3
00382  614A  69 00                 ADC #0
00383  614C  85 03                 STA 3
00384  614E  E8                    INX
00385  614F  D0 EA                 BNE NEXTBLK
00386  6151             
00387  6151                        ;JSR COPY_CHARS
00388  6151  20 B1 61              JSR INIT_SCREEN
00389  6154  20 2F 81              JSR SIDINIT
00390  6157  20 71 63              JSR SETUP_IRQ
00391  615A             CONT
00392  615A  4C 5A 61              JMP CONT ;RTS
00393  615D             
00394  615D             COPY_CHARS 
00395  615D  4C 89 61              JMP CHARADDR
00396  6160             
00397  6160  78                    SEI
00398  6161  A5 01                 LDA $01
00399  6163  48                    PHA
00400  6164  29 FB                 AND #%11111011
00401  6166  85 01                 STA $01
00402  6168  A9 D0                 LDA #>SET
00403  616A  85 03                 STA $03
00404  616C  A9 C8                 LDA #>DEST
00405  616E  85 05                 STA $05
00406  6170  A0 00                 LDY #$00
00407  6172  84 02                 STY $02
00408  6174  84 04                 STY $04
00409  6176  A2 08                 LDX #$08
00410  6178  B1 02      COPY       LDA ($02),Y
00411  617A  91 04                 STA ($04),Y
00412  617C  C8                    INY
00413  617D  D0 F9                 BNE COPY
00414  617F  E6 03                 INC $03
00415  6181  E6 05                 INC $05
00416  6183  CA                    DEX
00417  6184  D0 F2                 BNE COPY
00418  6186  68                    PLA
00419  6187  85 01                 STA $01
00420  6189             CHARADDR
00421  6189  AD 18 D0              LDA VIC_MEMORY_CONTROL
00422  618C  29 F0                 AND #%11110000
00423  618E  09 02                 ORA #%00000010
00424  6190  8D 18 D0              STA VIC_MEMORY_CONTROL
00425  6193  58                    CLI
00426  6194             
00427  6194                        ;JSR COPY_SPRITES
00428  6194             
00429  6194  60                    RTS
00430  6195             
00431  6195             
00432  6195             COPY_SPRITES 
00433  6195             
00434  6195  78                    SEI
00435  6196  A5 01                 LDA $01
00436  6198  48                    PHA
00437  6199  29 F8                 AND #%11111000
00438  619B  09 02                 ORA #%00000010
00439  619D  85 01                 STA $01
00440  619F  A2 00                 LDX #0
00441  61A1  BD 00 90   COPY2      LDA $9000,X
00442  61A4  9D 00 D0              STA $D000,X
00443  61A7  E8                    INX
00444  61A8  E0 3F                 CPX #63
00445  61AA  D0 F5                 BNE COPY2
00446  61AC  68                    PLA
00447  61AD  85 01                 STA $01
00448  61AF  58                    CLI
00449  61B0  60                    RTS
00450  61B1             
00451  61B1             
00452  61B1             INIT_SCREEN 
00453  61B1             
00454  61B1  A9 73                 LDA #%01110011 ; #$7B
00455  61B3                        ;LDA #%00011011 ; TO SEE THE START SCREEN BEING SCROLLED INTO PLACE
00456  61B3  8D 11 D0              STA VIC_YSCROLL_CONTROL
00457  61B6             
00458  61B6  A9 00                 LDA #BLACK
00459  61B8  8D 20 D0              STA VIC_BORDER_COLOR
00460  61BB  A9 0C                 LDA #MED_GREY
00461  61BD  8D 21 D0              STA VIC_BACKGROUND_COLOR
00462  61C0  A9 05                 LDA #GREEN
00463  61C2  8D 22 D0              STA VIC_CHARSET_MULTICOLOR_1
00464  61C5  A9 04                 LDA #PURPLE
00465  61C7  8D 23 D0              STA VIC_CHARSET_MULTICOLOR_2
00466  61CA             
00467  61CA  A2 00                 LDX #0
00468  61CC             L01
00469  61CC  A9 A0                 LDA #160
00470  61CE  9D 00 C0              STA $C000,X             ; 1024-1279 = #160
00471  61D1  9D 00 C4              STA $C400,X             ; 2048-2303 = #160
00472  61D4  A9 00                 LDA #0
00473  61D6  9D 00 D8              STA $D800,X             ; 55296-55551 = #0
00474  61D9  E8                    INX
00475  61DA  D0 F0                 BNE L01
00476  61DC             L02
00477  61DC  A9 A0                 LDA #160
00478  61DE  9D 00 C1              STA $C100,X             ; 1280-1303 = #160
00479  61E1  9D 00 C5              STA $C500,X             ; 2304-2327 = #160
00480  61E4  A9 00                 LDA #0
00481  61E6  9D 00 D9              STA $D900,X             ; 55552-55575 = #0
00482  61E9  E8                    INX
00483  61EA  E0 17                 CPX #23
00484  61EC  D0 EE                 BNE L02
00485  61EE             
00486  61EE             
00487  61EE             ;        ; FOR TESTING SCROLLER SEAM
00488  61EE             ;        LDA #$01
00489  61EE             ;        STA $C103 ; $C12B
00490  61EE             ;        STA $C503 ; $C52B
00491  61EE             ;        LDA #7
00492  61EE             ;        STA $D903 ; $D92B
00493  61EE             
00494  61EE             
00495  61EE  A9 30                 LDA #48                 ; '0'
00496  61F0  8D 2A C0              STA 49194
00497  61F3  8D 2A C4              STA 49194+1024
00498  61F6  A9 07                 LDA #7
00499  61F8  8D 2A D8              STA 54272+1066
00500  61FB  A9 31                 LDA #49                 ; '1'
00501  61FD  8D 2B C0              STA 49195
00502  6200  8D 2B C4              STA 49195+1024
00503  6203  A9 07                 LDA #7
00504  6205  8D 2B D8              STA 54272+1067
00505  6208  A9 32                 LDA #50                 ; '2'
00506  620A  8D 2C C0              STA 49196
00507  620D  8D 2C C4              STA 49196+1024
00508  6210  A9 07                 LDA #7
00509  6212  8D 2C D8              STA 54272+1068
00510  6215  A9 33                 LDA #51                 ; '3'
00511  6217  8D 2D C0              STA 49197
00512  621A  8D 2D C4              STA 49197+1024
00513  621D  A9 07                 LDA #7
00514  621F  8D 2D D8              STA 54272+1069
00515  6222             
00516  6222                        ; SET INITIAL WINDOW POSITION ON THE MAP
00517  6222  A9 0C                 LDA #12 ; SHOULD BE #2, BUT BECAUSE WE WANT TO SCROLL WE START AT #12
00518  6224  85 14                 STA WINMAPX
00519  6226  A9 00                 LDA #0
00520  6228  85 16                 STA WINBLKX
00521  622A  A9 04                 LDA #4
00522  622C  85 18                 STA WINCHRX
00523  622E             
00524  622E  A9 0F                 LDA #15
00525  6230  85 15                 STA WINMAPY
00526  6232  A9 02                 LDA #2
00527  6234  85 17                 STA WINBLKY
00528  6236  A9 04                 LDA #4
00529  6238  85 19                 STA WINCHRY
00530  623A             
00531  623A                        ; USE SCROLL ROUTINES TO BUILD INITIAL SCREEN
00532  623A  A9 05                 LDA #5
00533  623C  8D 66 74              STA SCROLLIX
00534  623F  20 82 6A   INIT2      JSR COPYSCREEN
00535  6242  20 DD 6B              JSR SCROLLCOLOR
00536  6245  20 BD 6E              JSR ADDNEWDATA
00537  6248  20 A9 72              JSR ADDNEWCOLOR
00538  624B  AD 4C 74              LDA SCREEN
00539  624E  49 01                 EOR #1
00540  6250  8D 4C 74              STA SCREEN
00541  6253  A5 14                 LDA WINMAPX
00542  6255  C9 02                 CMP #$02
00543  6257  D0 E6                 BNE INIT2
00544  6259  A5 16                 LDA WINBLKX
00545  625B  C9 00                 CMP #$00
00546  625D  D0 E0                 BNE INIT2
00547  625F  A9 04                 LDA #4                  ; SET SCROLLIX BACK TO NORMAL (IDLE)
00548  6261  8D 66 74              STA SCROLLIX
00549  6264  8D E9 64              STA OLDXSCROLL+1
00550  6267  8D 21 65              STA OLDYSCROLL+1
00551  626A             
00552  626A                        ; CALCULATE THE 16-BIT HORIZONTAL WINDOW POSITION ON THE MAP
00553  626A  A5 14                 LDA WINMAPX
00554  626C  4A                    LSR
00555  626D  4A                    LSR
00556  626E  4A                    LSR
00557  626F  85 1B                 STA WINPIXX_HI
00558  6271  A5 14                 LDA WINMAPX
00559  6273  0A                    ASL
00560  6274  0A                    ASL
00561  6275  05 16                 ORA WINBLKX
00562  6277  0A                    ASL
00563  6278  0A                    ASL
00564  6279  0A                    ASL
00565  627A  05 18                 ORA WINCHRX
00566  627C  85 1A                 STA WINPIXX_LO
00567  627E             
00568  627E                        ; CALCULATE THE 16-BIT VERTICAL WINDOW POSITION ON THE MAP
00569  627E  A5 15                 LDA WINMAPY
00570  6280  4A                    LSR
00571  6281  4A                    LSR
00572  6282  4A                    LSR
00573  6283  85 1D                 STA WINPIXY_HI
00574  6285  A5 15                 LDA WINMAPY
00575  6287  0A                    ASL
00576  6288  0A                    ASL
00577  6289  05 17                 ORA WINBLKY
00578  628B  0A                    ASL
00579  628C  0A                    ASL
00580  628D  0A                    ASL
00581  628E  05 19                 ORA WINCHRY
00582  6290  85 1C                 STA WINPIXY_LO
00583  6292             
00584  6292                        ; SET RAYMAN'S INITIAL HORIZONTAL POSITION ON THE MAP
00585  6292  A9 16                 LDA #22
00586  6294  85 1E                 STA RAYMAPCHRX_LO
00587  6296  A9 00                 LDA #0
00588  6298  85 1F                 STA RAYMAPCHRX_HI
00589  629A  A9 00                 LDA #0
00590  629C  85 20                 STA RAYDELTAX
00591  629E             
00592  629E                        ; CALCULATE RAYMAN'S 16-BIT HORIZONTAL POSITION ON THE MAP
00593  629E  A5 1E                 LDA RAYMAPCHRX_LO
00594  62A0  85 24                 STA RAYPIXX_LO
00595  62A2  A5 1F                 LDA RAYMAPCHRX_HI
00596  62A4  85 25                 STA RAYPIXX_HI
00597  62A6  06 24                 ASL RAYPIXX_LO
00598  62A8  26 25                 ROL RAYPIXX_HI
00599  62AA  06 24                 ASL RAYPIXX_LO
00600  62AC  26 25                 ROL RAYPIXX_HI
00601  62AE  06 24                 ASL RAYPIXX_LO
00602  62B0  26 25                 ROL RAYPIXX_HI
00603  62B2             
00604  62B2                        ; SET RAYMAN'S INITIAL VERTICAL POSITION ON THE MAP
00605  62B2  A9 48                 LDA #72
00606  62B4  85 21                 STA RAYMAPCHRY_LO
00607  62B6  A9 00                 LDA #0
00608  62B8  85 22                 STA RAYMAPCHRY_HI
00609  62BA  A9 00                 LDA #0
00610  62BC  85 23                 STA RAYDELTAY
00611  62BE             
00612  62BE                        ; CALCULATE RAYMAN'S 16-BIT VERTICAL POSITION ON THE MAP
00613  62BE  A5 21                 LDA RAYMAPCHRY_LO
00614  62C0  85 26                 STA RAYPIXY_LO
00615  62C2  A5 22                 LDA RAYMAPCHRY_HI
00616  62C4  85 27                 STA RAYPIXY_HI
00617  62C6  06 26                 ASL RAYPIXY_LO
00618  62C8  26 27                 ROL RAYPIXY_HI
00619  62CA  06 26                 ASL RAYPIXY_LO
00620  62CC  26 27                 ROL RAYPIXY_HI
00621  62CE  06 26                 ASL RAYPIXY_LO
00622  62D0  26 27                 ROL RAYPIXY_HI
00623  62D2             
00624  62D2                        ; SET THE DIRECTION RAYMAN IS FACING
00625  62D2  A9 00                 LDA #0
00626  62D4  85 D4                 STA FACING
00627  62D6             
00628  62D6  A9 40                 LDA #64                 ; $D000
00629  62D8  8D F8 C3              STA $C3F8               ; SPRITE 0 PTR SCREEN 0
00630  62DB  8D F8 C7              STA $C7F8               ; SPRITE 0 PTR SCREEN 1
00631  62DE  A9 84                 LDA #132 ; #135 ; #132
00632  62E0  8D 00 D0              STA VIC_SPRITE_0_X_POS  ; SPRITE 0 X POS
00633  62E3  A9 AB                 LDA #171 ; #175 ; #171
00634  62E5  8D 01 D0              STA VIC_SPRITE_0_Y_POS  ; SPRITE 0 Y POS
00635  62E8  A9 09                 LDA #BROWN
00636  62EA  8D 27 D0              STA VIC_SPRITE_0_COLOR  ; SPRITE 0 COLOR
00637  62ED             
00638  62ED  A9 41                 LDA #65                 ; $D040
00639  62EF  8D F9 C3              STA $C3F9               ; SPRITE 1 PTR SCREEN 0
00640  62F2  8D F9 C7              STA $C7F9               ; SPRITE 1 PTR SCREEN 1
00641  62F5  A9 84                 LDA #132 ; #135 ; #132
00642  62F7  8D 02 D0              STA VIC_SPRITE_1_X_POS  ; SPRITE 1 X POS
00643  62FA  A9 A5                 LDA #165
00644  62FC  8D 03 D0              STA VIC_SPRITE_1_Y_POS  ; SPRITE 1 Y POS ; CHER???
00645  62FF  A9 08                 LDA #ORANGE ; #WHITE
00646  6301  8D 28 D0              STA VIC_SPRITE_1_COLOR  ; SPRITE 1 COLOR
00647  6304             
00648  6304  A9 42                 LDA #66                 ; $D080
00649  6306  8D FA C3              STA $C3FA               ; SPRITE 2 PTR SCREEN 0
00650  6309  8D FA C7              STA $C7FA               ; SPRITE 2 PTR SCREEN 1
00651  630C  A9 C8                 LDA #200
00652  630E  8D 04 D0              STA VIC_SPRITE_2_X_POS  ; SPRITE 2 X POS
00653  6311  A9 A0                 LDA #160
00654  6313  8D 05 D0              STA VIC_SPRITE_2_Y_POS  ; SPRITE 2 Y POS ; CHER
00655  6316  A9 02                 LDA #RED
00656  6318  8D 29 D0              STA VIC_SPRITE_2_COLOR  ; SPRITE 2 COLOR
00657  631B             
00658  631B  A9 43                 LDA #67                 ; $D0C0
00659  631D  8D FF C3              STA $C3FF               ; SPRITE 7 PTR SCREEN 0
00660  6320  8D FF C7              STA $C7FF               ; SPRITE 7 PTR SCREEN 1
00661  6323  A9 8C                 LDA #140
00662  6325  8D 0E D0              STA VIC_SPRITE_7_X_POS  ; SPRITE 7 X POS
00663  6328  A9 82                 LDA #130
00664  632A  8D 0F D0              STA VIC_SPRITE_7_Y_POS  ; SPRITE 7 Y POS
00665  632D  A9 01                 LDA #WHITE
00666  632F  8D 2E D0              STA VIC_SPRITE_7_COLOR  ; SPRITE 7 COLOR
00667  6332             
00668  6332  A9 84                 LDA #%10000100 ; #%10000011
00669  6334  8D 1D D0              STA VIC_SPRITE_X_EXPAND ; SPRITE 0-7 X STRETCH
00670  6337  A9 06                 LDA #%00000110
00671  6339  8D 17 D0              STA VIC_SPRITE_Y_EXPAND ; SPRITE 0-7 Y STRETCH
00672  633C  A9 00                 LDA #%00000000
00673  633E  8D 10 D0              STA VIC_SPRITE_X_POS_MSB ; SPRITE 0-7 X POS MSB
00674  6341  8D 1B D0              STA VIC_SPRITE_CHAR_PRIORITY ; SPRITE 0-7 SPRITE-CHAR PRIORITY
00675  6344  A9 02                 LDA #%00000010
00676  6346  8D 1C D0              STA VIC_SPRITE_MULTICOLOR_SELECT ; SPRITE 0-7 MULTICOLOR
00677  6349  AD 1E D0              LDA VIC_SPRITE_SPRITE_COLLISION ; CLEAR SPRITE-SPRITE COLLISIONS
00678  634C  AD 1F D0              LDA VIC_SPRITE_CHAR_COLLISION ; CLEAR SPRITE-BACKGROUND COLLISIONS
00679  634F  A9 01                 LDA #WHITE ; #ORANGE
00680  6351  8D 25 D0              STA VIC_SPRITE_MULTICOLOR_1 ; SPRITE MULTICOLOR 1
00681  6354  A9 02                 LDA #RED ; #LIGHT_BLUE
00682  6356  8D 26 D0              STA VIC_SPRITE_MULTICOLOR_2 ; SPRITE MULTICOLOR 2
00683  6359                        ;LDA #%10000111
00684  6359  A9 03                 LDA #%00000011
00685  635B  8D 15 D0              STA VIC_SPRITE_ENABLE   ; SPRITE 0-7 ENABLE
00686  635E             
00687  635E  AD 16 D0              LDA VIC_XSCROLL_CONTROL
00688  6361  29 F0                 AND #%11110000
00689  6363                        ;AND #%11111000         ; TO SEE LEFT/RIGHT SCROLLER SEAM
00690  6363  09 14                 ORA #%00010100          ; SET X-SCROLL AND MULTICOLOR MODE
00691  6365  8D 16 D0              STA VIC_XSCROLL_CONTROL
00692  6368  AD 11 D0              LDA VIC_YSCROLL_CONTROL
00693  636B             ;        AND #%01111000 ; #%11110000
00694  636B  09 04                 ORA #%00000100
00695  636D  8D 11 D0              STA VIC_YSCROLL_CONTROL
00696  6370  60                    RTS
00697  6371             
00698  6371             SETUP_IRQ
00699  6371             
00700  6371             ;        SEI
00701  6371  A9 7F                 LDA #$7F
00702  6373  8D 0D DC              STA $DC0D               ; DISABLE NORMAL TIMER INTERRUPTS
00703  6376  A9 93                 LDA #<IRQ
00704  6378  8D 14 03              STA $0314
00705  637B  A9 63                 LDA #>IRQ
00706  637D  8D 15 03              STA $0315
00707  6380  A9 C3                 LDA #IRQLINE2
00708  6382  8D 12 D0              STA VIC_RASTER_SCAN_LINE ; STOP AT THE LOWER BORDER
00709  6385  AD 11 D0              LDA VIC_YSCROLL_CONTROL
00710  6388  29 7F                 AND #%01111111
00711  638A  8D 11 D0              STA VIC_YSCROLL_CONTROL
00712  638D  A9 81                 LDA #%10000001
00713  638F  8D 1A D0              STA VIC_IRQ_ENABLE
00714  6392             ;        CLI
00715  6392  60                    RTS
00716  6393             
00717  6393             
00718  6393             
00719  6393             
00720  6393             IRQ        ; WE ARE AT LOWER BORDER (LINE 248)
00721  6393  AD 19 D0              LDA VIC_IRQ_STATUS_FLAG
00722  6396  8D 19 D0              STA VIC_IRQ_STATUS_FLAG
00723  6399             RASIRQ
00724  6399                        ;INC VIC_BORDER_COLOR  CHANGED FOR DEMO
00725  6399                        ;DEC VIC_BORDER_COLOR
00726  6399                        ;INC VIC_BORDER_COLOR
00727  6399                        ;DEC VIC_BORDER_COLOR
00728  6399             
00729  6399  AD 65 74              LDA PHASE
00730  639C  8D 4A 64              STA PHASECOPY+1
00731  639F             
00732  639F  AD 66 74              LDA SCROLLIX
00733  63A2  8D 44 64              STA SCROLLIXCOPY+1
00734  63A5  8D F8 64              STA SCROLLIXCOPYX+1
00735  63A8  8D 30 65              STA SCROLLIXCOPYY+1
00736  63AB  C9 04                 CMP #4
00737  63AD  D0 0B                 BNE DOSCR
00738  63AF             
00739  63AF  A9 04                 LDA #4
00740  63B1  8D 63 74              STA XSCROLL
00741  63B4  8D 64 74              STA YSCROLL
00742  63B7             
00743  63B7  4C 3C 64              JMP NOSCR
00744  63BA             DOSCR
00745  63BA  AD 66 74              LDA SCROLLIX
00746  63BD  0A                    ASL
00747  63BE  0A                    ASL
00748  63BF  0A                    ASL
00749  63C0  18                    CLC
00750  63C1  6D 65 74              ADC PHASE
00751  63C4  AA                    TAX                     ; X = 8 * SCROLLIX + PHASE
00752  63C5  AD 4A 74              LDA SCROLLSPEED
00753  63C8  C9 01                 CMP #1
00754  63CA  D0 06                 BNE NOT1
00755  63CC  BD C0 74              LDA ACTION1,X
00756  63CF  4C DF 63              JMP TSTACT
00757  63D2  C9 02      NOT1       CMP #2
00758  63D4  D0 06                 BNE NOT2
00759  63D6  BD 08 75              LDA ACTION2,X
00760  63D9  4C DF 63              JMP TSTACT
00761  63DC  BD 50 75   NOT2       LDA ACTION4,X
00762  63DF  F0 1B      TSTACT     BEQ IRQ1
00763  63E1             IRQ3
00764  63E1  C9 01                 CMP #1
00765  63E3  D0 09                 BNE IRQ0
00766  63E5             
00767  63E5  20 82 6A              JSR COPYSCREEN
00768  63E8             
00769  63E8  20 BD 6E              JSR ADDNEWDATA
00770  63EB             
00771  63EB  4C FC 63              JMP IRQ1
00772  63EE             IRQ0
00773  63EE  20 DD 6B              JSR SCROLLCOLOR
00774  63F1             
00775  63F1  20 A9 72              JSR ADDNEWCOLOR
00776  63F4             
00777  63F4  AD 4C 74              LDA SCREEN
00778  63F7  49 01                 EOR #1
00779  63F9  8D 4C 74              STA SCREEN
00780  63FC             IRQ1
00781  63FC  AD 66 74              LDA SCROLLIX
00782  63FF  0A                    ASL
00783  6400  0A                    ASL
00784  6401  0A                    ASL
00785  6402  18                    CLC
00786  6403  6D 65 74              ADC PHASE
00787  6406  0A                    ASL
00788  6407  8D 17 64              STA OFFSET+1
00789  640A  AD 4A 74              LDA SCROLLSPEED
00790  640D  29 06                 AND #%00000110
00791  640F  18                    CLC
00792  6410  6D 17 64              ADC OFFSET+1
00793  6413  8D 17 64              STA OFFSET+1 ; X = 16 * SCROLLIX + 2 * PHASE + (SCROLLSPEED AND 6)
00794  6416  A2 00      OFFSET     LDX #0
00795  6418  BD 98 75              LDA SCROLLS,X
00796  641B  8D 63 74              STA XSCROLL
00797  641E  BD 99 75              LDA SCROLLS+1,X
00798  6421  8D 64 74              STA YSCROLL
00799  6424  AD 65 74              LDA PHASE
00800  6427  18                    CLC
00801  6428  6D 4A 74              ADC SCROLLSPEED
00802  642B  8D 65 74              STA PHASE
00803  642E  C9 08                 CMP #8
00804  6430  D0 0A                 BNE NOT8
00805  6432             
00806  6432             CONT1
00807  6432  A9 00                 LDA #0
00808  6434  8D 65 74              STA PHASE
00809  6437             
00810  6437  A9 04                 LDA #4
00811  6439  8D 66 74              STA SCROLLIX
00812  643C             NOT8
00813  643C             NOSCR
00814  643C             
00815  643C             WAITNEWFRAME 
00816  643C  AD 12 D0              LDA VIC_RASTER_SCAN_LINE
00817  643F  C9 BE                 CMP #190
00818  6441  B0 F9                 BCS WAITNEWFRAME
00819  6443             
00820  6443             SCROLLIXCOPY 
00821  6443  A9 04                 LDA #4
00822  6445  C9 04                 CMP #4
00823  6447  F0 19                 BEQ NOUPD
00824  6449             PHASECOPY
00825  6449  A9 00                 LDA #0 ; PHASE
00826  644B  29 01                 AND #%00000001
00827  644D  D0 10                 BNE NOROLL
00828  644F  AD 4A 74              LDA SCROLLSPEED
00829  6452  29 04                 AND #%00000100
00830  6454  F0 06                 BEQ ROLLS12
00831  6456  20 48 7C              JSR ROLLCHARS4
00832  6459  4C 5F 64              JMP NOROLL
00833  645C  20 04 7B   ROLLS12    JSR ROLLCHARS
00834  645F             NOROLL
00835  645F  20 11 81              JSR COPY_ROLLED_CHARS
00836  6462             NOUPD
00837  6462             
00838  6462  AD 16 D0              LDA VIC_XSCROLL_CONTROL
00839  6465  29 F8                 AND #%11111000
00840  6467  09 04                 ORA #%00000100
00841  6469  8D 16 D0              STA VIC_XSCROLL_CONTROL ; SET FIXED X-SCROLL
00842  646C  AD 11 D0              LDA VIC_YSCROLL_CONTROL
00843  646F  29 78                 AND #%01111000 ; #%01110000   ; NOT AND #%11110000
00844  6471  09 04                 ORA #%00000100
00845  6473  8D 11 D0              STA VIC_YSCROLL_CONTROL ; SET FIXED Y-SCROLL
00846  6476             
00847  6476  A9 00                 LDA #BLACK ; LDA #RED  CHANGED FOR DEMO
00848  6478  8D 20 D0              STA VIC_BORDER_COLOR
00849  647B             
00850  647B  78                    SEI
00851  647C  A9 2A                 LDA #<IRQNO2
00852  647E  8D 14 03              STA $0314
00853  6481  A9 66                 LDA #>IRQNO2
00854  6483  8D 15 03              STA $0315
00855  6486  A9 64                 LDA #IRQLINE1
00856  6488  8D 12 D0              STA VIC_RASTER_SCAN_LINE               ; STOP AT SPLIT-SCREEN
00857  648B  58                    CLI
00858  648C             
00859  648C  A5 14                 LDA WINMAPX
00860  648E  20 E9 7A              JSR HEX2DEC
00861  6491  8C 46 C0              STY 49222
00862  6494  8C 46 C4              STY 49222+1024
00863  6497  8E 47 C0              STX 49223
00864  649A  8E 47 C4              STX 49223+1024
00865  649D  8D 48 C0              STA 49224
00866  64A0  8D 48 C4              STA 49224+1024
00867  64A3  A5 15                 LDA WINMAPY
00868  64A5  20 E9 7A              JSR HEX2DEC
00869  64A8  8C 4B C0              STY 49227
00870  64AB  8C 4B C4              STY 49227+1024
00871  64AE  8E 4C C0              STX 49228
00872  64B1  8E 4C C4              STX 49228+1024
00873  64B4  8D 4D C0              STA 49229
00874  64B7  8D 4D C4              STA 49229+1024
00875  64BA  A5 16                 LDA WINBLKX
00876  64BC  20 E9 7A              JSR HEX2DEC
00877  64BF  8C 96 C0              STY 49302
00878  64C2  8C 96 C4              STY 49302+1024
00879  64C5  8E 97 C0              STX 49303
00880  64C8  8E 97 C4              STX 49303+1024
00881  64CB  8D 98 C0              STA 49304
00882  64CE  8D 98 C4              STA 49304+1024
00883  64D1  A5 24                 LDA RAYPIXX_LO
00884  64D3  20 E9 7A              JSR HEX2DEC
00885  64D6  8C 9B C0              STY 49307
00886  64D9  8C 9B C4              STY 49307+1024
00887  64DC  8E 9C C0              STX 49308
00888  64DF  8E 9C C4              STX 49308+1024
00889  64E2  8D 9D C0              STA 49309
00890  64E5  8D 9D C4              STA 49309+1024
00891  64E8             
00892  64E8             
00893  64E8                        ; CALCULATE HORIZONTAL DISPLACEMENT DUE TO SCROLL
00894  64E8             OLDXSCROLL 
00895  64E8  A9 04                 LDA #4
00896  64EA  38                    SEC
00897  64EB  ED 63 74              SBC XSCROLL
00898  64EE  8D 15 65              STA XEXPECTZER+1
00899  64F1  8D 01 65              STA XEXPECTPOS+1
00900  64F4  8D 0A 65              STA XEXPECTNEG+1
00901  64F7             SCROLLIXCOPYX 
00902  64F7  A0 04                 LDY #4
00903  64F9  B9 8A 7A              LDA XEXPECT,Y
00904  64FC  F0 16                 BEQ XEXPECTZER
00905  64FE  30 09                 BMI XEXPECTNEG
00906  6500             XEXPECTPOS 
00907  6500  A9 01                 LDA #1
00908  6502  10 14                 BPL SAVEX
00909  6504  18                    CLC
00910  6505  69 08                 ADC #8
00911  6507  B0 0F                 BCS SAVEX
00912  6509             XEXPECTNEG 
00913  6509  A9 FF                 LDA #255
00914  650B  30 0B                 BMI SAVEX
00915  650D  F0 09                 BEQ SAVEX         ; FOR SCROLLIX=2 THE FIRST DIFFERENCE IS 0
00916  650F  38                    SEC
00917  6510  E9 08                 SBC #8
00918  6512  90 04                 BCC SAVEX
00919  6514             XEXPECTZER 
00920  6514  A9 00                 LDA #0
00921  6516  30 F1                 BMI XEXPECTNEG
00922  6518             SAVEX
00923  6518  85 D2                 STA XDISP
00924  651A  AD 63 74              LDA XSCROLL
00925  651D  8D E9 64              STA OLDXSCROLL+1
00926  6520             
00927  6520                        ; CALCULATE VERTICAL DISPLACEMENT DUE TO SCROLL
00928  6520             OLDYSCROLL 
00929  6520  A9 04                 LDA #4
00930  6522  38                    SEC
00931  6523  ED 64 74              SBC YSCROLL
00932  6526  8D 4D 65              STA YEXPECTZER+1
00933  6529  8D 39 65              STA YEXPECTPOS+1
00934  652C  8D 42 65              STA YEXPECTNEG+1
00935  652F             SCROLLIXCOPYY 
00936  652F  A0 04                 LDY #4
00937  6531  B9 93 7A              LDA YEXPECT,Y
00938  6534  F0 16                 BEQ YEXPECTZER
00939  6536  30 09                 BMI YEXPECTNEG
00940  6538             YEXPECTPOS 
00941  6538  A9 01                 LDA #1
00942  653A  10 14                 BPL SAVEY
00943  653C  18                    CLC
00944  653D  69 08                 ADC #8
00945  653F  B0 0F                 BCS SAVEY
00946  6541             YEXPECTNEG 
00947  6541  A9 FF                 LDA #255
00948  6543  30 0B                 BMI SAVEY
00949  6545  F0 09                 BEQ SAVEY         ; FOR SCROLLIX=6 THE FIRST DIFFERENCE IS 0
00950  6547  38                    SEC
00951  6548  E9 08                 SBC #8
00952  654A  90 04                 BCC SAVEY
00953  654C             YEXPECTZER 
00954  654C  A9 00                 LDA #0
00955  654E  30 F1                 BMI YEXPECTNEG
00956  6550             SAVEY
00957  6550  85 D3                 STA YDISP
00958  6552  AD 64 74              LDA YSCROLL
00959  6555  8D 21 65              STA OLDYSCROLL+1
00960  6558             
00961  6558                        ; UPDATE WINXPOS DUE TO SCROLL
00962  6558  A5 D2                 LDA XDISP
00963  655A  30 0B                 BMI XDISPNEG
00964  655C  18                    CLC
00965  655D  65 1A                 ADC WINPIXX_LO
00966  655F  85 1A                 STA WINPIXX_LO
00967  6561  90 17                 BCC WINXDONE
00968  6563  E6 1B                 INC WINPIXX_HI
00969  6565  B0 13                 BCS WINXDONE
00970  6567             XDISPNEG
00971  6567  49 FF                 EOR #$FF
00972  6569  8D 73 65              STA XSBC+1
00973  656C  EE 73 65              INC XSBC+1
00974  656F  A5 1A                 LDA WINPIXX_LO
00975  6571  38                    SEC
00976  6572  E9 00      XSBC       SBC #$00
00977  6574  85 1A                 STA WINPIXX_LO
00978  6576  B0 02                 BCS WINXDONE
00979  6578  C6 1B                 DEC WINPIXX_HI
00980  657A             WINXDONE
00981  657A             
00982  657A                        ; UPDATE WINYPOS DUE TO SCROLL
00983  657A  A5 D3                 LDA YDISP
00984  657C  30 0B                 BMI YDISPNEG
00985  657E  18                    CLC
00986  657F  65 1C                 ADC WINPIXY_LO
00987  6581  85 1C                 STA WINPIXY_LO
00988  6583  90 17                 BCC WINYDONE
00989  6585  E6 1D                 INC WINPIXY_HI
00990  6587  B0 13                 BCS WINYDONE
00991  6589             YDISPNEG
00992  6589  49 FF                 EOR #$FF
00993  658B  8D 95 65              STA YSBC+1
00994  658E  EE 95 65              INC YSBC+1
00995  6591  A5 1C                 LDA WINPIXY_LO
00996  6593  38                    SEC
00997  6594  E9 00      YSBC       SBC #$00
00998  6596  85 1C                 STA WINPIXY_LO
00999  6598  B0 02                 BCS WINYDONE
01000  659A  C6 1D                 DEC WINPIXY_HI
01001  659C             WINYDONE
01002  659C             
01003  659C                        ; UPDATE SPRITE 0-1 XPOS
01004  659C  38                    SEC
01005  659D  A5 24                 LDA RAYPIXX_LO
01006  659F  E5 1A                 SBC WINPIXX_LO
01007  65A1  85 D0                 STA TEMPLO
01008  65A3  A5 25                 LDA RAYPIXX_HI
01009  65A5  E5 1B                 SBC WINPIXX_HI
01010  65A7  85 D1                 STA TEMPHI
01011  65A9  18                    CLC
01012  65AA  A5 D0                 LDA TEMPLO
01013  65AC  69 18                 ADC #24
01014  65AE  85 D0                 STA TEMPLO
01015  65B0  8D 00 D0              STA VIC_SPRITE_0_X_POS
01016  65B3  8D 02 D0              STA VIC_SPRITE_1_X_POS
01017  65B6  90 02                 BCC NOHIX
01018  65B8  E6 D1                 INC TEMPHI
01019  65BA  A5 D1      NOHIX      LDA TEMPHI
01020  65BC  F0 19                 BEQ ISZERO0
01021  65BE  C9 02                 CMP #2
01022  65C0  90 0B                 BCC ISOK
01023  65C2  AD 15 D0              LDA VIC_SPRITE_ENABLE
01024  65C5  29 FC                 AND #%11111100
01025  65C7  8D 15 D0              STA VIC_SPRITE_ENABLE
01026  65CA  4C E7 65              JMP NEXTSPR1
01027  65CD  AD 10 D0   ISOK       LDA VIC_SPRITE_X_POS_MSB
01028  65D0  09 03                 ORA #%00000011
01029  65D2  8D 10 D0              STA VIC_SPRITE_X_POS_MSB
01030  65D5  D0 08                 BNE SETENAB             ; BRANCH ALWAYS TAKEN
01031  65D7  AD 10 D0   ISZERO0    LDA VIC_SPRITE_X_POS_MSB
01032  65DA  29 FC                 AND #%11111100
01033  65DC  8D 10 D0              STA VIC_SPRITE_X_POS_MSB
01034  65DF  AD 15 D0   SETENAB    LDA VIC_SPRITE_ENABLE
01035  65E2  09 03                 ORA #%00000011
01036  65E4  8D 15 D0              STA VIC_SPRITE_ENABLE
01037  65E7             NEXTSPR1
01038  65E7             
01039  65E7             
01040  65E7                        ; UPDATE SPRITE 0-1 YPOS
01041  65E7  38                    SEC
01042  65E8  A5 26                 LDA RAYPIXY_LO
01043  65EA  E5 1C                 SBC WINPIXY_LO
01044  65EC  85 D0                 STA TEMPLO                      ; TEMPLO = RAYPIXY_LO - WINPIXY_LO
01045  65EE  A5 27                 LDA RAYPIXY_HI
01046  65F0  E5 1D                 SBC WINPIXY_HI
01047  65F2  85 D1                 STA TEMPHI                      ; TEMPHI = RAYPIXY_HI - WINPIXY_HI
01048  65F4  18                    CLC
01049  65F5  A5 D0                 LDA TEMPLO
01050  65F7  69 59                 ADC #89
01051  65F9  85 D0                 STA TEMPLO                      ; TEMPLO = TEMPLO + 89
01052  65FB  8D 03 D0              STA VIC_SPRITE_1_Y_POS          ; VIC_SPRITE_1_Y_POS = TEMPLO
01053  65FE  90 02                 BCC NOHIY
01054  6600  E6 D1                 INC TEMPHI
01055  6602  A5 D1      NOHIY      LDA TEMPHI
01056  6604  D0 19                 BNE DISABLE
01057  6606  AD 03 D0              LDA VIC_SPRITE_1_Y_POS
01058  6609  C9 4E                 CMP #78
01059  660B  90 12                 BCC DISABLE
01060  660D  C9 EF                 CMP #239
01061  660F  B0 0E                 BCS DISABLE
01062  6611  18                    CLC
01063  6612  69 06                 ADC #6
01064  6614  8D 01 D0              STA VIC_SPRITE_0_Y_POS          ; STA VIC_SPRITE_0_Y_POS = LDA VIC_SPRITE_1_Y_POS + 6
01065  6617             NEXTSPR2
01066  6617             
01067  6617  A9 00                 LDA #BLACK
01068  6619  8D 20 D0              STA VIC_BORDER_COLOR
01069  661C             
01070  661C  4C BC FE              JMP $FEBC
01071  661F             
01072  661F  AD 15 D0   DISABLE    LDA VIC_SPRITE_ENABLE
01073  6622  29 FC                 AND #%11111100
01074  6624  8D 15 D0              STA VIC_SPRITE_ENABLE
01075  6627  4C 17 66              JMP NEXTSPR2
01076  662A             
01077  662A             
01078  662A             IRQNO2     ; WE ARE AT SPLIT-SCREEN POSITION (LINE 100)
01079  662A  AD 19 D0              LDA VIC_IRQ_STATUS_FLAG
01080  662D  8D 19 D0              STA VIC_IRQ_STATUS_FLAG
01081  6630             RASIRQ2
01082  6630  AC 64 74              LDY YSCROLL
01083  6633  AD 11 D0              LDA VIC_YSCROLL_CONTROL
01084  6636  29 78                 AND #%01111000          ; NOT AND #%11110000
01085  6638  19 28 76              ORA SCROLLCONV,Y
01086  663B  09 60                 ORA #%01100000          ; ILLEGAL MODE
01087  663D                        ;ORA #%00010000          ; USE THIS TO SEE SCROLLER SEAM
01088  663D  8D 11 D0              STA VIC_YSCROLL_CONTROL ; SET Y-SCROLL
01089  6640             
01090  6640  AD 16 D0              LDA VIC_XSCROLL_CONTROL
01091  6643  29 F8                 AND #%11111000
01092  6645  0D 63 74              ORA XSCROLL
01093  6648  8D 16 D0              STA VIC_XSCROLL_CONTROL ; SET X-SCROLL
01094  664B             
01095  664B  A9 00                 LDA #BLACK ; LDA #YELLOW  CHANGED FOR DEMO
01096  664D  8D 20 D0              STA VIC_BORDER_COLOR    ; BY CHANGING BACKGROUND COLOUR, SHOW IRQ START
01097  6650             
01098  6650  AE 4C 74              LDX SCREEN
01099  6653  AD 18 D0              LDA VIC_MEMORY_CONTROL
01100  6656  29 0F                 AND #%00001111
01101  6658  1D 4D 74              ORA SCREENLOC,X
01102  665B  8D 18 D0              STA VIC_MEMORY_CONTROL  ; SET SCREEN
01103  665E             
01104  665E             WW1
01105  665E  A9 72                 LDA #114
01106  6660  CD 12 D0   WAIT       CMP VIC_RASTER_SCAN_LINE
01107  6663  D0 FB                 BNE WAIT
01108  6665             
01109  6665  AD 11 D0              LDA VIC_YSCROLL_CONTROL
01110  6668  4D 12 D0              EOR VIC_RASTER_SCAN_LINE
01111  666B  29 07                 AND #%00000111
01112  666D  F0 15                 BEQ WW2
01113  666F  EA EA EA              DCB 21,$EA
01114  6684             
01115  6684             WW2
01116  6684  AD 11 D0              LDA VIC_YSCROLL_CONTROL
01117  6687  29 1F                 AND #%00011111          ; NOT AND #%11001111
01118  6689  8D 11 D0              STA VIC_YSCROLL_CONTROL ; SET LEGAL MODE
01119  668C             
01120  668C                        ;SEI    ???
01121  668C  A9 93                 LDA #<IRQ
01122  668E  8D 14 03              STA $0314
01123  6691  A9 63                 LDA #>IRQ
01124  6693  8D 15 03              STA $0315
01125  6696  A9 C3                 LDA #IRQLINE2
01126  6698  8D 12 D0              STA VIC_RASTER_SCAN_LINE ; STOP AT LOWER BORDER
01127  669B                        ;CLI    ???
01128  669B             
01129  669B             
01130  669B  A9 00                 LDA #BLACK ; WHITE
01131  669D  8D 20 D0              STA VIC_BORDER_COLOR
01132  66A0             
01133  66A0             
01134  66A0  AD 00 DC              LDA $DC00
01135  66A3  49 FF                 EOR #%11111111
01136  66A5  29 0F                 AND #%00001111
01137  66A7  8D 4B 74              STA JOYDIR
01138  66AA             
01139  66AA             
01140  66AA  20 BF 66              JSR PLAYERCONTROL
01141  66AD             
01142  66AD             
01143  66AD  A9 00                 LDA #BLACK
01144  66AF  8D 20 D0              STA VIC_BORDER_COLOR
01145  66B2             
01146  66B2             
01147  66B2  AD 66 74              LDA SCROLLIX
01148  66B5  C9 04                 CMP #4
01149  66B7  D0 03                 BNE ABC
01150  66B9  4C B1 69              JMP CHKNEED2SCROLL ; BEQ CHKNEED2SCROLL COULDN'T REACH
01151  66BC  4C 67 6A   ABC        JMP DOSCR1
01152  66BF             
01153  66BF             
01154  66BF             ;--------
01155  66BF             
01156  66BF             PLAYERCONTROL 
01157  66BF             
01158  66BF  AD A4 7A              LDA PLAYER_JUMP_POS     ; CHECK OUR INDEX INTO JUMP TABLE
01159  66C2  D0 4A                 BNE PLAYERISJUMPING    ; TO SEE IF WE'RE IN A JUMP
01160  66C4             
01161  66C4  20 D5 68              JSR PLAYERMOVEDOWN      ; PLAYER ALWAYS MOVES DOWN REGARDLESS
01162  66C7  D0 03                 BNE NOTFALLING         ; OF JOYSTICK INPUT (GRAVITY)
01163  66C9             
01164  66C9                        ; PLAYER FELL ONE PIXEL
01165  66C9  4C DB 66              JMP PLAYERFELL         ; PLAYERMOVEDOWN CHECKED THAT WE FELL
01166  66CC             
01167  66CC             NOTFALLING 
01168  66CC  A9 00                 LDA #0                  ; NOT FALLING? THEN RESET FALL POS
01169  66CE  8D C6 7A              STA PLAYER_FALL_POS
01170  66D1                        
01171  66D1             NOTDOWNPRESSED ; AND CONTINUE NORMALLY
01172  66D1  AD 4B 74              LDA JOYDIR
01173  66D4  29 01                 AND #%00000001
01174  66D6  F0 21                 BEQ NOTUPPRESSED
01175  66D8             
01176  66D8  4C 0E 67              JMP PLAYERISJUMPING    ; UP PRESSED MEANS JUMPING!
01177  66DB                        
01178  66DB             PLAYERFELL ; WE FELL! LOAD OUR FALL INDEX
01179  66DB  AE C6 7A              LDX PLAYER_FALL_POS
01180  66DE  BD C7 7A              LDA FALL_SPEED_TABLE,X  ; WHAT'S OUR FALL SPEED?
01181  66E1  F0 0C                 BEQ FALLCOMPLETE       ; NEVER HAPPENS. FALL_SPEED_TABLE NO 0
01182  66E3  85 30                 STA PARAM5              ; STORE THE FALL SPEED
01183  66E5             
01184  66E5             FALLLOOP   ; WE FALL SEVERAL PIXELS IN 1 LOOP
01185  66E5  C6 30                 DEC PARAM5
01186  66E7  F0 06                 BEQ FALLCOMPLETE
01187  66E9             
01188  66E9  20 D5 68              JSR PLAYERMOVEDOWN      ; NOT DONE FALLING? MOVE DOWN
01189  66EC  4C E5 66              JMP FALLLOOP           ; AND AGAIN
01190  66EF             
01191  66EF             FALLCOMPLETE ; FALL COMPLETE IN THIS LOOP?
01192  66EF  AD C6 7A              LDA PLAYER_FALL_POS     ; WHAT'S OUR FALL INDEX?
01193  66F2                        ;CMP #(FALL_TABLE_SIZE-1)          ; AT TABLE'S END?
01194  66F2  C9 21                 CMP #33                  ; AT TABLE'S END?
01195  66F4  F0 03                 BEQ FALLSPEEDATMAX     ; YES? THEN CONTINUE AS NORMAL
01196  66F6             
01197  66F6  EE C6 7A              INC PLAYER_FALL_POS     ; NO? INCREASE INDEX FOR NEXT LOOP
01198  66F9                        ; MEANS WE CAN MOVE LEFT DURING FALL
01199  66F9             
01200  66F9             FALLSPEEDATMAX 
01201  66F9             NOTUPPRESSED 
01202  66F9             JUMPSTOPPED 
01203  66F9             JUMPCOMPLETE 
01204  66F9  AD 4B 74              LDA JOYDIR
01205  66FC  29 04                 AND #%00000100
01206  66FE  F0 03                 BEQ NOTLEFTPRESSED
01207  6700  20 3E 67              JSR PLAYERMOVELEFT
01208  6703             
01209  6703             NOTLEFTPRESSED 
01210  6703  AD 4B 74              LDA JOYDIR
01211  6706  29 08                 AND #%00001000
01212  6708  F0 03                 BEQ NOTRIGHTPRESSED
01213  670A  20 D9 67              JSR PLAYERMOVERIGHT
01214  670D             
01215  670D             NOTRIGHTPRESSED 
01216  670D  60                    RTS
01217  670E             
01218  670E             PLAYERISJUMPING 
01219  670E  EE A4 7A              INC PLAYER_JUMP_POS
01220  6711  AD A4 7A              LDA PLAYER_JUMP_POS
01221  6714  C9 22                 CMP #JUMP_TABLE_SIZE
01222  6716  D0 08                 BNE JUMPON
01223  6718             
01224  6718  A9 00                 LDA #0
01225  671A  8D A4 7A              STA PLAYER_JUMP_POS
01226  671D  4C F9 66              JMP JUMPCOMPLETE
01227  6720             
01228  6720             JUMPON
01229  6720  AE A4 7A              LDX PLAYER_JUMP_POS
01230  6723             
01231  6723  BD A5 7A              LDA PLAYER_JUMP_TABLE,X
01232  6726  F0 D1                 BEQ JUMPCOMPLETE
01233  6728  85 30                 STA PARAM5
01234  672A             
01235  672A             JUMPCONTINUE 
01236  672A  20 74 68              JSR PLAYERMOVEUP
01237  672D  D0 07                 BNE JUMPBLOCKED
01238  672F             
01239  672F  C6 30                 DEC PARAM5
01240  6731  D0 F7                 BNE JUMPCONTINUE
01241  6733  4C F9 66              JMP JUMPCOMPLETE
01242  6736             
01243  6736             JUMPBLOCKED 
01244  6736  A9 00                 LDA #0
01245  6738  8D A4 7A              STA PLAYER_JUMP_POS
01246  673B  4C F9 66              JMP JUMPSTOPPED
01247  673E             
01248  673E             ;--------
01249  673E             
01250  673E             
01251  673E             ;------------------------------------------------------------
01252  673E             ; PLAYERMOVELEFT
01253  673E             ;------------------------------------------------------------
01254  673E             PLAYERMOVELEFT 
01255  673E             
01256  673E  A9 01                 LDA #1
01257  6740  85 D4                 STA FACING
01258  6742             
01259  6742  A9 42                 LDA #66                 ; $D080
01260  6744  8D F8 C3              STA $C3F8               ; SPRITE 0 PTR SCREEN 0
01261  6747  8D F8 C7              STA $C7F8               ; SPRITE 0 PTR SCREEN 1
01262  674A  A9 43                 LDA #67                 ; $D0C0
01263  674C  8D F9 C3              STA $C3F9               ; SPRITE 1 PTR SCREEN 0
01264  674F  8D F9 C7              STA $C7F9               ; SPRITE 1 PTR SCREEN 1
01265  6752             
01266  6752  A5 20                 LDA RAYDELTAX
01267  6754  F0 03                 BEQ DELTAXIS0L
01268  6756  4C CE 67              JMP DECXL
01269  6759             DELTAXIS0L 
01270  6759  A5 1E                 LDA RAYMAPCHRX_LO
01271  675B  85 28                 STA TMPMAPCHRX_LO
01272  675D  A5 1F                 LDA RAYMAPCHRX_HI
01273  675F  85 29                 STA TMPMAPCHRX_HI
01274  6761  A5 21                 LDA RAYMAPCHRY_LO
01275  6763  85 2A                 STA TMPMAPCHRY_LO
01276  6765  A5 22                 LDA RAYMAPCHRY_HI
01277  6767  85 2B                 STA TMPMAPCHRY_HI
01278  6769             
01279  6769                        ; 16-BIT DECREMENT WORD
01280  6769  A5 28                 LDA TMPMAPCHRX_LO
01281  676B  D0 02                 BNE NODECXL
01282  676D  C6 29                 DEC TMPMAPCHRX_HI
01283  676F  C6 28      NODECXL    DEC TMPMAPCHRX_LO
01284  6771             
01285  6771  20 63 69              JSR CALC_MAP_AND_BLK_X_COORDINATES
01286  6774             
01287  6774  20 74 69              JSR CALC_MAP_AND_BLK_Y_COORDINATES
01288  6777  20 33 69              JSR GET_CHAR_AT_MAP_POSITION
01289  677A  20 85 69              JSR CHECK_IF_BLOCKED
01290  677D  D0 59                 BNE BLOCKEDLEFT
01291  677F             
01292  677F                        ; 16-BIT DECREMENT WORD
01293  677F  A5 2A                 LDA TMPMAPCHRY_LO
01294  6781  D0 02                 BNE NODECYL1
01295  6783  C6 2B                 DEC TMPMAPCHRY_HI
01296  6785             NODECYL1
01297  6785  C6 2A                 DEC TMPMAPCHRY_LO
01298  6787             
01299  6787  20 74 69              JSR CALC_MAP_AND_BLK_Y_COORDINATES
01300  678A  20 33 69              JSR GET_CHAR_AT_MAP_POSITION
01301  678D  20 85 69              JSR CHECK_IF_BLOCKED
01302  6790  D0 46                 BNE BLOCKEDLEFT
01303  6792             
01304  6792                        ; 16-BIT DECREMENT WORD
01305  6792  A5 2A                 LDA TMPMAPCHRY_LO
01306  6794  D0 02                 BNE NODECYL2
01307  6796  C6 2B                 DEC TMPMAPCHRY_HI
01308  6798             NODECYL2
01309  6798  C6 2A                 DEC TMPMAPCHRY_LO
01310  679A             
01311  679A  20 74 69              JSR CALC_MAP_AND_BLK_Y_COORDINATES
01312  679D  20 33 69              JSR GET_CHAR_AT_MAP_POSITION
01313  67A0  20 85 69              JSR CHECK_IF_BLOCKED
01314  67A3  D0 33                 BNE BLOCKEDLEFT
01315  67A5             
01316  67A5  A5 23                 LDA RAYDELTAY
01317  67A7  F0 19                 BEQ NO_FOURTH_CHARACTER_CHECKL
01318  67A9             
01319  67A9  A5 21                 LDA RAYMAPCHRY_LO
01320  67AB  85 2A                 STA TMPMAPCHRY_LO
01321  67AD  A5 22                 LDA RAYMAPCHRY_HI
01322  67AF  85 2B                 STA TMPMAPCHRY_HI
01323  67B1             
01324  67B1                        ; 16-BIT INCREMENT WORD
01325  67B1  E6 2A                 INC TMPMAPCHRY_LO
01326  67B3  D0 02                 BNE NOINCYL
01327  67B5  E6 2B                 INC TMPMAPCHRY_HI
01328  67B7             NOINCYL
01329  67B7  20 74 69              JSR CALC_MAP_AND_BLK_Y_COORDINATES
01330  67BA  20 33 69              JSR GET_CHAR_AT_MAP_POSITION
01331  67BD  20 85 69              JSR CHECK_IF_BLOCKED
01332  67C0  D0 16                 BNE BLOCKEDLEFT
01333  67C2             
01334  67C2             NO_FOURTH_CHARACTER_CHECKL 
01335  67C2  A9 08                 LDA #8
01336  67C4  85 20                 STA RAYDELTAX
01337  67C6             
01338  67C6                        ; 16-BIT DECREMENT WORD
01339  67C6  A5 1E                 LDA RAYMAPCHRX_LO
01340  67C8  D0 02                 BNE NODECML
01341  67CA  C6 1F                 DEC RAYMAPCHRX_HI
01342  67CC  C6 1E      NODECML    DEC RAYMAPCHRX_LO
01343  67CE             
01344  67CE  C6 20      DECXL      DEC RAYDELTAX
01345  67D0             
01346  67D0                        ; 16-BIT DECREMENT WORD
01347  67D0  A5 24                 LDA RAYPIXX_LO
01348  67D2  D0 02                 BNE NODECPL
01349  67D4  C6 25                 DEC RAYPIXX_HI
01350  67D6  C6 24      NODECPL    DEC RAYPIXX_LO
01351  67D8             
01352  67D8             BLOCKEDLEFT 
01353  67D8  60                    RTS
01354  67D9             
01355  67D9             
01356  67D9             ;------------------------------------------------------------
01357  67D9             ; PLAYERMOVERIGHT
01358  67D9             ;------------------------------------------------------------
01359  67D9             PLAYERMOVERIGHT 
01360  67D9             
01361  67D9  A9 00                 LDA #0
01362  67DB  85 D4                 STA FACING
01363  67DD             
01364  67DD  A9 40                 LDA #64                 ; $D000
01365  67DF  8D F8 C3              STA $C3F8               ; SPRITE 0 PTR SCREEN 0
01366  67E2  8D F8 C7              STA $C7F8               ; SPRITE 0 PTR SCREEN 1
01367  67E5  A9 41                 LDA #65                 ; $D040
01368  67E7  8D F9 C3              STA $C3F9               ; SPRITE 1 PTR SCREEN 0
01369  67EA  8D F9 C7              STA $C7F9               ; SPRITE 1 PTR SCREEN 1
01370  67ED             
01371  67ED  A5 20                 LDA RAYDELTAX
01372  67EF  F0 03                 BEQ DELTAXIS0R
01373  67F1  4C 5B 68              JMP INCXR
01374  67F4             DELTAXIS0R 
01375  67F4  A5 1E                 LDA RAYMAPCHRX_LO
01376  67F6  85 28                 STA TMPMAPCHRX_LO
01377  67F8  A5 1F                 LDA RAYMAPCHRX_HI
01378  67FA  85 29                 STA TMPMAPCHRX_HI
01379  67FC  A5 21                 LDA RAYMAPCHRY_LO
01380  67FE  85 2A                 STA TMPMAPCHRY_LO
01381  6800  A5 22                 LDA RAYMAPCHRY_HI
01382  6802  85 2B                 STA TMPMAPCHRY_HI
01383  6804             
01384  6804                        ; 16-BIT INCREMENT WORD
01385  6804  E6 28                 INC TMPMAPCHRX_LO
01386  6806  D0 02                 BNE NOINCXR
01387  6808  E6 29                 INC TMPMAPCHRX_HI
01388  680A             NOINCXR
01389  680A  20 63 69              JSR CALC_MAP_AND_BLK_X_COORDINATES
01390  680D             
01391  680D  20 74 69              JSR CALC_MAP_AND_BLK_Y_COORDINATES
01392  6810  20 33 69              JSR GET_CHAR_AT_MAP_POSITION
01393  6813  20 85 69              JSR CHECK_IF_BLOCKED
01394  6816  D0 5B                 BNE BLOCKEDRIGHT
01395  6818             
01396  6818                        ; 16-BIT DECREMENT WORD
01397  6818  A5 2A                 LDA TMPMAPCHRY_LO
01398  681A  D0 02                 BNE NODECYR1
01399  681C  C6 2B                 DEC TMPMAPCHRY_HI
01400  681E             NODECYR1
01401  681E  C6 2A                 DEC TMPMAPCHRY_LO
01402  6820             
01403  6820  20 74 69              JSR CALC_MAP_AND_BLK_Y_COORDINATES
01404  6823  20 33 69              JSR GET_CHAR_AT_MAP_POSITION
01405  6826  20 85 69              JSR CHECK_IF_BLOCKED
01406  6829  D0 48                 BNE BLOCKEDRIGHT
01407  682B             
01408  682B                        ; 16-BIT DECREMENT WORD
01409  682B  A5 2A                 LDA TMPMAPCHRY_LO
01410  682D  D0 02                 BNE NODECYR2
01411  682F  C6 2B                 DEC TMPMAPCHRY_HI
01412  6831             NODECYR2
01413  6831  C6 2A                 DEC TMPMAPCHRY_LO
01414  6833             
01415  6833  20 74 69              JSR CALC_MAP_AND_BLK_Y_COORDINATES
01416  6836  20 33 69              JSR GET_CHAR_AT_MAP_POSITION
01417  6839  20 85 69              JSR CHECK_IF_BLOCKED
01418  683C  D0 35                 BNE BLOCKEDRIGHT
01419  683E             
01420  683E  A5 23                 LDA RAYDELTAY
01421  6840  F0 19                 BEQ NO_FOURTH_CHARACTER_CHECKR
01422  6842             
01423  6842  A5 21                 LDA RAYMAPCHRY_LO
01424  6844  85 2A                 STA TMPMAPCHRY_LO
01425  6846  A5 22                 LDA RAYMAPCHRY_HI
01426  6848  85 2B                 STA TMPMAPCHRY_HI
01427  684A             
01428  684A                        ; 16-BIT INCREMENT WORD
01429  684A  E6 2A                 INC TMPMAPCHRY_LO
01430  684C  D0 02                 BNE NOINCYR
01431  684E  E6 2B                 INC TMPMAPCHRY_HI
01432  6850             NOINCYR
01433  6850  20 74 69              JSR CALC_MAP_AND_BLK_Y_COORDINATES
01434  6853  20 33 69              JSR GET_CHAR_AT_MAP_POSITION
01435  6856  20 85 69              JSR CHECK_IF_BLOCKED
01436  6859  D0 18                 BNE BLOCKEDRIGHT
01437  685B             
01438  685B             NO_FOURTH_CHARACTER_CHECKR 
01439  685B             INCXR
01440  685B  A5 20                 LDA RAYDELTAX
01441  685D  C9 07                 CMP #7
01442  685F  D0 0A                 BNE SAMECHARXR
01443  6861             
01444  6861  A9 FF                 LDA #255
01445  6863  85 20                 STA RAYDELTAX
01446  6865             
01447  6865                        ; 16-BIT INCREMENT WORD
01448  6865  E6 1E                 INC RAYMAPCHRX_LO
01449  6867  D0 02                 BNE NOINCMR
01450  6869  E6 1F                 INC RAYMAPCHRX_HI
01451  686B             NOINCMR
01452  686B             
01453  686B             SAMECHARXR 
01454  686B  E6 20                 INC RAYDELTAX
01455  686D             
01456  686D                        ; 16-BIT INCREMENT WORD
01457  686D  E6 24                 INC RAYPIXX_LO
01458  686F  D0 02                 BNE NOINCPR
01459  6871  E6 25                 INC RAYPIXX_HI
01460  6873             NOINCPR
01461  6873             
01462  6873             BLOCKEDRIGHT 
01463  6873  60                    RTS
01464  6874             
01465  6874             
01466  6874             ;------------------------------------------------------------
01467  6874             ; PLAYERMOVEUP
01468  6874             ;------------------------------------------------------------
01469  6874             PLAYERMOVEUP 
01470  6874             
01471  6874  A5 23                 LDA RAYDELTAY
01472  6876  F0 03                 BEQ DELTAYIS0U
01473  6878  4C C5 68              JMP DECYU
01474  687B             DELTAYIS0U 
01475  687B  A5 1E                 LDA RAYMAPCHRX_LO
01476  687D  85 28                 STA TMPMAPCHRX_LO
01477  687F  A5 1F                 LDA RAYMAPCHRX_HI
01478  6881  85 29                 STA TMPMAPCHRX_HI
01479  6883  A5 21                 LDA RAYMAPCHRY_LO
01480  6885  85 2A                 STA TMPMAPCHRY_LO
01481  6887  A5 22                 LDA RAYMAPCHRY_HI
01482  6889  85 2B                 STA TMPMAPCHRY_HI
01483  688B             
01484  688B                        ; 16-BIT SUBTRACTION
01485  688B  38                    SEC
01486  688C  A5 2A                 LDA TMPMAPCHRY_LO
01487  688E  E9 03                 SBC #3
01488  6890  85 2A                 STA TMPMAPCHRY_LO
01489  6892  B0 02                 BCS NODECYU
01490  6894  C6 2B                 DEC TMPMAPCHRY_HI
01491  6896             NODECYU
01492  6896             
01493  6896  20 74 69              JSR CALC_MAP_AND_BLK_Y_COORDINATES
01494  6899             
01495  6899  20 63 69              JSR CALC_MAP_AND_BLK_X_COORDINATES
01496  689C  20 33 69              JSR GET_CHAR_AT_MAP_POSITION
01497  689F  20 85 69              JSR CHECK_IF_BLOCKED
01498  68A2  D0 2E                 BNE BLOCKEDUP
01499  68A4             
01500  68A4  A5 20                 LDA RAYDELTAX
01501  68A6  F0 11                 BEQ NO_SECOND_CHARACTER_CHECKU
01502  68A8             
01503  68A8                        ; 16-BIT INCREMENT WORD
01504  68A8  E6 28                 INC TMPMAPCHRX_LO
01505  68AA  D0 02                 BNE NOINCXU
01506  68AC  E6 29                 INC TMPMAPCHRX_HI
01507  68AE             NOINCXU
01508  68AE  20 63 69              JSR CALC_MAP_AND_BLK_X_COORDINATES
01509  68B1  20 33 69              JSR GET_CHAR_AT_MAP_POSITION
01510  68B4  20 85 69              JSR CHECK_IF_BLOCKED
01511  68B7  D0 19                 BNE BLOCKEDUP
01512  68B9             
01513  68B9             NO_SECOND_CHARACTER_CHECKU 
01514  68B9  A9 08                 LDA #8
01515  68BB  85 23                 STA RAYDELTAY
01516  68BD             
01517  68BD                        ; 16-BIT DECREMENT WORD
01518  68BD  A5 21                 LDA RAYMAPCHRY_LO
01519  68BF  D0 02                 BNE NODECMU
01520  68C1  C6 22                 DEC RAYMAPCHRY_HI
01521  68C3  C6 21      NODECMU    DEC RAYMAPCHRY_LO
01522  68C5             
01523  68C5  C6 23      DECYU      DEC RAYDELTAY
01524  68C7             
01525  68C7                        ; 16-BIT DECREMENT WORD
01526  68C7  A5 26                 LDA RAYPIXY_LO
01527  68C9  D0 02                 BNE NODECPU
01528  68CB  C6 27                 DEC RAYPIXY_HI
01529  68CD  C6 26      NODECPU    DEC RAYPIXY_LO
01530  68CF             
01531  68CF  A9 00                 LDA #0
01532  68D1  60                    RTS
01533  68D2             
01534  68D2             BLOCKEDUP
01535  68D2  A9 01                 LDA #1
01536  68D4  60                    RTS
01537  68D5             
01538  68D5             
01539  68D5             ;------------------------------------------------------------
01540  68D5             ; PLAYERMOVEDOWN
01541  68D5             ;------------------------------------------------------------
01542  68D5             PLAYERMOVEDOWN 
01543  68D5             
01544  68D5  A5 23                 LDA RAYDELTAY
01545  68D7  F0 03                 BEQ DELTAYIS0D
01546  68D9  4C 15 69              JMP INCYD
01547  68DC             DELTAYIS0D 
01548  68DC  A5 1E                 LDA RAYMAPCHRX_LO
01549  68DE  85 28                 STA TMPMAPCHRX_LO
01550  68E0  A5 1F                 LDA RAYMAPCHRX_HI
01551  68E2  85 29                 STA TMPMAPCHRX_HI
01552  68E4  A5 21                 LDA RAYMAPCHRY_LO
01553  68E6  85 2A                 STA TMPMAPCHRY_LO
01554  68E8  A5 22                 LDA RAYMAPCHRY_HI
01555  68EA  85 2B                 STA TMPMAPCHRY_HI
01556  68EC             
01557  68EC                        ; 16-BIT INCREMENT WORD
01558  68EC  E6 2A                 INC TMPMAPCHRY_LO
01559  68EE  D0 02                 BNE NOINCYD
01560  68F0  E6 2B                 INC TMPMAPCHRY_HI
01561  68F2             NOINCYD
01562  68F2  20 74 69              JSR CALC_MAP_AND_BLK_Y_COORDINATES
01563  68F5             
01564  68F5  20 63 69              JSR CALC_MAP_AND_BLK_X_COORDINATES
01565  68F8  20 33 69              JSR GET_CHAR_AT_MAP_POSITION
01566  68FB  20 93 69              JSR CHECK_IF_BLOCKED_DOWN
01567  68FE  D0 30                 BNE BLOCKEDDOWN
01568  6900             
01569  6900  A5 20                 LDA RAYDELTAX
01570  6902  F0 11                 BEQ NO_SECOND_CHARACTER_CHECKD
01571  6904             
01572  6904                        ; 16-BIT INCREMENT WORD
01573  6904  E6 28                 INC TMPMAPCHRX_LO
01574  6906  D0 02                 BNE NOINCXD
01575  6908  E6 29                 INC TMPMAPCHRX_HI
01576  690A             NOINCXD
01577  690A  20 63 69              JSR CALC_MAP_AND_BLK_X_COORDINATES
01578  690D  20 33 69              JSR GET_CHAR_AT_MAP_POSITION
01579  6910  20 93 69              JSR CHECK_IF_BLOCKED_DOWN
01580  6913  D0 1B                 BNE BLOCKEDDOWN
01581  6915             
01582  6915             NO_SECOND_CHARACTER_CHECKD 
01583  6915             INCYD
01584  6915  A5 23                 LDA RAYDELTAY
01585  6917  C9 07                 CMP #7
01586  6919  D0 0A                 BNE SAMECHARYD
01587  691B             
01588  691B  A9 FF                 LDA #255
01589  691D  85 23                 STA RAYDELTAY
01590  691F             
01591  691F                        ; 16-BIT INREMENT WORD
01592  691F  E6 21                 INC RAYMAPCHRY_LO
01593  6921  D0 02                 BNE NOINCMD
01594  6923  E6 22                 INC RAYMAPCHRY_HI
01595  6925             NOINCMD
01596  6925             
01597  6925             SAMECHARYD 
01598  6925  E6 23                 INC RAYDELTAY
01599  6927             
01600  6927                        ; 16-BIT INCREMENT WORD
01601  6927  E6 26                 INC RAYPIXY_LO
01602  6929  D0 02                 BNE NOINCPD
01603  692B  E6 27                 INC RAYPIXY_HI
01604  692D             NOINCPD
01605  692D  A9 00                 LDA #0
01606  692F  60                    RTS
01607  6930             
01608  6930             BLOCKEDDOWN 
01609  6930  A9 01                 LDA #1
01610  6932  60                    RTS
01611  6933             
01612  6933             
01613  6933             ;------------------------------------------------------------
01614  6933             ; GET_CHAR_AT_MAP_POSITION (TMPMAPCHRX_, TMPMAPCHRY_)
01615  6933             ;------------------------------------------------------------
01616  6933             GET_CHAR_AT_MAP_POSITION 
01617  6933  A4 2E                 LDY TMPMAPY
01618  6935  B9 8A 76              LDA MAPTABLO,Y          ; Y POINTS TO THE ROW ON THE MAP WHERE THE CHARS SHOULD BE TAKEN FROM
01619  6938  18                    CLC
01620  6939  65 2C                 ADC TMPMAPX
01621  693B  8D 47 69              STA MAPADDR+1
01622  693E  B9 8A 77              LDA MAPTABHI,Y
01623  6941  69 00                 ADC #0
01624  6943  8D 48 69              STA MAPADDR+2
01625  6946             MAPADDR
01626  6946  AD 00 51              LDA $5100               ; A = BLOCKNO
01627  6949  A8                    TAY
01628  694A  A5 2F                 LDA TMPBLKY
01629  694C  0A                    ASL
01630  694D  0A                    ASL
01631  694E  18                    CLC
01632  694F  65 2D                 ADC TMPBLKX
01633  6951  79 8A 78              ADC BLKTABLO,Y
01634  6954  8D 60 69              STA BLKADDR+1
01635  6957  B9 8A 79              LDA BLKTABHI,Y
01636  695A  69 00                 ADC #0
01637  695C  8D 61 69              STA BLKADDR+2           ; BLKADDR = <BLKTAB + BLOCKNO> + BLOCKX
01638  695F             BLKADDR
01639  695F  AD 00 40              LDA $4000               ; A = CHARCODE
01640  6962  60                    RTS
01641  6963             
01642  6963             ;------------------------------------------------------------
01643  6963             ; CALC_MAP_AND_BLK_X_COORDINATES
01644  6963             ;------------------------------------------------------------
01645  6963             CALC_MAP_AND_BLK_X_COORDINATES 
01646  6963  A5 28                 LDA TMPMAPCHRX_LO
01647  6965  85 2C                 STA TMPMAPX
01648  6967  29 03                 AND #3
01649  6969  85 2D                 STA TMPBLKX
01650  696B  A5 29                 LDA TMPMAPCHRX_HI
01651  696D  4A                    LSR
01652  696E  66 2C                 ROR TMPMAPX
01653  6970  4A                    LSR
01654  6971  66 2C                 ROR TMPMAPX
01655  6973  60                    RTS
01656  6974             
01657  6974             
01658  6974             ;------------------------------------------------------------
01659  6974             ; CALC_MAP_AND_BLK_Y_COORDINATES
01660  6974             ;------------------------------------------------------------
01661  6974             CALC_MAP_AND_BLK_Y_COORDINATES 
01662  6974  A5 2A                 LDA TMPMAPCHRY_LO
01663  6976  85 2E                 STA TMPMAPY
01664  6978  29 03                 AND #3
01665  697A  85 2F                 STA TMPBLKY
01666  697C  A5 2B                 LDA TMPMAPCHRY_HI
01667  697E  4A                    LSR
01668  697F  66 2E                 ROR TMPMAPY
01669  6981  4A                    LSR
01670  6982  66 2E                 ROR TMPMAPY
01671  6984  60                    RTS
01672  6985             
01673  6985             
01674  6985             ;------------------------------------------------------------
01675  6985             ; CHECK_IF_BLOCKED
01676  6985             ;
01677  6985             ; RETURNS 1 FOR BLOCKED, 0 FOR NOT BLOCKED
01678  6985             ;------------------------------------------------------------
01679  6985             CHECK_IF_BLOCKED 
01680  6985                        ;CMP #128
01681  6985                        ;BPL BLOCKED
01682  6985  C9 0F                 CMP #$0F
01683  6987  F0 07                 BEQ BLOCKED
01684  6989             
01685  6989  C9 0E                 CMP #$0E
01686  698B  F0 03                 BEQ BLOCKED
01687  698D             
01688  698D  A9 00                 LDA #0
01689  698F  60                    RTS
01690  6990             
01691  6990             BLOCKED
01692  6990  A9 01                 LDA #1
01693  6992  60                    RTS
01694  6993             
01695  6993             ;------------------------------------------------------------
01696  6993             ; CHECK_IF_BLOCKED_DOWN
01697  6993             ;
01698  6993             ; RETURNS 1 FOR BLOCKED, 0 FOR NOT BLOCKED
01699  6993             ;------------------------------------------------------------
01700  6993             CHECK_IF_BLOCKED_DOWN 
01701  6993                        ;CMP #128
01702  6993                        ;BPL BLOCKED
01703  6993  C9 0F                 CMP #$0F
01704  6995  F0 17                 BEQ BLOCKED_DOWN
01705  6997             
01706  6997  C9 0E                 CMP #$0E
01707  6999  F0 13                 BEQ BLOCKED_DOWN
01708  699B             
01709  699B  C9 0A                 CMP #$0A
01710  699D  F0 0F                 BEQ BLOCKED_DOWN
01711  699F  C9 0B                 CMP #$0B
01712  69A1  F0 0B                 BEQ BLOCKED_DOWN
01713  69A3  C9 0C                 CMP #$0C
01714  69A5  F0 07                 BEQ BLOCKED_DOWN
01715  69A7  C9 0D                 CMP #$0D
01716  69A9  F0 03                 BEQ BLOCKED_DOWN
01717  69AB             
01718  69AB  A9 00                 LDA #0
01719  69AD  60                    RTS
01720  69AE             
01721  69AE             BLOCKED_DOWN 
01722  69AE  A9 01                 LDA #1
01723  69B0  60                    RTS
01724  69B1             
01725  69B1             
01726  69B1             
01727  69B1             ;JOYDIR=0
01728  69B1             ;IF FACING RIGHT AND X<A THEN JOYDIR=JOYDIR OR 0100
01729  69B1             ;IF FACING RIGHT AND X>A THEN JOYDIR=JOYDIR OR 1000
01730  69B1             ;IF FACING LEFT  AND X<B THEN JOYDIR=JOYDIR OR 0100
01731  69B1             ;IF FACING LEFT  AND X>B THEN JOYDIR=JOYDIR OR 1000
01732  69B1             ;IF Y<C                  THEN JOYDIR=JOYDIR OR 0001
01733  69B1             ;IF Y>C                  THEN JOYDIR=JOYDIR OR 0010
01734  69B1             
01735  69B1             CHKNEED2SCROLL 
01736  69B1  A9 01                 LDA #1
01737  69B3  8D 4A 74              STA SCROLLSPEED
01738  69B6             
01739  69B6  A9 00                 LDA #0                  ; NO DIRECTION
01740  69B8  8D 4B 74              STA JOYDIR
01741  69BB  A5 D4                 LDA FACING
01742  69BD  D0 34                 BNE FACELEFT ; MIPL ; BYTE $EA,$EA ; BNE FACELEFT  CHANGED FOR DEMO
01743  69BF                        ;     JMP FACEY
01744  69BF             FACERIGHT
01745  69BF  AD 10 D0              LDA VIC_SPRITE_X_POS_MSB
01746  69C2  29 01                 AND #%00000001
01747  69C4  D0 0B                 BNE BIGX1
01748  69C6  AD 00 D0              LDA VIC_SPRITE_0_X_POS
01749  69C9  C9 8C                 CMP #140
01750  69CB  90 14                 BCC NOBIGX1
01751  69CD  C9 94                 CMP #148
01752  69CF  90 05                 BCC MEDX1
01753  69D1  A9 01      BIGX1      LDA #1 ; LDA #2  CHANGED FOR DEMO
01754  69D3  8D 4A 74              STA SCROLLSPEED
01755  69D6  AD 4B 74   MEDX1      LDA JOYDIR              ; X>=136
01756  69D9  09 08                 ORA #%00001000          ; SIMULATE RIGHT PRESSED
01757  69DB  8D 4B 74              STA JOYDIR
01758  69DE  4C 27 6A              JMP FACEY
01759  69E1  AD 00 D0   NOBIGX1    LDA VIC_SPRITE_0_X_POS
01760  69E4  C9 84                 CMP #132
01761  69E6  B0 3F                 BCS FACEY
01762  69E8  AD 4B 74              LDA JOYDIR
01763  69EB  09 04                 ORA #%00000100          ; SIMULATE LEFT PRESSED
01764  69ED  8D 4B 74              STA JOYDIR
01765  69F0  4C 27 6A              JMP FACEY
01766  69F3             FACELEFT
01767  69F3  AD 10 D0              LDA VIC_SPRITE_X_POS_MSB
01768  69F6  29 01                 AND #%00000001
01769  69F8  D0 07                 BNE BIGX2
01770  69FA  AD 00 D0              LDA VIC_SPRITE_0_X_POS
01771  69FD  C9 EC                 CMP #236
01772  69FF  90 0B                 BCC NOBIGX2
01773  6A01  AD 4B 74   BIGX2      LDA JOYDIR              ; X>=236
01774  6A04  09 08                 ORA #%00001000          ; SIMULATE RIGHT PRESSED
01775  6A06  8D 4B 74              STA JOYDIR
01776  6A09  4C 27 6A              JMP FACEY
01777  6A0C  AD 00 D0   NOBIGX2    LDA VIC_SPRITE_0_X_POS
01778  6A0F  C9 E4                 CMP #228
01779  6A11  B0 14                 BCS FACEY
01780  6A13  C9 DC                 CMP #220
01781  6A15  B0 05                 BCS MEDX2
01782  6A17  A9 01                 LDA #1 ; LDA #2  CHANGED FOR DEMO
01783  6A19  8D 4A 74              STA SCROLLSPEED
01784  6A1C  AD 4B 74   MEDX2      LDA JOYDIR
01785  6A1F  09 04                 ORA #%00000100          ; SIMULATE LEFT PRESSED
01786  6A21  8D 4B 74              STA JOYDIR
01787  6A24  4C 27 6A              JMP FACEY
01788  6A27             
01789  6A27             FACEY
01790  6A27             ;        LDA VIC_SPRITE_0_Y_POS  ; VIC_SPRITE_0_Y_POS = RAYPIXY_LO - WINPIXY_LO + 89 + 6
01791  6A27             ;        CMP #176
01792  6A27             ;        BCC NOBIGY
01793  6A27             ;BIGY    LDA JOYDIR              ; Y>=168
01794  6A27             ;        ORA #%00000010          ; SIMULATE DOWN PRESSED
01795  6A27             ;        STA JOYDIR
01796  6A27             ;        JMP JOYSET
01797  6A27             ;NOBIGY  CMP #168
01798  6A27             ;        BCS JOYSET
01799  6A27             ;        LDA JOYDIR
01800  6A27             ;        ORA #%00000001          ; SIMULATE UP PRESSED
01801  6A27             ;        STA JOYDIR
01802  6A27             
01803  6A27  A5 27                 LDA RAYPIXY_HI
01804  6A29  C5 1D                 CMP WINPIXY_HI
01805  6A2B  90 21                 BCC SIMUP
01806  6A2D  D0 06                 BNE NOLIM
01807  6A2F  A5 26                 LDA RAYPIXY_LO
01808  6A31  C5 1C                 CMP WINPIXY_LO
01809  6A33  90 19                 BCC SIMUP
01810  6A35             
01811  6A35             NOLIM
01812  6A35  38                    SEC
01813  6A36  A5 26                 LDA RAYPIXY_LO
01814  6A38  E5 1C                 SBC WINPIXY_LO
01815  6A3A  85 D0                 STA TEMPLO
01816  6A3C  A5 27                 LDA RAYPIXY_HI
01817  6A3E  E5 1D                 SBC WINPIXY_HI
01818  6A40  85 D1                 STA TEMPHI
01819  6A42  D0 15                 BNE SIMDOWN
01820  6A44  A5 D0                 LDA TEMPLO
01821  6A46  C9 51                 CMP #81
01822  6A48  B0 0F                 BCS SIMDOWN
01823  6A4A  C9 49                 CMP #73
01824  6A4C  B0 13                 BCS JOYSET
01825  6A4E             
01826  6A4E  AD 4B 74   SIMUP      LDA JOYDIR
01827  6A51  09 01                 ORA #%00000001          ; SIMULATE UP PRESSED
01828  6A53  8D 4B 74              STA JOYDIR
01829  6A56  4C 61 6A              JMP JOYSET
01830  6A59                        
01831  6A59  AD 4B 74   SIMDOWN    LDA JOYDIR
01832  6A5C  09 02                 ORA #%00000010          ; SIMULATE DOWN PRESSED
01833  6A5E  8D 4B 74              STA JOYDIR
01834  6A61             
01835  6A61             JOYSET
01836  6A61  AD 4B 74              LDA JOYDIR
01837  6A64  20 DD 73              JSR JOYWEDGE
01838  6A67             
01839  6A67             
01840  6A67             DOSCR1
01841  6A67             
01842  6A67             NOSCR1
01843  6A67             
01844  6A67  A0 0C                 LDY #MED_GREY
01845  6A69  AD 1E D0              LDA VIC_SPRITE_SPRITE_COLLISION
01846  6A6C  29 81                 AND #%10000001
01847  6A6E  C9 81                 CMP #%10000001
01848  6A70  D0 02                 BNE NOCOLL
01849  6A72  A0 02                 LDY #RED
01850  6A74  8C 21 D0   NOCOLL     STY VIC_BACKGROUND_COLOR
01851  6A77             
01852  6A77  20 48 81              JSR SIDPLAY
01853  6A7A             
01854  6A7A  A9 00                 LDA #BLACK
01855  6A7C  8D 20 D0              STA VIC_BORDER_COLOR
01856  6A7F             
01857  6A7F  4C BC FE              JMP $FEBC
01858  6A82             
01859  6A82             
01860  6A82             
01861  6A82                        ;--------------------------
01862  6A82                        ; COPY SCREEN
01863  6A82             COPYSCREEN 
01864  6A82  AD 4C 74              LDA SCREEN
01865  6A85  D0 04                 BNE CS0
01866  6A87  20 8F 6A              JSR COPY1T2
01867  6A8A  60                    RTS
01868  6A8B             CS0
01869  6A8B  20 36 6B              JSR COPY2T1
01870  6A8E  60                    RTS
01871  6A8F             
01872  6A8F             
01873  6A8F                        ;--------------------------
01874  6A8F                        ; COPY SCREEN1 TO SCREEN2
01875  6A8F             COPY1T2
01876  6A8F  AC 66 74              LDY SCROLLIX
01877  6A92  B9 B7 74              LDA SCROLLTABLE,Y
01878  6A95  AA                    TAX
01879  6A96  8E EA 6A              STX COPY1T2X+1
01880  6A99  A0 29                 LDY #41
01881  6A9B             LOOP11
01882  6A9B  BD EF C0              LDA SCREEN1+280,X
01883  6A9E  99 EF C4              STA SCREEN2+280,Y
01884  6AA1  BD 17 C1              LDA SCREEN1+320,X
01885  6AA4  99 17 C5              STA SCREEN2+320,Y
01886  6AA7  BD 3F C1              LDA SCREEN1+360,X
01887  6AAA  99 3F C5              STA SCREEN2+360,Y
01888  6AAD  BD 67 C1              LDA SCREEN1+400,X
01889  6AB0  99 67 C5              STA SCREEN2+400,Y
01890  6AB3  BD 8F C1              LDA SCREEN1+440,X
01891  6AB6  99 8F C5              STA SCREEN2+440,Y
01892  6AB9  BD B7 C1              LDA SCREEN1+480,X
01893  6ABC  99 B7 C5              STA SCREEN2+480,Y
01894  6ABF  BD DF C1              LDA SCREEN1+520,X
01895  6AC2  99 DF C5              STA SCREEN2+520,Y
01896  6AC5  E8                    INX
01897  6AC6  C8                    INY
01898  6AC7  C0 51                 CPY #81
01899  6AC9  D0 D0                 BNE LOOP11
01900  6ACB             
01901  6ACB  A9 00                 LDA #BLACK ; LDA #CYAN  CHANGED FOR DEMO
01902  6ACD  8D 20 D0              STA VIC_BORDER_COLOR
01903  6AD0             
01904  6AD0  AD 11 D0              LDA VIC_YSCROLL_CONTROL
01905  6AD3  29 78                 AND #%01111000
01906  6AD5  09 04                 ORA #%00000100 ; SET FIXED Y-SCROLL
01907  6AD7  8D 11 D0              STA VIC_YSCROLL_CONTROL
01908  6ADA  AD 16 D0              LDA VIC_XSCROLL_CONTROL
01909  6ADD  29 F8                 AND #%11111000
01910  6ADF  09 04                 ORA #%00000100 ; SET FIXED X-SCROLL
01911  6AE1  8D 16 D0              STA VIC_XSCROLL_CONTROL
01912  6AE4             
01913  6AE4  A9 00                 LDA #BLACK ; LDA #RED  CHANGED FOR DEMO
01914  6AE6  8D 20 D0              STA VIC_BORDER_COLOR
01915  6AE9             
01916  6AE9             COPY1T2X
01917  6AE9  A2 00                 LDX #0
01918  6AEB  A0 29                 LDY #41
01919  6AED  BD 07 C2   LOOP12     LDA SCREEN1+560,X
01920  6AF0  99 07 C6              STA SCREEN2+560,Y
01921  6AF3  BD 2F C2              LDA SCREEN1+600,X
01922  6AF6  99 2F C6              STA SCREEN2+600,Y
01923  6AF9  BD 57 C2              LDA SCREEN1+640,X
01924  6AFC  99 57 C6              STA SCREEN2+640,Y
01925  6AFF  BD 7F C2              LDA SCREEN1+680,X
01926  6B02  99 7F C6              STA SCREEN2+680,Y
01927  6B05  BD A7 C2              LDA SCREEN1+720,X
01928  6B08  99 A7 C6              STA SCREEN2+720,Y
01929  6B0B  BD CF C2              LDA SCREEN1+760,X
01930  6B0E  99 CF C6              STA SCREEN2+760,Y
01931  6B11  BD F7 C2              LDA SCREEN1+800,X
01932  6B14  99 F7 C6              STA SCREEN2+800,Y
01933  6B17  BD 1F C3              LDA SCREEN1+840,X
01934  6B1A  99 1F C7              STA SCREEN2+840,Y
01935  6B1D  BD 47 C3              LDA SCREEN1+880,X
01936  6B20  99 47 C7              STA SCREEN2+880,Y
01937  6B23  BD 6F C3              LDA SCREEN1+920,X
01938  6B26  99 6F C7              STA SCREEN2+920,Y
01939  6B29  BD 97 C3              LDA SCREEN1+960,X
01940  6B2C  99 97 C7              STA SCREEN2+960,Y
01941  6B2F  E8                    INX
01942  6B30  C8                    INY
01943  6B31  C0 51                 CPY #81
01944  6B33  D0 B8                 BNE LOOP12
01945  6B35             DONE1
01946  6B35  60                    RTS
01947  6B36             
01948  6B36             
01949  6B36                        ;--------------------------
01950  6B36                        ; COPY SCREEN2 TO SCREEN1
01951  6B36             COPY2T1
01952  6B36  AC 66 74              LDY SCROLLIX
01953  6B39  B9 B7 74              LDA SCROLLTABLE,Y
01954  6B3C  AA                    TAX
01955  6B3D  8E 91 6B              STX COPY2T1X+1
01956  6B40  A0 29                 LDY #41
01957  6B42             LOOP21
01958  6B42  BD EF C4              LDA SCREEN2+280,X
01959  6B45  99 EF C0              STA SCREEN1+280,Y
01960  6B48  BD 17 C5              LDA SCREEN2+320,X
01961  6B4B  99 17 C1              STA SCREEN1+320,Y
01962  6B4E  BD 3F C5              LDA SCREEN2+360,X
01963  6B51  99 3F C1              STA SCREEN1+360,Y
01964  6B54  BD 67 C5              LDA SCREEN2+400,X
01965  6B57  99 67 C1              STA SCREEN1+400,Y
01966  6B5A  BD 8F C5              LDA SCREEN2+440,X
01967  6B5D  99 8F C1              STA SCREEN1+440,Y
01968  6B60  BD B7 C5              LDA SCREEN2+480,X
01969  6B63  99 B7 C1              STA SCREEN1+480,Y
01970  6B66  BD DF C5              LDA SCREEN2+520,X
01971  6B69  99 DF C1              STA SCREEN1+520,Y
01972  6B6C  E8                    INX
01973  6B6D  C8                    INY
01974  6B6E  C0 51                 CPY #81
01975  6B70  D0 D0                 BNE LOOP21
01976  6B72             
01977  6B72  A9 00                 LDA #BLACK ; LDA #CYAN  CHANGED FOR DEMO
01978  6B74  8D 20 D0              STA VIC_BORDER_COLOR
01979  6B77             
01980  6B77  AD 11 D0              LDA VIC_YSCROLL_CONTROL
01981  6B7A  29 78                 AND #%01111000
01982  6B7C  09 04                 ORA #%00000100 ; SET FIXED Y-SCROLL
01983  6B7E  8D 11 D0              STA VIC_YSCROLL_CONTROL
01984  6B81  AD 16 D0              LDA VIC_XSCROLL_CONTROL
01985  6B84  29 F8                 AND #%11111000
01986  6B86  09 04                 ORA #%00000100 ; SET FIXED X-SCROLL
01987  6B88  8D 16 D0              STA VIC_XSCROLL_CONTROL
01988  6B8B             
01989  6B8B  A9 00                 LDA #BLACK ; LDA #PURPLE  CHANGED FOR DEMO
01990  6B8D  8D 20 D0              STA VIC_BORDER_COLOR
01991  6B90             
01992  6B90             COPY2T1X
01993  6B90  A2 00                 LDX #0
01994  6B92  A0 29                 LDY #41
01995  6B94  BD 07 C6   LOOP22     LDA SCREEN2+560,X
01996  6B97  99 07 C2              STA SCREEN1+560,Y
01997  6B9A  BD 2F C6              LDA SCREEN2+600,X
01998  6B9D  99 2F C2              STA SCREEN1+600,Y
01999  6BA0  BD 57 C6              LDA SCREEN2+640,X
02000  6BA3  99 57 C2              STA SCREEN1+640,Y
02001  6BA6  BD 7F C6              LDA SCREEN2+680,X
02002  6BA9  99 7F C2              STA SCREEN1+680,Y
02003  6BAC  BD A7 C6              LDA SCREEN2+720,X
02004  6BAF  99 A7 C2              STA SCREEN1+720,Y
02005  6BB2  BD CF C6              LDA SCREEN2+760,X
02006  6BB5  99 CF C2              STA SCREEN1+760,Y
02007  6BB8  BD F7 C6              LDA SCREEN2+800,X
02008  6BBB  99 F7 C2              STA SCREEN1+800,Y
02009  6BBE  BD 1F C7              LDA SCREEN2+840,X
02010  6BC1  99 1F C3              STA SCREEN1+840,Y
02011  6BC4  BD 47 C7              LDA SCREEN2+880,X
02012  6BC7  99 47 C3              STA SCREEN1+880,Y
02013  6BCA  BD 6F C7              LDA SCREEN2+920,X
02014  6BCD  99 6F C3              STA SCREEN1+920,Y
02015  6BD0  BD 97 C7              LDA SCREEN2+960,X
02016  6BD3  99 97 C3              STA SCREEN1+960,Y
02017  6BD6  E8                    INX
02018  6BD7  C8                    INY
02019  6BD8  C0 51                 CPY #81
02020  6BDA  D0 B8                 BNE LOOP22
02021  6BDC             DONE2
02022  6BDC  60                    RTS
02023  6BDD             
02024  6BDD             
02025  6BDD             
02026  6BDD             
02027  6BDD             
02028  6BDD                        ;--------------------------
02029  6BDD                        ; SCROLL COLOR
02030  6BDD             SCROLLCOLOR 
02031  6BDD  AD 66 74              LDA SCROLLIX
02032  6BE0  0A                    ASL
02033  6BE1  AA                    TAX
02034  6BE2  BD 78 76              LDA JMPTABCOL,X
02035  6BE5  8D EF 6B              STA SCJSR+1
02036  6BE8  BD 79 76              LDA JMPTABCOL+1,X
02037  6BEB  8D F0 6B              STA SCJSR+2
02038  6BEE             SCJSR
02039  6BEE  20 FF FF              JSR $FFFF
02040  6BF1  60                    RTS
02041  6BF2             
02042  6BF2             COLORBUFFER 
02043  6BF2  00 00 00              DCB 40,$00
02044  6C1A             
02045  6C1A                        ;--------------------------
02046  6C1A                        ; MOVE COLOR UP (SCROLLIX = 1) + 0
02047  6C1A             MCU
02048  6C1A  AC 66 74              LDY SCROLLIX
02049  6C1D  B9 B7 74              LDA SCROLLTABLE,Y ; 81/82
02050  6C20  AA                    TAX
02051  6C21  8E 75 6C              STX MCULX+1
02052  6C24  A0 29                 LDY #41
02053  6C26             MCUL0
02054  6C26  BD EF D8              LDA 55255+280,X
02055  6C29  99 EF D8              STA 55255+280,Y
02056  6C2C  BD 17 D9              LDA 55255+320,X
02057  6C2F  99 17 D9              STA 55255+320,Y
02058  6C32  BD 3F D9              LDA 55255+360,X
02059  6C35  99 3F D9              STA 55255+360,Y
02060  6C38  BD 67 D9              LDA 55255+400,X
02061  6C3B  99 67 D9              STA 55255+400,Y
02062  6C3E  BD 8F D9              LDA 55255+440,X
02063  6C41  99 8F D9              STA 55255+440,Y
02064  6C44  BD B7 D9              LDA 55255+480,X
02065  6C47  99 B7 D9              STA 55255+480,Y
02066  6C4A  BD DF D9              LDA 55255+520,X
02067  6C4D  99 DF D9              STA 55255+520,Y
02068  6C50  E8                    INX
02069  6C51  C8                    INY
02070  6C52  C0 51                 CPY #81
02071  6C54  D0 D0                 BNE MCUL0
02072  6C56             
02073  6C56  A9 00                 LDA #BLACK ; LDA #CYAN  CHANGED FOR DEMO
02074  6C58  8D 20 D0              STA VIC_BORDER_COLOR
02075  6C5B             
02076  6C5B  AD 11 D0              LDA VIC_YSCROLL_CONTROL
02077  6C5E  29 78                 AND #%01111000
02078  6C60  09 04                 ORA #%00000100 ; SET FIXED Y-SCROLL
02079  6C62  8D 11 D0              STA VIC_YSCROLL_CONTROL
02080  6C65  AD 16 D0              LDA VIC_XSCROLL_CONTROL
02081  6C68  29 F8                 AND #%11111000
02082  6C6A  09 04                 ORA #%00000100 ; SET FIXED X-SCROLL
02083  6C6C  8D 16 D0              STA VIC_XSCROLL_CONTROL
02084  6C6F             
02085  6C6F  A9 00                 LDA #BLACK ; LDA #GREEN  CHANGED FOR DEMO
02086  6C71  8D 20 D0              STA VIC_BORDER_COLOR
02087  6C74             
02088  6C74  A2 00      MCULX      LDX #0
02089  6C76  A0 29                 LDY #41
02090  6C78  BD 07 DA   MCUL1      LDA 55255+560,X
02091  6C7B  99 07 DA              STA 55255+560,Y
02092  6C7E  BD 2F DA              LDA 55255+600,X
02093  6C81  99 2F DA              STA 55255+600,Y
02094  6C84  BD 57 DA              LDA 55255+640,X
02095  6C87  99 57 DA              STA 55255+640,Y
02096  6C8A  BD 7F DA              LDA 55255+680,X
02097  6C8D  99 7F DA              STA 55255+680,Y
02098  6C90  BD A7 DA              LDA 55255+720,X
02099  6C93  99 A7 DA              STA 55255+720,Y
02100  6C96  BD CF DA              LDA 55255+760,X
02101  6C99  99 CF DA              STA 55255+760,Y
02102  6C9C  BD F7 DA              LDA 55255+800,X
02103  6C9F  99 F7 DA              STA 55255+800,Y
02104  6CA2  BD 1F DB              LDA 55255+840,X
02105  6CA5  99 1F DB              STA 55255+840,Y
02106  6CA8  BD 47 DB              LDA 55255+880,X
02107  6CAB  99 47 DB              STA 55255+880,Y
02108  6CAE  BD 6F DB              LDA 55255+920,X
02109  6CB1  99 6F DB              STA 55255+920,Y
02110  6CB4  E8                    INX
02111  6CB5  C8                    INY
02112  6CB6  C0 51                 CPY #81
02113  6CB8  D0 BE                 BNE MCUL1
02114  6CBA  60                    RTS
02115  6CBB             
02116  6CBB                        ;--------------------------
02117  6CBB                        ; MOVE COLOR LEFT (SCROLLIX = 3) + 6
02118  6CBB             MCL
02119  6CBB  AC 66 74              LDY SCROLLIX
02120  6CBE  B9 B7 74              LDA SCROLLTABLE,Y ; 2/42
02121  6CC1  AA                    TAX
02122  6CC2  8E 16 6D              STX MCLLX+1
02123  6CC5  A0 29                 LDY #41
02124  6CC7             MCLL0
02125  6CC7  BD DF D9              LDA 55255+520,X
02126  6CCA  99 C9 6B              STA COLORBUFFER-41,Y
02127  6CCD  BD B7 D9              LDA 55255+480,X
02128  6CD0  99 B7 D9              STA 55255+480,Y
02129  6CD3  BD 8F D9              LDA 55255+440,X
02130  6CD6  99 8F D9              STA 55255+440,Y
02131  6CD9  BD 67 D9              LDA 55255+400,X
02132  6CDC  99 67 D9              STA 55255+400,Y
02133  6CDF  BD 3F D9              LDA 55255+360,X
02134  6CE2  99 3F D9              STA 55255+360,Y
02135  6CE5  BD 17 D9              LDA 55255+320,X
02136  6CE8  99 17 D9              STA 55255+320,Y
02137  6CEB  BD EF D8              LDA 55255+280,X
02138  6CEE  99 EF D8              STA 55255+280,Y
02139  6CF1  E8                    INX
02140  6CF2  C8                    INY
02141  6CF3  C0 50                 CPY #80
02142  6CF5  D0 D0                 BNE MCLL0
02143  6CF7             
02144  6CF7  A9 00                 LDA #BLACK ; LDA #CYAN  CHANGED FOR DEMO
02145  6CF9  8D 20 D0              STA VIC_BORDER_COLOR
02146  6CFC             
02147  6CFC  AD 11 D0              LDA VIC_YSCROLL_CONTROL
02148  6CFF  29 78                 AND #%01111000
02149  6D01  09 04                 ORA #%00000100 ; SET FIXED Y-SCROLL
02150  6D03  8D 11 D0              STA VIC_YSCROLL_CONTROL
02151  6D06  AD 16 D0              LDA VIC_XSCROLL_CONTROL
02152  6D09  29 F8                 AND #%11111000
02153  6D0B  09 04                 ORA #%00000100 ; SET FIXED X-SCROLL
02154  6D0D  8D 16 D0              STA VIC_XSCROLL_CONTROL
02155  6D10             
02156  6D10  A9 00                 LDA #BLACK ; LDA #BLUE  CHANGED FOR DEMO
02157  6D12  8D 20 D0              STA VIC_BORDER_COLOR
02158  6D15             
02159  6D15  A2 00      MCLLX      LDX #0
02160  6D17  A0 29                 LDY #41
02161  6D19  BD 97 DB   MCLL1      LDA 55255+960,X
02162  6D1C  99 97 DB              STA 55255+960,Y
02163  6D1F  BD 6F DB              LDA 55255+920,X
02164  6D22  99 6F DB              STA 55255+920,Y
02165  6D25  BD 47 DB              LDA 55255+880,X
02166  6D28  99 47 DB              STA 55255+880,Y
02167  6D2B  BD 1F DB              LDA 55255+840,X
02168  6D2E  99 1F DB              STA 55255+840,Y
02169  6D31  BD F7 DA              LDA 55255+800,X
02170  6D34  99 F7 DA              STA 55255+800,Y
02171  6D37  BD CF DA              LDA 55255+760,X
02172  6D3A  99 CF DA              STA 55255+760,Y
02173  6D3D  BD A7 DA              LDA 55255+720,X
02174  6D40  99 A7 DA              STA 55255+720,Y
02175  6D43  BD 7F DA              LDA 55255+680,X
02176  6D46  99 7F DA              STA 55255+680,Y
02177  6D49  BD 57 DA              LDA 55255+640,X
02178  6D4C  99 57 DA              STA 55255+640,Y
02179  6D4F  BD 2F DA              LDA 55255+600,X
02180  6D52  99 2F DA              STA 55255+600,Y
02181  6D55  BD 07 DA              LDA 55255+560,X
02182  6D58  99 07 DA              STA 55255+560,Y
02183  6D5B  B9 C9 6B              LDA COLORBUFFER-41,Y
02184  6D5E  99 DF D9              STA 55255+520,Y
02185  6D61  E8                    INX
02186  6D62  C8                    INY
02187  6D63  C0 50                 CPY #80
02188  6D65  D0 B2                 BNE MCLL1
02189  6D67  60                    RTS
02190  6D68             
02191  6D68                        ;--------------------------
02192  6D68                        ; NO COLOR MOVE (SCROLLIX = 4)
02193  6D68             MCN
02194  6D68  60                    RTS
02195  6D69             
02196  6D69                        ;--------------------------
02197  6D69                        ; MOVE COLOR RIGHT (SCROLLIX = 5) + 2
02198  6D69             MCR
02199  6D69  AC 66 74              LDY SCROLLIX
02200  6D6C  B9 B7 74              LDA SCROLLTABLE,Y ; 40/80
02201  6D6F  18                    CLC
02202  6D70  69 27                 ADC #39
02203  6D72  AA                    TAX
02204  6D73  8E C7 6D              STX MCRLX+1
02205  6D76  A0 50                 LDY #80
02206  6D78             MCRL0
02207  6D78  BD EF D8              LDA 55255+280,X
02208  6D7B  99 EF D8              STA 55255+280,Y
02209  6D7E  BD 17 D9              LDA 55255+320,X
02210  6D81  99 17 D9              STA 55255+320,Y
02211  6D84  BD 3F D9              LDA 55255+360,X
02212  6D87  99 3F D9              STA 55255+360,Y
02213  6D8A  BD 67 D9              LDA 55255+400,X
02214  6D8D  99 67 D9              STA 55255+400,Y
02215  6D90  BD 8F D9              LDA 55255+440,X
02216  6D93  99 8F D9              STA 55255+440,Y
02217  6D96  BD B7 D9              LDA 55255+480,X
02218  6D99  99 B7 D9              STA 55255+480,Y
02219  6D9C  BD DF D9              LDA 55255+520,X
02220  6D9F  99 DF D9              STA 55255+520,Y
02221  6DA2  CA                    DEX
02222  6DA3  88                    DEY
02223  6DA4  C0 29                 CPY #41
02224  6DA6  D0 D0                 BNE MCRL0
02225  6DA8             
02226  6DA8  A9 00                 LDA #BLACK ; LDA #CYAN  CHANGED FOR DEMO
02227  6DAA  8D 20 D0              STA VIC_BORDER_COLOR
02228  6DAD             
02229  6DAD  AD 11 D0              LDA VIC_YSCROLL_CONTROL
02230  6DB0  29 78                 AND #%01111000
02231  6DB2  09 04                 ORA #%00000100 ; SET FIXED Y-SCROLL
02232  6DB4  8D 11 D0              STA VIC_YSCROLL_CONTROL
02233  6DB7  AD 16 D0              LDA VIC_XSCROLL_CONTROL
02234  6DBA  29 F8                 AND #%11111000
02235  6DBC  09 04                 ORA #%00000100 ; SET FIXED X-SCROLL
02236  6DBE  8D 16 D0              STA VIC_XSCROLL_CONTROL
02237  6DC1             
02238  6DC1  A9 00                 LDA #BLACK ; LDA #YELLOW  CHANGED FOR DEMO
02239  6DC3  8D 20 D0              STA VIC_BORDER_COLOR
02240  6DC6             
02241  6DC6  A2 00      MCRLX      LDX #0
02242  6DC8  A0 50                 LDY #80
02243  6DCA  BD 07 DA   MCRL1      LDA 55255+560,X
02244  6DCD  99 07 DA              STA 55255+560,Y
02245  6DD0  BD 2F DA              LDA 55255+600,X
02246  6DD3  99 2F DA              STA 55255+600,Y
02247  6DD6  BD 57 DA              LDA 55255+640,X
02248  6DD9  99 57 DA              STA 55255+640,Y
02249  6DDC  BD 7F DA              LDA 55255+680,X
02250  6DDF  99 7F DA              STA 55255+680,Y
02251  6DE2  BD A7 DA              LDA 55255+720,X
02252  6DE5  99 A7 DA              STA 55255+720,Y
02253  6DE8  BD CF DA              LDA 55255+760,X
02254  6DEB  99 CF DA              STA 55255+760,Y
02255  6DEE  BD F7 DA              LDA 55255+800,X
02256  6DF1  99 F7 DA              STA 55255+800,Y
02257  6DF4  BD 1F DB              LDA 55255+840,X
02258  6DF7  99 1F DB              STA 55255+840,Y
02259  6DFA  BD 47 DB              LDA 55255+880,X
02260  6DFD  99 47 DB              STA 55255+880,Y
02261  6E00  BD 6F DB              LDA 55255+920,X
02262  6E03  99 6F DB              STA 55255+920,Y
02263  6E06  BD 97 DB              LDA 55255+960,X
02264  6E09  99 97 DB              STA 55255+960,Y
02265  6E0C  CA                    DEX
02266  6E0D  88                    DEY
02267  6E0E  C0 29                 CPY #41
02268  6E10  D0 B8                 BNE MCRL1
02269  6E12  60                    RTS
02270  6E13             
02271  6E13                        ;--------------------------
02272  6E13                        ; MOVE COLOR DOWN (SCROLLIX = 7) + 8
02273  6E13             MCD
02274  6E13  AC 66 74              LDY SCROLLIX
02275  6E16  B9 B7 74              LDA SCROLLTABLE,Y ; 0/1
02276  6E19  18                    CLC
02277  6E1A  69 27                 ADC #39
02278  6E1C  AA                    TAX
02279  6E1D  8E 71 6E              STX MCDLX+1
02280  6E20  A0 50                 LDY #80
02281  6E22             MCDL0
02282  6E22  BD 07 DA              LDA 55255+560,X
02283  6E25  99 C9 6B              STA COLORBUFFER-41,Y
02284  6E28  BD DF D9              LDA 55255+520,X
02285  6E2B  99 DF D9              STA 55255+520,Y
02286  6E2E  BD B7 D9              LDA 55255+480,X
02287  6E31  99 B7 D9              STA 55255+480,Y
02288  6E34  BD 8F D9              LDA 55255+440,X
02289  6E37  99 8F D9              STA 55255+440,Y
02290  6E3A  BD 67 D9              LDA 55255+400,X
02291  6E3D  99 67 D9              STA 55255+400,Y
02292  6E40  BD 3F D9              LDA 55255+360,X
02293  6E43  99 3F D9              STA 55255+360,Y
02294  6E46  BD 17 D9              LDA 55255+320,X
02295  6E49  99 17 D9              STA 55255+320,Y
02296  6E4C  CA                    DEX
02297  6E4D  88                    DEY
02298  6E4E  C0 28                 CPY #40
02299  6E50  D0 D0                 BNE MCDL0
02300  6E52             
02301  6E52  A9 00                 LDA #BLACK ; LDA #CYAN  CHANGED FOR DEMO
02302  6E54  8D 20 D0              STA VIC_BORDER_COLOR
02303  6E57             
02304  6E57  AD 11 D0              LDA VIC_YSCROLL_CONTROL
02305  6E5A  29 78                 AND #%01111000
02306  6E5C  09 04                 ORA #%00000100 ; SET FIXED Y-SCROLL
02307  6E5E  8D 11 D0              STA VIC_YSCROLL_CONTROL
02308  6E61  AD 16 D0              LDA VIC_XSCROLL_CONTROL
02309  6E64  29 F8                 AND #%11111000
02310  6E66  09 04                 ORA #%00000100 ; SET FIXED X-SCROLL
02311  6E68  8D 16 D0              STA VIC_XSCROLL_CONTROL
02312  6E6B             
02313  6E6B  A9 00                 LDA #BLACK ; LDA #ORANGE  CHANGED FOR DEMO
02314  6E6D  8D 20 D0              STA VIC_BORDER_COLOR
02315  6E70             
02316  6E70  A2 00      MCDLX      LDX #0
02317  6E72  A0 50                 LDY #80
02318  6E74  BD 97 DB   MCDL1      LDA 55255+960,X
02319  6E77  99 97 DB              STA 55255+960,Y
02320  6E7A  BD 6F DB              LDA 55255+920,X
02321  6E7D  99 6F DB              STA 55255+920,Y
02322  6E80  BD 47 DB              LDA 55255+880,X
02323  6E83  99 47 DB              STA 55255+880,Y
02324  6E86  BD 1F DB              LDA 55255+840,X
02325  6E89  99 1F DB              STA 55255+840,Y
02326  6E8C  BD F7 DA              LDA 55255+800,X
02327  6E8F  99 F7 DA              STA 55255+800,Y
02328  6E92  BD CF DA              LDA 55255+760,X
02329  6E95  99 CF DA              STA 55255+760,Y
02330  6E98  BD A7 DA              LDA 55255+720,X
02331  6E9B  99 A7 DA              STA 55255+720,Y
02332  6E9E  BD 7F DA              LDA 55255+680,X
02333  6EA1  99 7F DA              STA 55255+680,Y
02334  6EA4  BD 57 DA              LDA 55255+640,X
02335  6EA7  99 57 DA              STA 55255+640,Y
02336  6EAA  BD 2F DA              LDA 55255+600,X
02337  6EAD  99 2F DA              STA 55255+600,Y
02338  6EB0  B9 C9 6B              LDA COLORBUFFER-41,Y
02339  6EB3  99 07 DA              STA 55255+560,Y
02340  6EB6  CA                    DEX
02341  6EB7  88                    DEY
02342  6EB8  C0 28                 CPY #40
02343  6EBA  D0 B8                 BNE MCDL1
02344  6EBC  60                    RTS
02345  6EBD             
02346  6EBD             
02347  6EBD             
02348  6EBD             
02349  6EBD             
02350  6EBD                        ;--------------------------
02351  6EBD                        ; ADD NEW DATA
02352  6EBD             ADDNEWDATA 
02353  6EBD  AE 66 74              LDX SCROLLIX
02354  6EC0  E0 03                 CPX #3
02355  6EC2  D0 0F                 BNE NOTTHR
02356  6EC4  A4 16                 LDY WINBLKX
02357  6EC6  C8                    INY
02358  6EC7  98                    TYA
02359  6EC8  29 03                 AND #3
02360  6ECA  85 16                 STA WINBLKX
02361  6ECC  D0 02                 BNE NOTEQ3
02362  6ECE  E6 14                 INC WINMAPX
02363  6ED0             NOTEQ3
02364  6ED0  4C 9B 6F              JMP DOADD
02365  6ED3             
02366  6ED3             NOTTHR
02367  6ED3  E0 05                 CPX #5
02368  6ED5  D0 12                 BNE NOTFIV
02369  6ED7  A5 16                 LDA WINBLKX
02370  6ED9  18                    CLC
02371  6EDA  69 03                 ADC #3
02372  6EDC  29 03                 AND #3
02373  6EDE  85 16                 STA WINBLKX
02374  6EE0  C9 03                 CMP #3
02375  6EE2  D0 02                 BNE NOTEQ5
02376  6EE4  C6 14                 DEC WINMAPX
02377  6EE6             NOTEQ5
02378  6EE6  4C 9B 6F              JMP DOADD
02379  6EE9             
02380  6EE9             NOTFIV
02381  6EE9  E0 07                 CPX #7
02382  6EEB  D0 12                 BNE NOTSEV
02383  6EED  A5 17                 LDA WINBLKY
02384  6EEF  18                    CLC
02385  6EF0  69 03                 ADC #3
02386  6EF2  29 03                 AND #3
02387  6EF4  85 17                 STA WINBLKY
02388  6EF6  C9 03                 CMP #3
02389  6EF8  D0 02                 BNE NOTEQ7
02390  6EFA  C6 15                 DEC WINMAPY
02391  6EFC             NOTEQ7
02392  6EFC  4C 9B 6F              JMP DOADD
02393  6EFF             
02394  6EFF             NOTSEV
02395  6EFF  E0 01                 CPX #1
02396  6F01  D0 0F                 BNE NOTONE
02397  6F03  A4 17                 LDY WINBLKY
02398  6F05  C8                    INY
02399  6F06  98                    TYA
02400  6F07  29 03                 AND #3
02401  6F09  85 17                 STA WINBLKY
02402  6F0B  D0 02                 BNE NOTEQ1
02403  6F0D  E6 15                 INC WINMAPY
02404  6F0F             NOTEQ1
02405  6F0F  4C 9B 6F              JMP DOADD
02406  6F12             
02407  6F12             NOTONE
02408  6F12  E0 02                 CPX #2
02409  6F14  D0 1E                 BNE NOTTWO
02410  6F16  A5 16                 LDA WINBLKX
02411  6F18  18                    CLC
02412  6F19  69 03                 ADC #3
02413  6F1B  29 03                 AND #3
02414  6F1D  85 16                 STA WINBLKX
02415  6F1F  C9 03                 CMP #3
02416  6F21  D0 02                 BNE NOTEQ2
02417  6F23  C6 14                 DEC WINMAPX
02418  6F25             NOTEQ2
02419  6F25  A4 17                 LDY WINBLKY
02420  6F27  C8                    INY
02421  6F28  98                    TYA
02422  6F29  29 03                 AND #3
02423  6F2B  85 17                 STA WINBLKY
02424  6F2D  D0 02                 BNE NOTEQ22
02425  6F2F  E6 15                 INC WINMAPY
02426  6F31             NOTEQ22
02427  6F31  4C 9B 6F              JMP DOADD
02428  6F34             
02429  6F34             NOTTWO
02430  6F34  E0 06                 CPX #6
02431  6F36  D0 1E                 BNE NOTSIX
02432  6F38  A4 16                 LDY WINBLKX
02433  6F3A  C8                    INY
02434  6F3B  98                    TYA
02435  6F3C  29 03                 AND #3
02436  6F3E  85 16                 STA WINBLKX
02437  6F40  D0 02                 BNE NOTEQ6
02438  6F42  E6 14                 INC WINMAPX
02439  6F44             NOTEQ6
02440  6F44  A5 17                 LDA WINBLKY
02441  6F46  18                    CLC
02442  6F47  69 03                 ADC #3
02443  6F49  29 03                 AND #3
02444  6F4B  85 17                 STA WINBLKY
02445  6F4D  C9 03                 CMP #3
02446  6F4F  D0 02                 BNE NOTEQ62
02447  6F51  C6 15                 DEC WINMAPY
02448  6F53             NOTEQ62
02449  6F53  4C 9B 6F              JMP DOADD
02450  6F56             
02451  6F56             NOTSIX
02452  6F56  E0 00                 CPX #0
02453  6F58  D0 1B                 BNE NOTZRO
02454  6F5A  A4 16                 LDY WINBLKX
02455  6F5C  C8                    INY
02456  6F5D  98                    TYA
02457  6F5E  29 03                 AND #3
02458  6F60  85 16                 STA WINBLKX
02459  6F62  D0 02                 BNE NOTEQ0
02460  6F64  E6 14                 INC WINMAPX
02461  6F66             NOTEQ0
02462  6F66  A4 17                 LDY WINBLKY
02463  6F68  C8                    INY
02464  6F69  98                    TYA
02465  6F6A  29 03                 AND #3
02466  6F6C  85 17                 STA WINBLKY
02467  6F6E  D0 02                 BNE NOTEQ02
02468  6F70  E6 15                 INC WINMAPY
02469  6F72             NOTEQ02
02470  6F72  4C 9B 6F              JMP DOADD
02471  6F75             
02472  6F75             NOTZRO
02473  6F75  E0 08                 CPX #8
02474  6F77  D0 21                 BNE NOTEIG
02475  6F79  A5 16                 LDA WINBLKX
02476  6F7B  18                    CLC
02477  6F7C  69 03                 ADC #3
02478  6F7E  29 03                 AND #3
02479  6F80  85 16                 STA WINBLKX
02480  6F82  C9 03                 CMP #3
02481  6F84  D0 02                 BNE NOTEQ8
02482  6F86  C6 14                 DEC WINMAPX
02483  6F88             NOTEQ8
02484  6F88  A5 17                 LDA WINBLKY
02485  6F8A  18                    CLC
02486  6F8B  69 03                 ADC #3
02487  6F8D  29 03                 AND #3
02488  6F8F  85 17                 STA WINBLKY
02489  6F91  C9 03                 CMP #3
02490  6F93  D0 02                 BNE NOTEQ82
02491  6F95  C6 15                 DEC WINMAPY
02492  6F97             NOTEQ82
02493  6F97  4C 9B 6F              JMP DOADD
02494  6F9A             
02495  6F9A             NOTEIG
02496  6F9A  60                    RTS
02497  6F9B             
02498  6F9B             DOADD
02499  6F9B  AD 4C 74              LDA SCREEN
02500  6F9E  0A                    ASL
02501  6F9F  0A                    ASL
02502  6FA0  0A                    ASL
02503  6FA1  18                    CLC
02504  6FA2  6D 4C 74              ADC SCREEN
02505  6FA5  6D 66 74              ADC SCROLLIX
02506  6FA8  0A                    ASL
02507  6FA9  0A                    ASL
02508  6FAA  AA                    TAX
02509  6FAB  BD 30 76              LDA JMPTAB,X
02510  6FAE  8D C4 6F              STA ADDLR+1
02511  6FB1  BD 31 76              LDA JMPTAB+1,X
02512  6FB4  8D C5 6F              STA ADDLR+2
02513  6FB7  BD 32 76              LDA JMPTAB+2,X
02514  6FBA  8D C7 6F              STA ADDTB+1
02515  6FBD  BD 33 76              LDA JMPTAB+3,X
02516  6FC0  8D C8 6F              STA ADDTB+2
02517  6FC3             ADDLR
02518  6FC3  20 FF FF              JSR $FFFF
02519  6FC6             ADDTB
02520  6FC6  20 FF FF              JSR $FFFF
02521  6FC9  60                    RTS
02522  6FCA             
02523  6FCA             
02524  6FCA             NOJMP
02525  6FCA  60                    RTS
02526  6FCB             
02527  6FCB             
02528  6FCB             
02529  6FCB                        ;--------------------------
02530  6FCB                        ; NEW DATA TO THE LEFT
02531  6FCB             NEWLEFT
02532  6FCB             CRL12
02533  6FCB             CRL21
02534  6FCB  AE 4C 74              LDX SCREEN
02535  6FCE  BD 4F 74              LDA SCRTLLO,X
02536  6FD1  8D 1B 70              STA SCRPOS+1                 ; 1304/2328
02537  6FD4  BD 51 74              LDA SCRTLHI,X
02538  6FD7  8D 1C 70              STA SCRPOS+2
02539  6FDA             
02540  6FDA  A5 17                 LDA WINBLKY
02541  6FDC  0A                    ASL
02542  6FDD  0A                    ASL
02543  6FDE  AA                    TAX
02544  6FDF  A4 15                 LDY WINMAPY
02545  6FE1  B9 8A 76              LDA MAPTABLO,Y
02546  6FE4  18                    CLC
02547  6FE5  65 14                 ADC WINMAPX
02548  6FE7  8D F5 6F              STA MAPAD+1
02549  6FEA  B9 8A 77              LDA MAPTABHI,Y
02550  6FED  69 00                 ADC #0
02551  6FEF  8D F6 6F              STA MAPAD+2
02552  6FF2  A0 12                 LDY #18
02553  6FF4             MAPAD
02554  6FF4  AD 00 51              LDA $5100
02555  6FF7  8C 08 70              STY SAVY1+1
02556  6FFA  A8                    TAY
02557  6FFB  B9 8A 78              LDA BLKTABLO,Y
02558  6FFE  8D 18 70              STA BLOCKAD+1
02559  7001  B9 8A 79              LDA BLKTABHI,Y
02560  7004  8D 19 70              STA BLOCKAD+2
02561  7007             SAVY1
02562  7007  A0 00                 LDY #0
02563  7009  A5 16                 LDA WINBLKX
02564  700B  18                    CLC
02565  700C  6D 18 70              ADC BLOCKAD+1
02566  700F  8D 18 70              STA BLOCKAD+1
02567  7012  90 03                 BCC BLOCKAD
02568  7014  EE 19 70              INC BLOCKAD+2
02569  7017             BLOCKAD
02570  7017  BD 00 40              LDA $4000,X
02571  701A             SCRPOS
02572  701A  8D 18 C1              STA 49432
02573  701D             
02574  701D             COLPOS
02575  701D             
02576  701D             SAVY2
02577  701D  88                    DEY
02578  701E  F0 2C                 BEQ DONE
02579  7020  AD 1B 70              LDA SCRPOS+1
02580  7023  18                    CLC
02581  7024  69 28                 ADC #40
02582  7026  8D 1B 70              STA SCRPOS+1
02583  7029  90 03                 BCC NOC2
02584  702B  EE 1C 70              INC SCRPOS+2
02585  702E             NOC2
02586  702E  E0 0C                 CPX #12
02587  7030  F0 06                 BEQ NEWBL
02588  7032  E8                    INX
02589  7033  E8                    INX
02590  7034  E8                    INX
02591  7035  E8                    INX
02592  7036  D0 DF                 BNE BLOCKAD
02593  7038             NEWBL
02594  7038  A2 00                 LDX #0
02595  703A  AD F5 6F              LDA MAPAD+1
02596  703D  18                    CLC
02597  703E  6D 00 51              ADC MAPWIDTH
02598  7041  8D F5 6F              STA MAPAD+1
02599  7044  90 03                 BCC NOC3
02600  7046  EE F6 6F              INC MAPAD+2
02601  7049             NOC3
02602  7049  4C F4 6F              JMP MAPAD
02603  704C             DONE
02604  704C  60                    RTS
02605  704D             
02606  704D             
02607  704D             
02608  704D             
02609  704D             
02610  704D                        ;--------------------------
02611  704D                        ; NEW DATA TO THE RIGHT
02612  704D             NEWRIGHT
02613  704D             CLR12
02614  704D             CLR21
02615  704D             
02616  704D  AE 4C 74              LDX SCREEN
02617  7050  BD 55 74              LDA SCRTRLO,X
02618  7053  8D AF 70              STA SCRPOSR+1                 ; 1304/2328
02619  7056  BD 57 74              LDA SCRTRHI,X
02620  7059  8D B0 70              STA SCRPOSR+2
02621  705C             
02622  705C  A0 09                 LDY #9
02623  705E  A5 16                 LDA WINBLKX
02624  7060  F0 01                 BEQ EQZERO
02625  7062  C8                    INY
02626  7063  98         EQZERO     TYA
02627  7064  18                    CLC
02628  7065  65 14                 ADC WINMAPX
02629  7067  8D 76 70              STA NRL0+1
02630  706A             
02631  706A  A5 17                 LDA WINBLKY
02632  706C  0A                    ASL
02633  706D  0A                    ASL
02634  706E  AA                    TAX
02635  706F  A4 15                 LDY WINMAPY
02636  7071  B9 8A 76              LDA MAPTABLO,Y
02637  7074  18                    CLC
02638  7075  69 0A      NRL0       ADC #10
02639  7077  8D 85 70              STA MAPADR+1
02640  707A  B9 8A 77              LDA MAPTABHI,Y
02641  707D  69 00                 ADC #0
02642  707F  8D 86 70              STA MAPADR+2
02643  7082  A0 12                 LDY #18
02644  7084             MAPADR
02645  7084  AD 00 51              LDA $5100
02646  7087  8C 98 70              STY SAVY1R+1
02647  708A  A8                    TAY
02648  708B  B9 8A 78              LDA BLKTABLO,Y
02649  708E  8D AC 70              STA BLOCKADR+1
02650  7091  B9 8A 79              LDA BLKTABHI,Y
02651  7094  8D AD 70              STA BLOCKADR+2
02652  7097             SAVY1R
02653  7097  A0 00                 LDY #0
02654  7099  A5 16                 LDA WINBLKX
02655  709B  18                    CLC
02656  709C  69 03                 ADC #3
02657  709E  29 03                 AND #%00000011
02658  70A0  6D AC 70              ADC BLOCKADR+1
02659  70A3  8D AC 70              STA BLOCKADR+1
02660  70A6  90 03                 BCC BLOCKADR
02661  70A8  EE AD 70              INC BLOCKADR+2
02662  70AB             BLOCKADR
02663  70AB  BD 00 40              LDA $4000,X
02664  70AE             SCRPOSR
02665  70AE  8D 18 C1              STA 49432
02666  70B1             
02667  70B1             COLPOSR
02668  70B1             
02669  70B1             SAVY2R
02670  70B1  88                    DEY
02671  70B2  F0 2C                 BEQ DONER
02672  70B4  AD AF 70              LDA SCRPOSR+1
02673  70B7  18                    CLC
02674  70B8  69 28                 ADC #40
02675  70BA  8D AF 70              STA SCRPOSR+1
02676  70BD  90 03                 BCC NOC2R
02677  70BF  EE B0 70              INC SCRPOSR+2
02678  70C2             NOC2R
02679  70C2  E0 0C                 CPX #12
02680  70C4  F0 06                 BEQ NEWBLR
02681  70C6  E8                    INX
02682  70C7  E8                    INX
02683  70C8  E8                    INX
02684  70C9  E8                    INX
02685  70CA  D0 DF                 BNE BLOCKADR
02686  70CC             NEWBLR
02687  70CC  A2 00                 LDX #0
02688  70CE  AD 85 70              LDA MAPADR+1
02689  70D1  18                    CLC
02690  70D2  6D 00 51              ADC MAPWIDTH
02691  70D5  8D 85 70              STA MAPADR+1
02692  70D8  90 03                 BCC NOC3R
02693  70DA  EE 86 70              INC MAPADR+2
02694  70DD             NOC3R
02695  70DD  4C 84 70              JMP MAPADR
02696  70E0             DONER
02697  70E0  60                    RTS
02698  70E1             
02699  70E1             
02700  70E1             
02701  70E1             
02702  70E1             
02703  70E1             ;---------
02704  70E1             ;
02705  70E1             ;       (<1718 CYCLES)
02706  70E1             ;
02707  70E1             NEWTOP
02708  70E1             CBT12
02709  70E1             CBT21
02710  70E1             
02711  70E1  A5 17                 LDA WINBLKY
02712  70E3  0A                    ASL
02713  70E4  0A                    ASL
02714  70E5  8D 1B 71              STA LBBBY+1
02715  70E8             
02716  70E8  AE 4C 74              LDX SCREEN
02717  70EB  BD 4F 74              LDA SCRTLLO,X
02718  70EE  8D 31 71              STA SCADDR3+1
02719  70F1  BD 51 74              LDA SCRTLHI,X
02720  70F4  8D 32 71              STA SCADDR3+2
02721  70F7             
02722  70F7  A2 00                 LDX #0
02723  70F9  8E 15 71              STX LBB01+1
02724  70FC  A5 16                 LDA WINBLKX
02725  70FE  8D 2C 71              STA LBB03+1
02726  7101  A4 15                 LDY WINMAPY
02727  7103  B9 8A 76              LDA MAPTABLO,Y
02728  7106  18                    CLC
02729  7107  65 14                 ADC WINMAPX
02730  7109  8D 17 71              STA LBB02+1
02731  710C  B9 8A 77              LDA MAPTABHI,Y
02732  710F  69 00                 ADC #0
02733  7111  8D 18 71              STA LBB02+2
02734  7114             
02735  7114  A0 00      LBB01      LDY #0
02736  7116  B9 FF FF   LBB02      LDA $FFFF,Y
02737  7119             
02738  7119  A8                    TAY
02739  711A  A9 00      LBBBY      LDA #0  ;LDA WINBLKY
02740  711C                        ;ASL
02741  711C                        ;ASL
02742  711C  18                    CLC
02743  711D  79 8A 78              ADC BLKTABLO,Y
02744  7120  8D 2E 71              STA LBB04+1
02745  7123  A9 00                 LDA #0
02746  7125  79 8A 79              ADC BLKTABHI,Y
02747  7128  8D 2F 71              STA LBB04+2
02748  712B             
02749  712B  A0 00      LBB03      LDY #0
02750  712D  B9 FF FF   LBB04      LDA $FFFF,Y
02751  7130  9D FF FF   SCADDR3    STA $FFFF,X
02752  7133  E8                    INX
02753  7134  E0 28                 CPX #40
02754  7136  F0 10                 BEQ LBB05
02755  7138             
02756  7138  C8                    INY
02757  7139  C0 04                 CPY #4
02758  713B  D0 F0                 BNE LBB04
02759  713D  A9 00                 LDA #0
02760  713F  8D 2C 71              STA LBB03+1
02761  7142             
02762  7142  EE 15 71              INC LBB01+1
02763  7145  4C 14 71              JMP LBB01
02764  7148  60         LBB05      RTS
02765  7149             ;---------
02766  7149             
02767  7149             
02768  7149             
02769  7149                        ;--------------------------
02770  7149                        ; NEW DATA AT THE TOP
02771  7149                        ;
02772  7149                        ;       (1806 CYCLES)
02773  7149             ;NEWTOP
02774  7149             ;CBT12
02775  7149             ;CBT21
02776  7149  AE 4C 74              LDX SCREEN
02777  714C  BD 4F 74              LDA SCRTLLO,X
02778  714F  38                    SEC
02779  7150  E5 16                 SBC WINBLKX
02780  7152  8D 94 71              STA SCADDR1+1
02781  7155  BD 51 74              LDA SCRTLHI,X
02782  7158  8D 95 71              STA SCADDR1+2
02783  715B             
02784  715B  A2 28                 LDX #40
02785  715D  A4 15                 LDY WINMAPY
02786  715F  B9 8A 76              LDA MAPTABLO,Y
02787  7162  8D 78 71              STA LB02+1
02788  7165  B9 8A 77              LDA MAPTABHI,Y
02789  7168  8D 79 71              STA LB02+2
02790  716B  A5 14                 LDA WINMAPX
02791  716D  8D 76 71              STA LB01+1
02792  7170  A5 16                 LDA WINBLKX
02793  7172  8D 8F 71              STA LB03+1
02794  7175             
02795  7175  A0 00      LB01       LDY #0
02796  7177  B9 FF FF   LB02       LDA $FFFF,Y                             ; BLOCK NO.
02797  717A  A8                    TAY
02798  717B  A5 17                 LDA WINBLKY
02799  717D  0A                    ASL
02800  717E  0A                    ASL
02801  717F  18                    CLC
02802  7180  79 8A 78              ADC BLKTABLO,Y
02803  7183  8D 91 71              STA LB04+1
02804  7186  A9 00                 LDA #0
02805  7188  79 8A 79              ADC BLKTABHI,Y
02806  718B  8D 92 71              STA LB04+2
02807  718E  A0 00      LB03       LDY #0
02808  7190  B9 FF FF   LB04       LDA $FFFF,Y
02809  7193  99 00 C0   SCADDR1    STA 49152,Y
02810  7196             
02811  7196             CLADDR1
02812  7196             LB05
02813  7196  CA                    DEX
02814  7197  F0 1D                 BEQ LB06
02815  7199  C8                    INY
02816  719A  C0 04                 CPY #4
02817  719C  D0 F2                 BNE LB04
02818  719E  A9 00                 LDA #0
02819  71A0  8D 8F 71              STA LB03+1
02820  71A3             
02821  71A3  A9 04                 LDA #4
02822  71A5  18                    CLC
02823  71A6  6D 94 71              ADC SCADDR1+1
02824  71A9  8D 94 71              STA SCADDR1+1
02825  71AC  90 03                 BCC LC01
02826  71AE  EE 95 71              INC SCADDR1+2
02827  71B1             LC01
02828  71B1             
02829  71B1  EE 76 71   LC02       INC LB01+1
02830  71B4  D0 BF                 BNE LB01
02831  71B6  60         LB06       RTS
02832  71B7             
02833  71B7             
02834  71B7             
02835  71B7             
02836  71B7             
02837  71B7             ;---------
02838  71B7             ;
02839  71B7             ;       (? CYCLES)
02840  71B7             ;
02841  71B7             NEWBOTTOM
02842  71B7             CTB12
02843  71B7             CTB21
02844  71B7             
02845  71B7  AE 4C 74              LDX SCREEN
02846  71BA  BD 5B 74              LDA SCRBLLO,X
02847  71BD  8D 12 72              STA SCADDR4+1
02848  71C0  BD 5D 74              LDA SCRBLHI,X
02849  71C3  8D 13 72              STA SCADDR4+2
02850  71C6             
02851  71C6  A5 15                 LDA WINMAPY
02852  71C8  18                    CLC
02853  71C9  69 04                 ADC #4
02854  71CB  A8                    TAY
02855  71CC  A6 17                 LDX WINBLKY
02856  71CE  E8                    INX
02857  71CF  8A                    TXA
02858  71D0  29 03                 AND #%00000011
02859  71D2  D0 01                 BNE LDD00
02860  71D4  C8                    INY
02861  71D5             
02862  71D5  0A         LDD00      ASL
02863  71D6  0A                    ASL
02864  71D7  8D FC 71              STA LDDBY+1
02865  71DA             
02866  71DA  A2 00                 LDX #0
02867  71DC  8E F6 71              STX LDD01+1
02868  71DF  A5 16                 LDA WINBLKX
02869  71E1  8D 0D 72              STA LDD03+1
02870  71E4             
02871  71E4  B9 8A 76              LDA MAPTABLO,Y
02872  71E7  18                    CLC
02873  71E8  65 14                 ADC WINMAPX
02874  71EA  8D F8 71              STA LDD02+1
02875  71ED  B9 8A 77              LDA MAPTABHI,Y
02876  71F0  69 00                 ADC #0
02877  71F2  8D F9 71              STA LDD02+2
02878  71F5             
02879  71F5  A0 00      LDD01      LDY #0
02880  71F7  B9 FF FF   LDD02      LDA $FFFF,Y             ; LOAD BLOCKNO FROM MAP
02881  71FA             
02882  71FA  A8                    TAY
02883  71FB  A9 00      LDDBY      LDA #0                  ; 4*WINBLKY
02884  71FD  18                    CLC
02885  71FE  79 8A 78              ADC BLKTABLO,Y          ; Y = BLOCKNO
02886  7201  8D 0F 72              STA LDD04+1
02887  7204  A9 00                 LDA #0
02888  7206  79 8A 79              ADC BLKTABHI,Y          ; Y = BLOCKNO
02889  7209  8D 10 72              STA LDD04+2
02890  720C             
02891  720C  A0 00      LDD03      LDY #0                  ; INITIAL Y = WINBLKX
02892  720E  B9 FF FF   LDD04      LDA $FFFF,Y             ; LOAD CHAR
02893  7211  9D FF FF   SCADDR4    STA $FFFF,X             ; STORE ON SCREEN
02894  7214  E8                    INX
02895  7215  E0 28                 CPX #40                 ; REPEAT FOR 40 CHARS
02896  7217  F0 10                 BEQ LDD05
02897  7219             
02898  7219  C8                    INY                     ; GO TO NEXT BLOCK COLUMN
02899  721A  C0 04                 CPY #4                  ; CHECK FOR LAST COLUMN IN BLOCK
02900  721C  D0 F0                 BNE LDD04
02901  721E  A9 00                 LDA #0
02902  7220  8D 0D 72              STA LDD03+1             ; START FROM FIRST COLUMN IN NEW BLOCK
02903  7223             
02904  7223  EE F6 71              INC LDD01+1             ; POINT TO NEXT COLUMN IN MAP
02905  7226  4C F5 71              JMP LDD01
02906  7229  60         LDD05      RTS
02907  722A             ;---------
02908  722A             
02909  722A             
02910  722A                        ;--------------------------
02911  722A                        ; NEW DATA AT THE BOTTOM
02912  722A             ;NEWBOTTOM
02913  722A             ;CTB12
02914  722A             ;CTB21
02915  722A  AE 4C 74              LDX SCREEN
02916  722D  BD 5B 74              LDA SCRBLLO,X
02917  7230  38                    SEC
02918  7231  E5 16                 SBC WINBLKX
02919  7233  8D 86 72              STA SCADDR2+1
02920  7236  BD 5D 74              LDA SCRBLHI,X
02921  7239  8D 87 72              STA SCADDR2+2
02922  723C             
02923  723C  A2 28                 LDX #40
02924  723E  A5 15                 LDA WINMAPY
02925  7240  18                    CLC
02926  7241  69 04                 ADC #4
02927  7243  A8                    TAY
02928  7244  A5 17                 LDA WINBLKY
02929  7246  18                    CLC
02930  7247  69 01                 ADC #1
02931  7249  29 03                 AND #%00000011
02932  724B  0A                    ASL
02933  724C  0A                    ASL
02934  724D  8D 70 72              STA BLKY+1
02935  7250  D0 01                 BNE LD00
02936  7252  C8                    INY
02937  7253  B9 8A 76   LD00       LDA MAPTABLO,Y
02938  7256  8D 6C 72              STA LD02+1
02939  7259  B9 8A 77              LDA MAPTABHI,Y
02940  725C  8D 6D 72              STA LD02+2
02941  725F  A5 14                 LDA WINMAPX
02942  7261  8D 6A 72              STA LD01+1
02943  7264  A5 16                 LDA WINBLKX
02944  7266  8D 81 72              STA LD03+1
02945  7269             
02946  7269  A0 00      LD01       LDY #0
02947  726B  B9 FF FF   LD02       LDA $FFFF,Y                             ; BLOCK NO.
02948  726E  A8                    TAY
02949  726F  A9 00      BLKY       LDA #0
02950  7271  18                    CLC
02951  7272  79 8A 78              ADC BLKTABLO,Y
02952  7275  8D 83 72              STA LD04+1
02953  7278  A9 00                 LDA #0
02954  727A  79 8A 79              ADC BLKTABHI,Y
02955  727D  8D 84 72              STA LD04+2
02956  7280  A0 00      LD03       LDY #0
02957  7282  B9 FF FF   LD04       LDA $FFFF,Y
02958  7285  99 00 C0   SCADDR2    STA 49152,Y
02959  7288             
02960  7288             CLADDR2
02961  7288             LD05
02962  7288  CA                    DEX
02963  7289  F0 1D                 BEQ LD06
02964  728B  C8                    INY
02965  728C  C0 04                 CPY #4
02966  728E  D0 F2                 BNE LD04
02967  7290  A9 00                 LDA #0
02968  7292  8D 81 72              STA LD03+1
02969  7295             
02970  7295  A9 04                 LDA #4
02971  7297  18                    CLC
02972  7298  6D 86 72              ADC SCADDR2+1
02973  729B  8D 86 72              STA SCADDR2+1
02974  729E  90 03                 BCC LE01
02975  72A0  EE 87 72              INC SCADDR2+2
02976  72A3             LE01
02977  72A3             
02978  72A3  EE 6A 72   LE02       INC LD01+1
02979  72A6  D0 C1                 BNE LD01
02980  72A8  60         LD06       RTS
02981  72A9             
02982  72A9             
02983  72A9             
02984  72A9             
02985  72A9             
02986  72A9             
02987  72A9             
02988  72A9                        ;--------------------------
02989  72A9                        ; ADD NEW COLOR
02990  72A9             ADDNEWCOLOR 
02991  72A9  AE 4C 74              LDX SCREEN
02992  72AC  BD 4F 74              LDA SCRTLLO,X
02993  72AF  8D FE 72              STA ANC001+1
02994  72B2  8D 3A 73              STA ANC007+1
02995  72B5  8D 8E 73              STA ANC013+1
02996  72B8  BD 51 74              LDA SCRTLHI,X
02997  72BB  8D FF 72              STA ANC001+2
02998  72BE  8D 3E 73              STA ANC008+1
02999  72C1  8D 95 73              STA ANC014+1
03000  72C4             
03001  72C4  AD 53 74              LDA COLTLLO
03002  72C7  8D 04 73              STA ANC002+1
03003  72CA  8D 42 73              STA ANC009+1
03004  72CD  8D 9B 73              STA ANC015+1
03005  72D0  AD 54 74              LDA COLTLHI
03006  72D3  8D 05 73              STA ANC002+2
03007  72D6  8D 46 73              STA ANC010+1
03008  72D9  8D A2 73              STA ANC016+1
03009  72DC             
03010  72DC  BD 5B 74              LDA SCRBLLO,X
03011  72DF  8D 15 73              STA ANC004+1
03012  72E2  BD 5D 74              LDA SCRBLHI,X
03013  72E5  8D 16 73              STA ANC004+2
03014  72E8             
03015  72E8  AD 5F 74              LDA COLBLLO
03016  72EB  8D 1B 73              STA ANC005+1
03017  72EE  AD 60 74              LDA COLBLHI
03018  72F1  8D 1C 73              STA ANC005+2
03019  72F4             
03020  72F4  AD 66 74              LDA SCROLLIX
03021  72F7  C9 06                 CMP #6
03022  72F9  90 10                 BCC ANC003
03023  72FB  A2 00                 LDX #0
03024  72FD  BC 40 C1   ANC001     LDY 49472,X
03025  7300  B9 00 50              LDA COLORTAB,Y
03026  7303  9D 40 D9   ANC002     STA 55616,X
03027  7306  E8                    INX
03028  7307  E0 28                 CPX #40
03029  7309  D0 F2                 BNE ANC001
03030  730B             
03031  730B  AD 66 74   ANC003     LDA SCROLLIX
03032  730E  C9 03                 CMP #3
03033  7310  B0 10                 BCS ANC006
03034  7312  A2 00                 LDX #0
03035  7314  BC C0 C3   ANC004     LDY 50112,X
03036  7317  B9 00 50              LDA COLORTAB,Y
03037  731A  9D C0 DB   ANC005     STA 56256,X
03038  731D  E8                    INX
03039  731E  E0 28                 CPX #40
03040  7320  D0 F2                 BNE ANC004
03041  7322             
03042  7322  AD 66 74   ANC006     LDA SCROLLIX
03043  7325  F0 4D                 BEQ ANC012
03044  7327  C9 01                 CMP #1
03045  7329  F0 49                 BEQ ANC012
03046  732B  C9 03                 CMP #3
03047  732D  F0 45                 BEQ ANC012
03048  732F  C9 06                 CMP #6
03049  7331  F0 41                 BEQ ANC012
03050  7333  C9 07                 CMP #7
03051  7335  F0 3D                 BEQ ANC012
03052  7337  A2 07                 LDX #7
03053  7339  A9 00      ANC007     LDA #0
03054  733B  85 02                 STA 2
03055  733D  A9 00      ANC008     LDA #0
03056  733F  85 03                 STA 3
03057  7341  A9 00      ANC009     LDA #0
03058  7343  85 04                 STA 4
03059  7345  A9 00      ANC010     LDA #0
03060  7347  85 05                 STA 5
03061  7349  A0 00      ANC011     LDY #0
03062  734B  B1 02                 LDA (2),Y
03063  734D  A8                    TAY
03064  734E  B9 00 50              LDA COLORTAB,Y
03065  7351  A0 00                 LDY #0
03066  7353  91 04                 STA (4),Y
03067  7355  A5 02                 LDA 2
03068  7357  18                    CLC
03069  7358  69 28                 ADC #40
03070  735A  85 02                 STA 2
03071  735C  A5 03                 LDA 3
03072  735E  69 00                 ADC #0
03073  7360  85 03                 STA 3
03074  7362  A5 04                 LDA 4
03075  7364  18                    CLC
03076  7365  69 28                 ADC #40
03077  7367  85 04                 STA 4
03078  7369  A5 05                 LDA 5
03079  736B  69 00                 ADC #0
03080  736D  85 05                 STA 5
03081  736F  E8                    INX
03082  7370  E0 19                 CPX #25
03083  7372  D0 D5                 BNE ANC011
03084  7374             
03085  7374  AD 66 74   ANC012     LDA SCROLLIX
03086  7377  C9 01                 CMP #1
03087  7379  F0 57                 BEQ ANC018
03088  737B  C9 02                 CMP #2
03089  737D  F0 53                 BEQ ANC018
03090  737F  C9 05                 CMP #5
03091  7381  F0 4F                 BEQ ANC018
03092  7383  C9 07                 CMP #7
03093  7385  F0 4B                 BEQ ANC018
03094  7387  C9 08                 CMP #8
03095  7389  F0 47                 BEQ ANC018
03096  738B  A2 07                 LDX #7
03097  738D  A9 00      ANC013     LDA #0
03098  738F  18                    CLC
03099  7390  69 27                 ADC #39
03100  7392  85 02                 STA 2
03101  7394  A9 00      ANC014     LDA #0
03102  7396  69 00                 ADC #0
03103  7398  85 03                 STA 3
03104  739A  A9 00      ANC015     LDA #0
03105  739C  18                    CLC
03106  739D  69 27                 ADC #39
03107  739F  85 04                 STA 4
03108  73A1  A9 00      ANC016     LDA #0
03109  73A3  69 00                 ADC #0
03110  73A5  85 05                 STA 5
03111  73A7  A0 00      ANC017     LDY #0
03112  73A9  B1 02                 LDA (2),Y
03113  73AB  A8                    TAY
03114  73AC  B9 00 50              LDA COLORTAB,Y
03115  73AF  A0 00                 LDY #0
03116  73B1  91 04                 STA (4),Y
03117  73B3  A5 02                 LDA 2
03118  73B5  18                    CLC
03119  73B6  69 28                 ADC #40
03120  73B8  85 02                 STA 2
03121  73BA  A5 03                 LDA 3
03122  73BC  69 00                 ADC #0
03123  73BE  85 03                 STA 3
03124  73C0  A5 04                 LDA 4
03125  73C2  18                    CLC
03126  73C3  69 28                 ADC #40
03127  73C5  85 04                 STA 4
03128  73C7  A5 05                 LDA 5
03129  73C9  69 00                 ADC #0
03130  73CB  85 05                 STA 5
03131  73CD  E8                    INX
03132  73CE  E0 19                 CPX #25
03133  73D0  D0 D5                 BNE ANC017
03134  73D2  60         ANC018     RTS
03135  73D3             
03136  73D3             
03137  73D3             
03138  73D3             
03139  73D3                        ;--------------------------
03140  73D3                        ; READ JOYSTICK AND SET SCROLLIX
03141  73D3             READ_JOYSTICK 
03142  73D3                        ; JOYDIR
03143  73D3                        ; 0 = NONE PRESSED
03144  73D3                        ; 1 = UP
03145  73D3                        ; 2 = DOWN
03146  73D3                        ; 4 = LEFT
03147  73D3                        ; 5 = UP LEFT
03148  73D3                        ; 6 = DOWN LEFT
03149  73D3                        ; 8 = RIGHT
03150  73D3                        ; 9 = UP RIGHT
03151  73D3                        ;10 = DOWN RIGHT
03152  73D3             
03153  73D3  AD 00 DC              LDA $DC00
03154  73D6  49 FF                 EOR #%11111111
03155  73D8  29 0F                 AND #%00001111
03156  73DA  8D 4B 74              STA JOYDIR
03157  73DD             JOYWEDGE
03158  73DD  AA                    TAX
03159  73DE  BD 67 74              LDA JOYDIR2SCROLLIX,X
03160  73E1  8D 66 74              STA SCROLLIX
03161  73E4  BD 77 74              LDA SCROLLIXCHKXLO,X
03162  73E7  8D FD 73              STA CHKX+1
03163  73EA  BD 87 74              LDA SCROLLIXCHKXHI,X
03164  73ED  8D FE 73              STA CHKX+2
03165  73F0  BD 97 74              LDA SCROLLIXCHKYLO,X
03166  73F3  8D 00 74              STA CHKY+1
03167  73F6  BD A7 74              LDA SCROLLIXCHKYHI,X
03168  73F9  8D 01 74              STA CHKY+2
03169  73FC  20 FF FF   CHKX       JSR $FFFF
03170  73FF  20 FF FF   CHKY       JSR $FFFF
03171  7402  60                    RTS
03172  7403             
03173  7403             NOCHK
03174  7403  60                    RTS
03175  7404             CHKMINX
03176  7404  A5 14                 LDA WINMAPX
03177  7406  05 16                 ORA WINBLKX
03178  7408  D0 03                 BNE MINXOK
03179  740A  CE 66 74              DEC SCROLLIX
03180  740D             MINXOK
03181  740D  60                    RTS
03182  740E             CHKMAXX
03183  740E  A5 14                 LDA WINMAPX
03184  7410  18                    CLC
03185  7411  69 0A                 ADC #10
03186  7413  CD 00 51              CMP MAPWIDTH
03187  7416  D0 07                 BNE MAXXOK
03188  7418  A5 16                 LDA WINBLKX
03189  741A  F0 03                 BEQ MAXXOK
03190  741C  EE 66 74              INC SCROLLIX
03191  741F             MAXXOK
03192  741F  60                    RTS
03193  7420             CHKMINY
03194  7420  A5 15                 LDA WINMAPY
03195  7422  05 17                 ORA WINBLKY
03196  7424  D0 09                 BNE MINYOK
03197  7426  CE 66 74              DEC SCROLLIX
03198  7429  CE 66 74              DEC SCROLLIX
03199  742C  CE 66 74              DEC SCROLLIX
03200  742F             MINYOK
03201  742F  60                    RTS
03202  7430             CHKMAXY
03203  7430  A5 15                 LDA WINMAPY
03204  7432  18                    CLC
03205  7433  69 05                 ADC #5
03206  7435  CD 01 51              CMP MAPHEIGHT
03207  7438  D0 0F                 BNE MAXYOK
03208  743A  A5 17                 LDA WINBLKY
03209  743C  C9 03                 CMP #3
03210  743E  D0 09                 BNE MAXYOK
03211  7440  EE 66 74              INC SCROLLIX
03212  7443  EE 66 74              INC SCROLLIX
03213  7446  EE 66 74              INC SCROLLIX
03214  7449             MAXYOK
03215  7449  60                    RTS
03216  744A             
03217  744A             
03218  744A             SCROLLSPEED 
03219  744A  01                    BYTE 1 ; 1 / 2 / 4
03220  744B             
03221  744B             JOYDIR
03222  744B  FF                    BYTE $FF
03223  744C             
03224  744C             SCREEN
03225  744C  00                    BYTE 0
03226  744D             
03227  744D             SCREENLOC
03228  744D  00 10                 BYTE 0, 16
03229  744F             
03230  744F             SCRTLLO
03231  744F  18                    BYTE 24
03232  7450  18                    BYTE 24
03233  7451             SCRTLHI
03234  7451  C5                    BYTE 197 ; $C518
03235  7452  C1                    BYTE 193 ; $C118
03236  7453             COLTLLO
03237  7453  18                    BYTE 24
03238  7454             COLTLHI
03239  7454  D9                    BYTE 217 ; $D918
03240  7455             
03241  7455             SCRTRLO
03242  7455  3F                    BYTE 63
03243  7456  3F                    BYTE 63
03244  7457             SCRTRHI
03245  7457  C5                    BYTE 197 ; $C53F
03246  7458  C1                    BYTE 193 ; $C13F
03247  7459             COLTRLO
03248  7459  3F                    BYTE 63
03249  745A             COLTRHI
03250  745A  D9                    BYTE 217 ; $D93F
03251  745B             
03252  745B             SCRBLLO
03253  745B  C0                    BYTE 192
03254  745C  C0                    BYTE 192
03255  745D             SCRBLHI
03256  745D  C7                    BYTE 199 ; $C7C0
03257  745E  C3                    BYTE 195 ; $C3C0
03258  745F             COLBLLO
03259  745F  C0                    BYTE 192
03260  7460             COLBLHI
03261  7460  DB                    BYTE 219 ; $DBC0
03262  7461             
03263  7461             MAPPTRLO
03264  7461  00                    BYTE 0
03265  7462             MAPPTRHI
03266  7462  00                    BYTE 0
03267  7463             
03268  7463             XSCROLL
03269  7463  04                    BYTE 4
03270  7464             YSCROLL
03271  7464  04                    BYTE 4
03272  7465             
03273  7465             PHASE
03274  7465  00                    BYTE 0
03275  7466             
03276  7466             SCROLLIX
03277  7466  04                    BYTE 4
03278  7467             
03279  7467             JOYDIR2SCROLLIX ; JOYDIR CAN BE %0000 TO FFFF
03280  7467  04                    BYTE 4                         ; -      NOCHK       NOCHK
03281  7468  07                    BYTE 7                         ; U      NOCHK       CHKMINY
03282  7469  01                    BYTE 1                         ; D      NOCHK       CHKMAXY
03283  746A  04                    BYTE 4                         ; -      NOCHK       NOCHK
03284  746B  05                    BYTE 5                         ; L      CHKMINX     NOCHK
03285  746C  08                    BYTE 8                         ; U+L    CHKMINX     CHKMINY
03286  746D  02                    BYTE 2                         ; D+L    CHKMINX     CHKMAXY
03287  746E  04                    BYTE 4                         ; -      NOCHK       NOCHK
03288  746F  03                    BYTE 3                         ; R      CHKMAXX     NOCHK
03289  7470  06                    BYTE 6                         ; U+R    CHKMAXX     CHKMINY
03290  7471  00                    BYTE 0                         ; D+R    CHKMAXX     CHKMAXY
03291  7472  04                    BYTE 4                         ; -      NOCHK       NOCHK
03292  7473  04                    BYTE 4                         ; -      NOCHK       NOCHK
03293  7474  04                    BYTE 4                         ; -      NOCHK       NOCHK
03294  7475  04                    BYTE 4                         ; -      NOCHK       NOCHK
03295  7476  04                    BYTE 4                         ; -      NOCHK       NOCHK
03296  7477             
03297  7477             SCROLLIXCHKXLO 
03298  7477  03                    BYTE <NOCHK
03299  7478  03                    BYTE <NOCHK
03300  7479  03                    BYTE <NOCHK
03301  747A  03                    BYTE <NOCHK
03302  747B  04                    BYTE <CHKMINX
03303  747C  04                    BYTE <CHKMINX
03304  747D  04                    BYTE <CHKMINX
03305  747E  03                    BYTE <NOCHK
03306  747F  0E                    BYTE <CHKMAXX
03307  7480  0E                    BYTE <CHKMAXX
03308  7481  0E                    BYTE <CHKMAXX
03309  7482  03                    BYTE <NOCHK
03310  7483  03                    BYTE <NOCHK
03311  7484  03                    BYTE <NOCHK
03312  7485  03                    BYTE <NOCHK
03313  7486  03                    BYTE <NOCHK
03314  7487             
03315  7487             SCROLLIXCHKXHI 
03316  7487  74                    BYTE >NOCHK
03317  7488  74                    BYTE >NOCHK
03318  7489  74                    BYTE >NOCHK
03319  748A  74                    BYTE >NOCHK
03320  748B  74                    BYTE >CHKMINX
03321  748C  74                    BYTE >CHKMINX
03322  748D  74                    BYTE >CHKMINX
03323  748E  74                    BYTE >NOCHK
03324  748F  74                    BYTE >CHKMAXX
03325  7490  74                    BYTE >CHKMAXX
03326  7491  74                    BYTE >CHKMAXX
03327  7492  74                    BYTE >NOCHK
03328  7493  74                    BYTE >NOCHK
03329  7494  74                    BYTE >NOCHK
03330  7495  74                    BYTE >NOCHK
03331  7496  74                    BYTE >NOCHK
03332  7497             
03333  7497             SCROLLIXCHKYLO 
03334  7497  03                    BYTE <NOCHK
03335  7498  20                    BYTE <CHKMINY
03336  7499  30                    BYTE <CHKMAXY
03337  749A  03                    BYTE <NOCHK
03338  749B  03                    BYTE <NOCHK
03339  749C  20                    BYTE <CHKMINY
03340  749D  30                    BYTE <CHKMAXY
03341  749E  03                    BYTE <NOCHK
03342  749F  03                    BYTE <NOCHK
03343  74A0  20                    BYTE <CHKMINY
03344  74A1  30                    BYTE <CHKMAXY
03345  74A2  03                    BYTE <NOCHK
03346  74A3  03                    BYTE <NOCHK
03347  74A4  03                    BYTE <NOCHK
03348  74A5  03                    BYTE <NOCHK
03349  74A6  03                    BYTE <NOCHK
03350  74A7             
03351  74A7             SCROLLIXCHKYHI 
03352  74A7  74                    BYTE >NOCHK
03353  74A8  74                    BYTE >CHKMINY
03354  74A9  74                    BYTE >CHKMAXY
03355  74AA  74                    BYTE >NOCHK
03356  74AB  74                    BYTE >NOCHK
03357  74AC  74                    BYTE >CHKMINY
03358  74AD  74                    BYTE >CHKMAXY
03359  74AE  74                    BYTE >NOCHK
03360  74AF  74                    BYTE >NOCHK
03361  74B0  74                    BYTE >CHKMINY
03362  74B1  74                    BYTE >CHKMAXY
03363  74B2  74                    BYTE >NOCHK
03364  74B3  74                    BYTE >NOCHK
03365  74B4  74                    BYTE >NOCHK
03366  74B5  74                    BYTE >NOCHK
03367  74B6  74                    BYTE >NOCHK
03368  74B7             
03369  74B7             SCROLLTABLE 
03370  74B7  52 51 50              BYTE 82, 81, 80
03371  74BA  2A 29 28              BYTE 42, 41, 40
03372  74BD  02 01 00              BYTE  2,  1,  0
03373  74C0             
03374  74C0             ACTION1
03375  74C0  00 00 00              BYTE 0, 0, 0, 1, 2, 0, 0, 0                ; SCROLLIX = 0
03376  74C8  00 00 00              BYTE 0, 0, 0, 1, 2, 0, 0, 0                ; SCROLLIX = 1
03377  74D0  00 00 00              BYTE 0, 0, 0, 1, 2, 0, 0, 0                ; SCROLLIX = 2
03378  74D8  00 00 00              BYTE 0, 0, 0, 1, 2, 0, 0, 0                ; SCROLLIX = 3
03379  74E0  00 00 00              BYTE 0, 0, 0, 0, 0, 0, 0, 0                ; SCROLLIX = 4
03380  74E8  00 00 01              BYTE 0, 0, 1, 2, 0, 0, 0, 0                ; SCROLLIX = 5
03381  74F0  00 00 00              BYTE 0, 0, 0, 1, 2, 0, 0, 0                ; SCROLLIX = 6
03382  74F8  00 00 01              BYTE 0, 0, 1, 2, 0, 0, 0, 0                ; SCROLLIX = 7
03383  7500  00 00 01              BYTE 0, 0, 1, 2, 0, 0, 0, 0                ; SCROLLIX = 8
03384  7508             
03385  7508             ACTION2
03386  7508  00 00 01              BYTE 0, 0, 1, 0, 2, 0, 0, 0                ; SCROLLIX = 0
03387  7510  00 00 01              BYTE 0, 0, 1, 0, 2, 0, 0, 0                ; SCROLLIX = 1
03388  7518  00 00 01              BYTE 0, 0, 1, 0, 2, 0, 0, 0                ; SCROLLIX = 2
03389  7520  00 00 01              BYTE 0, 0, 1, 0, 2, 0, 0, 0                ; SCROLLIX = 3
03390  7528  00 00 00              BYTE 0, 0, 0, 0, 0, 0, 0, 0                ; SCROLLIX = 4
03391  7530  01 00 02              BYTE 1, 0, 2, 0, 0, 0, 0, 0                ; SCROLLIX = 5
03392  7538  00 00 01              BYTE 0, 0, 1, 0, 2, 0, 0, 0                ; SCROLLIX = 6
03393  7540  01 00 02              BYTE 1, 0, 2, 0, 0, 0, 0, 0                ; SCROLLIX = 7
03394  7548  01 00 02              BYTE 1, 0, 2, 0, 0, 0, 0, 0                ; SCROLLIX = 8
03395  7550             
03396  7550             ACTION4
03397  7550  01 00 00              BYTE 1, 0, 0, 0, 2, 0, 0, 0                ; SCROLLIX = 0
03398  7558  01 00 00              BYTE 1, 0, 0, 0, 2, 0, 0, 0                ; SCROLLIX = 1
03399  7560  01 00 00              BYTE 1, 0, 0, 0, 2, 0, 0, 0                ; SCROLLIX = 2
03400  7568  01 00 00              BYTE 1, 0, 0, 0, 2, 0, 0, 0                ; SCROLLIX = 3
03401  7570  00 00 00              BYTE 0, 0, 0, 0, 0, 0, 0, 0                ; SCROLLIX = 4
03402  7578  01 00 00              BYTE 1, 0, 0, 0, 2, 0, 0, 0                ; SCROLLIX = 5
03403  7580  01 00 00              BYTE 1, 0, 0, 0, 2, 0, 0, 0                ; SCROLLIX = 6
03404  7588  01 00 00              BYTE 1, 0, 0, 0, 2, 0, 0, 0                ; SCROLLIX = 7
03405  7590  01 00 00              BYTE 1, 0, 0, 0, 2, 0, 0, 0                ; SCROLLIX = 8
03406  7598             
03407  7598             SCROLLS
03408  7598  03 03 02              BYTE 3, 3,  2, 2,  1, 1,  0, 0,  7, 7,  6, 6,  5, 5,  4, 4    ; SCROLLIX = 0
03409  75A8  04 03 04              BYTE 4, 3,  4, 2,  4, 1,  4, 0,  4, 7,  4, 6,  4, 5,  4, 4    ; SCROLLIX = 1
03410  75B8  04 03 05              BYTE 4, 3,  5, 2,  6, 1,  7, 0,  0, 7,  1, 6,  2, 5,  3, 4    ; SCROLLIX = 2
03411  75C8  03 04 02              BYTE 3, 4,  2, 4,  1, 4,  0, 4,  7, 4,  6, 4,  5, 4,  4, 4    ; SCROLLIX = 3
03412  75D8  04 04 04              BYTE 4, 4,  4, 4,  4, 4,  4, 4,  4, 4,  4, 4,  4, 4,  4, 4    ; SCROLLIX = 4
03413  75E8  05 04 06              BYTE 5, 4,  6, 4,  7, 4,  0, 4,  1, 4,  2, 4,  3, 4,  4, 4    ; SCROLLIX = 5
03414  75F8  03 04 02              BYTE 3, 4,  2, 5,  1, 6,  0, 7,  7, 0,  6, 1,  5, 2,  4, 3    ; SCROLLIX = 6
03415  7608  04 05 04              BYTE 4, 5,  4, 6,  4, 7,  4, 0,  4, 1,  4, 2,  4, 3,  4, 4    ; SCROLLIX = 7
03416  7618  05 05 06              BYTE 5, 5,  6, 6,  7, 7,  0, 0,  1, 1,  2, 2,  3, 3,  4, 4    ; SCROLLIX = 8
03417  7628             
03418  7628             SCROLLCONV 
03419  7628  04 05 06              BYTE 4, 5, 6, 7, 0, 1, 2, 3
03420  7630             
03421  7630             JMPTAB
03422  7630  4D 70 B7   JMP00      BYTE <CLR12, >CLR12, <CTB12, >CTB12        ; SCREEN = 0, SCROLLIX = 0
03423  7634  B7 71 CA   JMP01      BYTE <CTB12, >CTB12, <NOJMP, >NOJMP        ; SCREEN = 0, SCROLLIX = 1
03424  7638  CB 6F B7   JMP02      BYTE <CRL12, >CRL12, <CTB12, >CTB12        ; SCREEN = 0, SCROLLIX = 2
03425  763C  4D 70 CA   JMP03      BYTE <CLR12, >CLR12, <NOJMP, >NOJMP        ; SCREEN = 0, SCROLLIX = 3
03426  7640  CA 6F CA   JMP04      BYTE <NOJMP, >NOJMP, <NOJMP, >NOJMP        ; SCREEN = 0, SCROLLIX = 4
03427  7644  CB 6F CA   JMP05      BYTE <CRL12, >CRL12, <NOJMP, >NOJMP        ; SCREEN = 0, SCROLLIX = 5
03428  7648  4D 70 E1   JMP06      BYTE <CLR12, >CLR12, <CBT12, >CBT12        ; SCREEN = 0, SCROLLIX = 6
03429  764C  E1 70 CA   JMP07      BYTE <CBT12, >CBT12, <NOJMP, >NOJMP        ; SCREEN = 0, SCROLLIX = 7
03430  7650  CB 6F E1   JMP08      BYTE <CRL12, >CRL12, <CBT12, >CBT12        ; SCREEN = 0, SCROLLIX = 8
03431  7654  4D 70 B7   JMP10      BYTE <CLR21, >CLR21, <CTB21, >CTB21        ; SCREEN = 1, SCROLLIX = 0
03432  7658  B7 71 CA   JMP11      BYTE <CTB21, >CTB21, <NOJMP, >NOJMP        ; SCREEN = 1, SCROLLIX = 1
03433  765C  CB 6F B7   JMP12      BYTE <CRL21, >CRL21, <CTB21, >CTB21        ; SCREEN = 1, SCROLLIX = 2
03434  7660  4D 70 CA   JMP13      BYTE <CLR21, >CLR21, <NOJMP, >NOJMP        ; SCREEN = 1, SCROLLIX = 3
03435  7664  CA 6F CA   JMP14      BYTE <NOJMP, >NOJMP, <NOJMP, >NOJMP        ; SCREEN = 1, SCROLLIX = 4
03436  7668  CB 6F CA   JMP15      BYTE <CRL21, >CRL21, <NOJMP, >NOJMP        ; SCREEN = 1, SCROLLIX = 5
03437  766C  4D 70 E1   JMP16      BYTE <CLR21, >CLR21, <CBT21, >CBT21        ; SCREEN = 1, SCROLLIX = 6
03438  7670  E1 70 CA   JMP17      BYTE <CBT21, >CBT21, <NOJMP, >NOJMP        ; SCREEN = 1, SCROLLIX = 7
03439  7674  CB 6F E1   JMP18      BYTE <CRL21, >CRL21, <CBT21, >CBT21        ; SCREEN = 1, SCROLLIX = 8
03440  7678             
03441  7678             JMPTABCOL
03442  7678  1A 6C      JMPC0      BYTE <MCU, >MCU                ; SCROLLIX = 0    MCLU
03443  767A  1A 6C      JMPC1      BYTE <MCU, >MCU                ; SCROLLIX = 1
03444  767C  69 6D      JMPC2      BYTE <MCR, >MCR                ; SCROLLIX = 2    MCRU
03445  767E  BB 6C      JMPC3      BYTE <MCL, >MCL                ; SCROLLIX = 3
03446  7680  68 6D      JMPC4      BYTE <MCN, >MCN                ; SCROLLIX = 4
03447  7682  69 6D      JMPC5      BYTE <MCR, >MCR                ; SCROLLIX = 5
03448  7684  BB 6C      JMPC6      BYTE <MCL, >MCL                ; SCROLLIX = 6    MCLD
03449  7686  13 6E      JMPC7      BYTE <MCD, >MCD                ; SCROLLIX = 7
03450  7688  13 6E      JMPC8      BYTE <MCD, >MCD                ; SCROLLIX = 8    MCRD
03451  768A             
03452  768A             MAPTABLO
03453  768A  00 00 00              BYTE 0, 0, 0, 0, 0, 0, 0, 0, 0, 0, 0, 0, 0, 0, 0, 0
03454  769A  00 00 00              BYTE 0, 0, 0, 0, 0, 0, 0, 0, 0, 0, 0, 0, 0, 0, 0, 0
03455  76AA  00 00 00              BYTE 0, 0, 0, 0, 0, 0, 0, 0, 0, 0, 0, 0, 0, 0, 0, 0
03456  76BA  00 00 00              BYTE 0, 0, 0, 0, 0, 0, 0, 0, 0, 0, 0, 0, 0, 0, 0, 0
03457  76CA  00 00 00              BYTE 0, 0, 0, 0, 0, 0, 0, 0, 0, 0, 0, 0, 0, 0, 0, 0
03458  76DA  00 00 00              BYTE 0, 0, 0, 0, 0, 0, 0, 0, 0, 0, 0, 0, 0, 0, 0, 0
03459  76EA  00 00 00              BYTE 0, 0, 0, 0, 0, 0, 0, 0, 0, 0, 0, 0, 0, 0, 0, 0
03460  76FA  00 00 00              BYTE 0, 0, 0, 0, 0, 0, 0, 0, 0, 0, 0, 0, 0, 0, 0, 0
03461  770A  00 00 00              BYTE 0, 0, 0, 0, 0, 0, 0, 0, 0, 0, 0, 0, 0, 0, 0, 0
03462  771A  00 00 00              BYTE 0, 0, 0, 0, 0, 0, 0, 0, 0, 0, 0, 0, 0, 0, 0, 0
03463  772A  00 00 00              BYTE 0, 0, 0, 0, 0, 0, 0, 0, 0, 0, 0, 0, 0, 0, 0, 0
03464  773A  00 00 00              BYTE 0, 0, 0, 0, 0, 0, 0, 0, 0, 0, 0, 0, 0, 0, 0, 0
03465  774A  00 00 00              BYTE 0, 0, 0, 0, 0, 0, 0, 0, 0, 0, 0, 0, 0, 0, 0, 0
03466  775A  00 00 00              BYTE 0, 0, 0, 0, 0, 0, 0, 0, 0, 0, 0, 0, 0, 0, 0, 0
03467  776A  00 00 00              BYTE 0, 0, 0, 0, 0, 0, 0, 0, 0, 0, 0, 0, 0, 0, 0, 0
03468  777A  00 00 00              BYTE 0, 0, 0, 0, 0, 0, 0, 0, 0, 0, 0, 0, 0, 0, 0, 0
03469  778A             MAPTABHI
03470  778A  00 00 00              BYTE 0, 0, 0, 0, 0, 0, 0, 0, 0, 0, 0, 0, 0, 0, 0, 0
03471  779A  00 00 00              BYTE 0, 0, 0, 0, 0, 0, 0, 0, 0, 0, 0, 0, 0, 0, 0, 0
03472  77AA  00 00 00              BYTE 0, 0, 0, 0, 0, 0, 0, 0, 0, 0, 0, 0, 0, 0, 0, 0
03473  77BA  00 00 00              BYTE 0, 0, 0, 0, 0, 0, 0, 0, 0, 0, 0, 0, 0, 0, 0, 0
03474  77CA  00 00 00              BYTE 0, 0, 0, 0, 0, 0, 0, 0, 0, 0, 0, 0, 0, 0, 0, 0
03475  77DA  00 00 00              BYTE 0, 0, 0, 0, 0, 0, 0, 0, 0, 0, 0, 0, 0, 0, 0, 0
03476  77EA  00 00 00              BYTE 0, 0, 0, 0, 0, 0, 0, 0, 0, 0, 0, 0, 0, 0, 0, 0
03477  77FA  00 00 00              BYTE 0, 0, 0, 0, 0, 0, 0, 0, 0, 0, 0, 0, 0, 0, 0, 0
03478  780A  00 00 00              BYTE 0, 0, 0, 0, 0, 0, 0, 0, 0, 0, 0, 0, 0, 0, 0, 0
03479  781A  00 00 00              BYTE 0, 0, 0, 0, 0, 0, 0, 0, 0, 0, 0, 0, 0, 0, 0, 0
03480  782A  00 00 00              BYTE 0, 0, 0, 0, 0, 0, 0, 0, 0, 0, 0, 0, 0, 0, 0, 0
03481  783A  00 00 00              BYTE 0, 0, 0, 0, 0, 0, 0, 0, 0, 0, 0, 0, 0, 0, 0, 0
03482  784A  00 00 00              BYTE 0, 0, 0, 0, 0, 0, 0, 0, 0, 0, 0, 0, 0, 0, 0, 0
03483  785A  00 00 00              BYTE 0, 0, 0, 0, 0, 0, 0, 0, 0, 0, 0, 0, 0, 0, 0, 0
03484  786A  00 00 00              BYTE 0, 0, 0, 0, 0, 0, 0, 0, 0, 0, 0, 0, 0, 0, 0, 0
03485  787A  00 00 00              BYTE 0, 0, 0, 0, 0, 0, 0, 0, 0, 0, 0, 0, 0, 0, 0, 0
03486  788A             
03487  788A             BLKTABLO
03488  788A  00 00 00              BYTE 0, 0, 0, 0, 0, 0, 0, 0, 0, 0, 0, 0, 0, 0, 0, 0
03489  789A  00 00 00              BYTE 0, 0, 0, 0, 0, 0, 0, 0, 0, 0, 0, 0, 0, 0, 0, 0
03490  78AA  00 00 00              BYTE 0, 0, 0, 0, 0, 0, 0, 0, 0, 0, 0, 0, 0, 0, 0, 0
03491  78BA  00 00 00              BYTE 0, 0, 0, 0, 0, 0, 0, 0, 0, 0, 0, 0, 0, 0, 0, 0
03492  78CA  00 00 00              BYTE 0, 0, 0, 0, 0, 0, 0, 0, 0, 0, 0, 0, 0, 0, 0, 0
03493  78DA  00 00 00              BYTE 0, 0, 0, 0, 0, 0, 0, 0, 0, 0, 0, 0, 0, 0, 0, 0
03494  78EA  00 00 00              BYTE 0, 0, 0, 0, 0, 0, 0, 0, 0, 0, 0, 0, 0, 0, 0, 0
03495  78FA  00 00 00              BYTE 0, 0, 0, 0, 0, 0, 0, 0, 0, 0, 0, 0, 0, 0, 0, 0
03496  790A  00 00 00              BYTE 0, 0, 0, 0, 0, 0, 0, 0, 0, 0, 0, 0, 0, 0, 0, 0
03497  791A  00 00 00              BYTE 0, 0, 0, 0, 0, 0, 0, 0, 0, 0, 0, 0, 0, 0, 0, 0
03498  792A  00 00 00              BYTE 0, 0, 0, 0, 0, 0, 0, 0, 0, 0, 0, 0, 0, 0, 0, 0
03499  793A  00 00 00              BYTE 0, 0, 0, 0, 0, 0, 0, 0, 0, 0, 0, 0, 0, 0, 0, 0
03500  794A  00 00 00              BYTE 0, 0, 0, 0, 0, 0, 0, 0, 0, 0, 0, 0, 0, 0, 0, 0
03501  795A  00 00 00              BYTE 0, 0, 0, 0, 0, 0, 0, 0, 0, 0, 0, 0, 0, 0, 0, 0
03502  796A  00 00 00              BYTE 0, 0, 0, 0, 0, 0, 0, 0, 0, 0, 0, 0, 0, 0, 0, 0
03503  797A  00 00 00              BYTE 0, 0, 0, 0, 0, 0, 0, 0, 0, 0, 0, 0, 0, 0, 0, 0
03504  798A             BLKTABHI
03505  798A  00 00 00              BYTE 0, 0, 0, 0, 0, 0, 0, 0, 0, 0, 0, 0, 0, 0, 0, 0
03506  799A  00 00 00              BYTE 0, 0, 0, 0, 0, 0, 0, 0, 0, 0, 0, 0, 0, 0, 0, 0
03507  79AA  00 00 00              BYTE 0, 0, 0, 0, 0, 0, 0, 0, 0, 0, 0, 0, 0, 0, 0, 0
03508  79BA  00 00 00              BYTE 0, 0, 0, 0, 0, 0, 0, 0, 0, 0, 0, 0, 0, 0, 0, 0
03509  79CA  00 00 00              BYTE 0, 0, 0, 0, 0, 0, 0, 0, 0, 0, 0, 0, 0, 0, 0, 0
03510  79DA  00 00 00              BYTE 0, 0, 0, 0, 0, 0, 0, 0, 0, 0, 0, 0, 0, 0, 0, 0
03511  79EA  00 00 00              BYTE 0, 0, 0, 0, 0, 0, 0, 0, 0, 0, 0, 0, 0, 0, 0, 0
03512  79FA  00 00 00              BYTE 0, 0, 0, 0, 0, 0, 0, 0, 0, 0, 0, 0, 0, 0, 0, 0
03513  7A0A  00 00 00              BYTE 0, 0, 0, 0, 0, 0, 0, 0, 0, 0, 0, 0, 0, 0, 0, 0
03514  7A1A  00 00 00              BYTE 0, 0, 0, 0, 0, 0, 0, 0, 0, 0, 0, 0, 0, 0, 0, 0
03515  7A2A  00 00 00              BYTE 0, 0, 0, 0, 0, 0, 0, 0, 0, 0, 0, 0, 0, 0, 0, 0
03516  7A3A  00 00 00              BYTE 0, 0, 0, 0, 0, 0, 0, 0, 0, 0, 0, 0, 0, 0, 0, 0
03517  7A4A  00 00 00              BYTE 0, 0, 0, 0, 0, 0, 0, 0, 0, 0, 0, 0, 0, 0, 0, 0
03518  7A5A  00 00 00              BYTE 0, 0, 0, 0, 0, 0, 0, 0, 0, 0, 0, 0, 0, 0, 0, 0
03519  7A6A  00 00 00              BYTE 0, 0, 0, 0, 0, 0, 0, 0, 0, 0, 0, 0, 0, 0, 0, 0
03520  7A7A  00 00 00              BYTE 0, 0, 0, 0, 0, 0, 0, 0, 0, 0, 0, 0, 0, 0, 0, 0
03521  7A8A             
03522  7A8A             XEXPECT
03523  7A8A  01 00 FF              BYTE 1, 0, 255, 1, 0, 255, 1, 0, 255
03524  7A93             YEXPECT
03525  7A93  01 01 01              BYTE 1, 1, 1, 0, 0, 0, 255, 255, 255
03526  7A9C             
03527  7A9C             BITTABLE
03528  7A9C  01 02 04              BYTE 1, 2, 4, 8, 16, 32, 64, 128
03529  7AA4             
03530  7AA4             
03531  7AA4             PLAYER_JUMP_POS 
03532  7AA4  00                    BYTE 0
03533  7AA5             PLAYER_JUMP_TABLE 
03534  7AA5                        ;BYTE 8,8,7,5,3,2,1,1,1,0,0
03535  7AA5                        ;BYTE 8,8,8,8,3,3,2,2,1,1,1,1,0,1,0,1,0,0,0
03536  7AA5                        ;BYTE 0,10,9,8,8,7,7,6,5,5,4,3,3,2,2,1,0
03537  7AA5                        ;HEIGHT = 80, WIDTH = 64:
03538  7AA5                        ;BYTE 0,5,5,5,4,4,4,4,4,4,3,4,3,3,3,3,2,3,2,2,2,2,1,2,1,1,1,1,1,1,0,0,0
03539  7AA5                        ;HEIGHT = 56, WIDTH = 64:
03540  7AA5                        ;BYTE 0,3,3,3,3,3,3,3,3,3,2,2,2,2,2,2,2,2,2,1,1,1,1,1,1,1,1,1,0,0,0,0,0
03541  7AA5                        ;HEIGHT = 48, WIDTH = 64:
03542  7AA5  00 03 03              BYTE 0,3,3,3,3,3,2,2,2,2,2,2,2,2,2,2,2,1,1,1,1,1,1,1,1,1,1,1,0,0,0,0,0
03543  7AC6                        
03544  7AC6             PLAYER_FALL_POS 
03545  7AC6  00                    BYTE 0
03546  7AC7             FALL_SPEED_TABLE 
03547  7AC7                        ;BYTE 1,1,2,2,3,3,3,3,3,3
03548  7AC7                        ;BYTE 1,0,1,0,1,1,1,1,1,2,1,2,1,2,1,2,1,2,1,2
03549  7AC7                        ;HEIGHT = 80, WIDTH = 64:
03550  7AC7                        ;BYTE 0,0,0,1,1,1,1,1,1,2,2,2,2,3,2,3,3,3,3,4,3,4,4,4,4,4,4,5,5,5,5,5,5,5
03551  7AC7                        ;HEIGHT = 56, WIDTH = 64:
03552  7AC7                        ;BYTE 0,0,0,0,1,1,1,1,1,1,1,1,1,2,2,2,2,2,2,2,2,2,3,3,3,3,3,3,3,3,3,3,3,3
03553  7AC7                        ;HEIGHT = 48, WIDTH = 64:
03554  7AC7  00 00 00              BYTE 0,0,0,0,1,1,1,1,1,1,1,1,1,1,1,2,2,2,2,2,2,2,1,1,1,1,3,3,3,3,3,3,3,3
03555  7AE9             
03556  7AE9             
03557  7AE9             HEX2DEC
03558  7AE9  A0 30                 LDY #48
03559  7AEB  A2 30                 LDX #48
03560  7AED  C9 64      H2DL1      CMP #100
03561  7AEF  90 06                 BCC H2DL2
03562  7AF1  C8                    INY
03563  7AF2  E9 64                 SBC #100
03564  7AF4  4C ED 7A              JMP H2DL1
03565  7AF7  C9 0A      H2DL2      CMP #10
03566  7AF9  90 06                 BCC H2DL3
03567  7AFB  E8                    INX
03568  7AFC  E9 0A                 SBC #10
03569  7AFE  4C F7 7A              JMP H2DL2
03570  7B01  69 30      H2DL3      ADC #48
03571  7B03  60                    RTS
03572  7B04             
03573  7B04             
03574  7B04             
03575  7B04             ROLLCHARS
03576  7B04  A2 07                 LDX #7
03577  7B06  BD A8 CE   CPYROLL    LDA ROLLADDR11,X             ; 51880
03578  7B09  9D F1 80              STA ROLLCOPY11,X
03579  7B0C  BD 48 CE              LDA ROLLADDR12,X             ; 51784
03580  7B0F  9D F9 80              STA ROLLCOPY12,X
03581  7B12  BD 50 CE              LDA ROLLADDR21,X             ; 51792
03582  7B15  9D 01 81              STA ROLLCOPY21,X
03583  7B18  BD 58 CE              LDA ROLLADDR22,X             ; 51800
03584  7B1B  9D 09 81              STA ROLLCOPY22,X
03585  7B1E  CA                    DEX
03586  7B1F  10 E5                 BPL CPYROLL
03587  7B21             
03588  7B21  AD 66 74              LDA SCROLLIX
03589  7B24  C9 05                 CMP #5
03590  7B26  D0 06                 BNE SKIP1
03591  7B28  20 7E 7B              JSR RLEFTR
03592  7B2B  4C 7D 7B              JMP SKIPX
03593  7B2E  C9 03      SKIP1      CMP #3
03594  7B30  D0 06                 BNE SKIP2
03595  7B32  20 98 7B              JSR RRIGHTL
03596  7B35  4C 7D 7B              JMP SKIPX
03597  7B38  C9 01      SKIP2      CMP #1
03598  7B3A  D0 06                 BNE SKIP3
03599  7B3C  20 FE 7B              JSR RDOWNU
03600  7B3F  4C 7D 7B              JMP SKIPX
03601  7B42  C9 07      SKIP3      CMP #7
03602  7B44  D0 06                 BNE SKIP4
03603  7B46  20 B2 7B              JSR RUPD
03604  7B49  4C 7D 7B              JMP SKIPX
03605  7B4C  C9 08      SKIP4      CMP #8
03606  7B4E  D0 09                 BNE SKIP5
03607  7B50  20 7E 7B              JSR RLEFTR
03608  7B53  20 B2 7B              JSR RUPD
03609  7B56  4C 7D 7B              JMP SKIPX
03610  7B59  C9 06      SKIP5      CMP #6
03611  7B5B  D0 09                 BNE SKIP6
03612  7B5D  20 98 7B              JSR RRIGHTL
03613  7B60  20 B2 7B              JSR RUPD
03614  7B63  4C 7D 7B              JMP SKIPX
03615  7B66  C9 02      SKIP6      CMP #2
03616  7B68  D0 09                 BNE SKIP7
03617  7B6A  20 7E 7B              JSR RLEFTR
03618  7B6D  20 FE 7B              JSR RDOWNU
03619  7B70  4C 7D 7B              JMP SKIPX
03620  7B73  C9 00      SKIP7      CMP #0
03621  7B75  D0 06                 BNE SKIPX
03622  7B77  20 98 7B              JSR RRIGHTL
03623  7B7A  20 FE 7B              JSR RDOWNU
03624  7B7D  60         SKIPX      RTS
03625  7B7E             
03626  7B7E             
03627  7B7E  A2 07      RLEFTR     LDX #7
03628  7B80  BD F1 80   RLOOPR     LDA ROLLCOPY11,X             ; 51880
03629  7B83  0A                    ASL
03630  7B84  3E F9 80              ROL ROLLCOPY12,X             ; 51784
03631  7B87  3E F1 80              ROL ROLLCOPY11,X             ; 51880
03632  7B8A  BD 01 81              LDA ROLLCOPY21,X             ; 51792
03633  7B8D  0A                    ASL
03634  7B8E  3E 09 81              ROL ROLLCOPY22,X             ; 51800
03635  7B91  3E 01 81              ROL ROLLCOPY21,X             ; 51792
03636  7B94  CA                    DEX
03637  7B95  10 E9                 BPL RLOOPR
03638  7B97  60                    RTS
03639  7B98             
03640  7B98             
03641  7B98  A2 07      RRIGHTL    LDX #7
03642  7B9A  BD F9 80   RLOOPL     LDA ROLLCOPY12,X             ; 51784
03643  7B9D  4A                    LSR
03644  7B9E  7E F1 80              ROR ROLLCOPY11,X             ; 51880
03645  7BA1  7E F9 80              ROR ROLLCOPY12,X             ; 51784
03646  7BA4  BD 09 81              LDA ROLLCOPY22,X             ; 51800
03647  7BA7  4A                    LSR
03648  7BA8  7E 01 81              ROR ROLLCOPY21,X             ; 51792
03649  7BAB  7E 09 81              ROR ROLLCOPY22,X             ; 51800
03650  7BAE  CA                    DEX
03651  7BAF  10 E9                 BPL RLOOPL
03652  7BB1  60                    RTS
03653  7BB2             
03654  7BB2             
03655  7BB2  AD F1 80   RUPD       LDA ROLLCOPY11               ; 51880
03656  7BB5  8D EA 7B              STA SAVEAD+1
03657  7BB8  AD 01 81              LDA ROLLCOPY21               ; 51792
03658  7BBB  8D EF 7B              STA SAVECD+1
03659  7BBE  AD F9 80              LDA ROLLCOPY12               ; 51784
03660  7BC1  8D F4 7B              STA SAVEBD+1
03661  7BC4  AD 09 81              LDA ROLLCOPY22               ; 51800
03662  7BC7  8D F9 7B              STA SAVEDD+1
03663  7BCA  A2 00                 LDX #0
03664  7BCC  BD F2 80   RLOOPD     LDA ROLLCOPY11+1,X           ; 51880
03665  7BCF  9D F1 80              STA ROLLCOPY11,X             ; 51880
03666  7BD2  BD 02 81              LDA ROLLCOPY21+1,X           ; 51792
03667  7BD5  9D 01 81              STA ROLLCOPY21,X             ; 51792
03668  7BD8  BD FA 80              LDA ROLLCOPY12+1,X           ; 51784
03669  7BDB  9D F9 80              STA ROLLCOPY12,X             ; 51784
03670  7BDE  BD 0A 81              LDA ROLLCOPY22+1,X           ; 51800
03671  7BE1  9D 09 81              STA ROLLCOPY22,X             ; 51800
03672  7BE4  E8                    INX
03673  7BE5  E0 07                 CPX #7
03674  7BE7  D0 E3                 BNE RLOOPD
03675  7BE9  A9 00      SAVEAD     LDA #0
03676  7BEB  8D 08 81              STA ROLLCOPY21+7             ; 51792
03677  7BEE  A9 00      SAVECD     LDA #0
03678  7BF0  8D F8 80              STA ROLLCOPY11+7             ; 51880
03679  7BF3  A9 00      SAVEBD     LDA #0
03680  7BF5  8D 10 81              STA ROLLCOPY22+7             ; 51800
03681  7BF8  A9 00      SAVEDD     LDA #0
03682  7BFA  8D 00 81              STA ROLLCOPY12+7             ; 51784
03683  7BFD  60                    RTS
03684  7BFE             
03685  7BFE             
03686  7BFE  AD F8 80   RDOWNU     LDA ROLLCOPY11+7             ; 51880
03687  7C01  8D 34 7C              STA SAVEAU+1
03688  7C04  AD 08 81              LDA ROLLCOPY21+7             ; 51792
03689  7C07  8D 39 7C              STA SAVECU+1
03690  7C0A  AD 00 81              LDA ROLLCOPY12+7             ; 51784
03691  7C0D  8D 3E 7C              STA SAVEBU+1
03692  7C10  AD 10 81              LDA ROLLCOPY22+7             ; 51800
03693  7C13  8D 43 7C              STA SAVEDU+1
03694  7C16  A2 06                 LDX #6
03695  7C18  BD F1 80   RLOOPU     LDA ROLLCOPY11,X             ; 51880
03696  7C1B  9D F2 80              STA ROLLCOPY11+1,X           ; 51880
03697  7C1E  BD 01 81              LDA ROLLCOPY21,X             ; 51792
03698  7C21  9D 02 81              STA ROLLCOPY21+1,X           ; 51792
03699  7C24  BD F9 80              LDA ROLLCOPY12,X             ; 51784
03700  7C27  9D FA 80              STA ROLLCOPY12+1,X           ; 51784
03701  7C2A  BD 09 81              LDA ROLLCOPY22,X             ; 51800
03702  7C2D  9D 0A 81              STA ROLLCOPY22+1,X           ; 51800
03703  7C30  CA                    DEX
03704  7C31  10 E5                 BPL RLOOPU
03705  7C33  A9 00      SAVEAU     LDA #0
03706  7C35  8D 01 81              STA ROLLCOPY21               ; 51792
03707  7C38  A9 00      SAVECU     LDA #0
03708  7C3A  8D F1 80              STA ROLLCOPY11               ; 51880
03709  7C3D  A9 00      SAVEBU     LDA #0
03710  7C3F  8D 09 81              STA ROLLCOPY22               ; 51800
03711  7C42  A9 00      SAVEDU     LDA #0
03712  7C44  8D F9 80              STA ROLLCOPY12               ; 51784
03713  7C47  60                    RTS
03714  7C48             
03715  7C48             
03716  7C48             
03717  7C48             
03718  7C48             ROLLCHARS4 
03719  7C48  A2 07                 LDX #7
03720  7C4A  BD A8 CE   CPYROL4    LDA ROLLADDR11,X             ; 51880
03721  7C4D  9D F1 80              STA ROLLCOPY11,X
03722  7C50  BD 48 CE              LDA ROLLADDR12,X             ; 51784
03723  7C53  9D F9 80              STA ROLLCOPY12,X
03724  7C56  BD 50 CE              LDA ROLLADDR21,X             ; 51792
03725  7C59  9D 01 81              STA ROLLCOPY21,X
03726  7C5C  BD 58 CE              LDA ROLLADDR22,X             ; 51800
03727  7C5F  9D 09 81              STA ROLLCOPY22,X
03728  7C62  CA                    DEX
03729  7C63  10 E5                 BPL CPYROL4
03730  7C65             
03731  7C65  AD 66 74              LDA SCROLLIX
03732  7C68  C9 02                 CMP #2
03733  7C6A  D0 09                 BNE SKIP1S4
03734  7C6C  20 C5 7C              JSR RLEFTR4
03735  7C6F  20 1C 80              JSR RDOWNU4
03736  7C72  4C C4 7C              JMP SKIPXS4
03737  7C75  C9 00      SKIP1S4    CMP #0
03738  7C77  D0 09                 BNE SKIP2S4
03739  7C79  20 06 7E              JSR RRIGHTL4
03740  7C7C  20 1C 80              JSR RDOWNU4
03741  7C7F  4C C4 7C              JMP SKIPXS4
03742  7C82  C9 05      SKIP2S4    CMP #5
03743  7C84  D0 06                 BNE SKIP3S4
03744  7C86  20 C5 7C              JSR RLEFTR4
03745  7C89  4C C4 7C              JMP SKIPXS4
03746  7C8C  C9 03      SKIP3S4    CMP #3
03747  7C8E  D0 06                 BNE SKIP4S4
03748  7C90  20 06 7E              JSR RRIGHTL4
03749  7C93  4C C4 7C              JMP SKIPXS4
03750  7C96  C9 01      SKIP4S4    CMP #1
03751  7C98  D0 06                 BNE SKIP5S4
03752  7C9A  20 1C 80              JSR RDOWNU4
03753  7C9D  4C C4 7C              JMP SKIPXS4
03754  7CA0  C9 07      SKIP5S4    CMP #7
03755  7CA2  D0 06                 BNE SKIP6S4
03756  7CA4  20 47 7F              JSR RUPD4
03757  7CA7  4C C4 7C              JMP SKIPXS4
03758  7CAA  C9 08      SKIP6S4    CMP #8
03759  7CAC  D0 09                 BNE SKIP7S4
03760  7CAE  20 C5 7C              JSR RLEFTR4
03761  7CB1  20 47 7F              JSR RUPD4
03762  7CB4  4C C4 7C              JMP SKIPXS4
03763  7CB7  C9 06      SKIP7S4    CMP #6
03764  7CB9  D0 09                 BNE SKIPXS4
03765  7CBB  20 06 7E              JSR RRIGHTL4
03766  7CBE  20 47 7F              JSR RUPD4
03767  7CC1  4C C4 7C              JMP SKIPXS4
03768  7CC4  60         SKIPXS4    RTS
03769  7CC5             
03770  7CC5             
03771  7CC5             RLEFTR4
03772  7CC5  AD F8 80              LDA ROLLCOPY11+7             ; 51880
03773  7CC8  0A                    ASL
03774  7CC9  2E 00 81              ROL ROLLCOPY12+7             ; 51784
03775  7CCC  2E F8 80              ROL ROLLCOPY11+7             ; 51880
03776  7CCF  AD F8 80              LDA ROLLCOPY11+7             ; 51880
03777  7CD2  0A                    ASL
03778  7CD3  2E 00 81              ROL ROLLCOPY12+7             ; 51784
03779  7CD6  2E F8 80              ROL ROLLCOPY11+7             ; 51880
03780  7CD9  AD 08 81              LDA ROLLCOPY21+7             ; 51792
03781  7CDC  0A                    ASL
03782  7CDD  2E 10 81              ROL ROLLCOPY22+7             ; 51800
03783  7CE0  2E 08 81              ROL ROLLCOPY21+7             ; 51792
03784  7CE3  AD 08 81              LDA ROLLCOPY21+7             ; 51792
03785  7CE6  0A                    ASL
03786  7CE7  2E 10 81              ROL ROLLCOPY22+7             ; 51800
03787  7CEA  2E 08 81              ROL ROLLCOPY21+7             ; 51792
03788  7CED             
03789  7CED  AD F7 80              LDA ROLLCOPY11+6             ; 51880
03790  7CF0  0A                    ASL
03791  7CF1  2E FF 80              ROL ROLLCOPY12+6             ; 51784
03792  7CF4  2E F7 80              ROL ROLLCOPY11+6             ; 51880
03793  7CF7  AD F7 80              LDA ROLLCOPY11+6             ; 51880
03794  7CFA  0A                    ASL
03795  7CFB  2E FF 80              ROL ROLLCOPY12+6             ; 51784
03796  7CFE  2E F7 80              ROL ROLLCOPY11+6             ; 51880
03797  7D01  AD 07 81              LDA ROLLCOPY21+6             ; 51792
03798  7D04  0A                    ASL
03799  7D05  2E 0F 81              ROL ROLLCOPY22+6             ; 51800
03800  7D08  2E 07 81              ROL ROLLCOPY21+6             ; 51792
03801  7D0B  AD 07 81              LDA ROLLCOPY21+6             ; 51792
03802  7D0E  0A                    ASL
03803  7D0F  2E 0F 81              ROL ROLLCOPY22+6             ; 51800
03804  7D12  2E 07 81              ROL ROLLCOPY21+6             ; 51792
03805  7D15             
03806  7D15  AD F6 80              LDA ROLLCOPY11+5             ; 51880
03807  7D18  0A                    ASL
03808  7D19  2E FE 80              ROL ROLLCOPY12+5             ; 51784
03809  7D1C  2E F6 80              ROL ROLLCOPY11+5             ; 51880
03810  7D1F  AD F6 80              LDA ROLLCOPY11+5             ; 51880
03811  7D22  0A                    ASL
03812  7D23  2E FE 80              ROL ROLLCOPY12+5             ; 51784
03813  7D26  2E F6 80              ROL ROLLCOPY11+5             ; 51880
03814  7D29  AD 06 81              LDA ROLLCOPY21+5             ; 51792
03815  7D2C  0A                    ASL
03816  7D2D  2E 0E 81              ROL ROLLCOPY22+5             ; 51800
03817  7D30  2E 06 81              ROL ROLLCOPY21+5             ; 51792
03818  7D33  AD 06 81              LDA ROLLCOPY21+5             ; 51792
03819  7D36  0A                    ASL
03820  7D37  2E 0E 81              ROL ROLLCOPY22+5             ; 51800
03821  7D3A  2E 06 81              ROL ROLLCOPY21+5             ; 51792
03822  7D3D             
03823  7D3D  AD F5 80              LDA ROLLCOPY11+4             ; 51880
03824  7D40  0A                    ASL
03825  7D41  2E FD 80              ROL ROLLCOPY12+4             ; 51784
03826  7D44  2E F5 80              ROL ROLLCOPY11+4             ; 51880
03827  7D47  AD F5 80              LDA ROLLCOPY11+4             ; 51880
03828  7D4A  0A                    ASL
03829  7D4B  2E FD 80              ROL ROLLCOPY12+4             ; 51784
03830  7D4E  2E F5 80              ROL ROLLCOPY11+4             ; 51880
03831  7D51  AD 05 81              LDA ROLLCOPY21+4             ; 51792
03832  7D54  0A                    ASL
03833  7D55  2E 0D 81              ROL ROLLCOPY22+4             ; 51800
03834  7D58  2E 05 81              ROL ROLLCOPY21+4             ; 51792
03835  7D5B  AD 05 81              LDA ROLLCOPY21+4             ; 51792
03836  7D5E  0A                    ASL
03837  7D5F  2E 0D 81              ROL ROLLCOPY22+4             ; 51800
03838  7D62  2E 05 81              ROL ROLLCOPY21+4             ; 51792
03839  7D65             
03840  7D65  AD F4 80              LDA ROLLCOPY11+3             ; 51880
03841  7D68  0A                    ASL
03842  7D69  2E FC 80              ROL ROLLCOPY12+3             ; 51784
03843  7D6C  2E F4 80              ROL ROLLCOPY11+3             ; 51880
03844  7D6F  AD F4 80              LDA ROLLCOPY11+3             ; 51880
03845  7D72  0A                    ASL
03846  7D73  2E FC 80              ROL ROLLCOPY12+3             ; 51784
03847  7D76  2E F4 80              ROL ROLLCOPY11+3             ; 51880
03848  7D79  AD 04 81              LDA ROLLCOPY21+3             ; 51792
03849  7D7C  0A                    ASL
03850  7D7D  2E 0C 81              ROL ROLLCOPY22+3             ; 51800
03851  7D80  2E 04 81              ROL ROLLCOPY21+3             ; 51792
03852  7D83  AD 04 81              LDA ROLLCOPY21+3             ; 51792
03853  7D86  0A                    ASL
03854  7D87  2E 0C 81              ROL ROLLCOPY22+3             ; 51800
03855  7D8A  2E 04 81              ROL ROLLCOPY21+3             ; 51792
03856  7D8D             
03857  7D8D  AD F3 80              LDA ROLLCOPY11+2             ; 51880
03858  7D90  0A                    ASL
03859  7D91  2E FB 80              ROL ROLLCOPY12+2             ; 51784
03860  7D94  2E F3 80              ROL ROLLCOPY11+2             ; 51880
03861  7D97  AD F3 80              LDA ROLLCOPY11+2             ; 51880
03862  7D9A  0A                    ASL
03863  7D9B  2E FB 80              ROL ROLLCOPY12+2             ; 51784
03864  7D9E  2E F3 80              ROL ROLLCOPY11+2             ; 51880
03865  7DA1  AD 03 81              LDA ROLLCOPY21+2             ; 51792
03866  7DA4  0A                    ASL
03867  7DA5  2E 0B 81              ROL ROLLCOPY22+2             ; 51800
03868  7DA8  2E 03 81              ROL ROLLCOPY21+2             ; 51792
03869  7DAB  AD 03 81              LDA ROLLCOPY21+2             ; 51792
03870  7DAE  0A                    ASL
03871  7DAF  2E 0B 81              ROL ROLLCOPY22+2             ; 51800
03872  7DB2  2E 03 81              ROL ROLLCOPY21+2             ; 51792
03873  7DB5             
03874  7DB5  AD F2 80              LDA ROLLCOPY11+1             ; 51880
03875  7DB8  0A                    ASL
03876  7DB9  2E FA 80              ROL ROLLCOPY12+1             ; 51784
03877  7DBC  2E F2 80              ROL ROLLCOPY11+1             ; 51880
03878  7DBF  AD F2 80              LDA ROLLCOPY11+1             ; 51880
03879  7DC2  0A                    ASL
03880  7DC3  2E FA 80              ROL ROLLCOPY12+1             ; 51784
03881  7DC6  2E F2 80              ROL ROLLCOPY11+1             ; 51880
03882  7DC9  AD 02 81              LDA ROLLCOPY21+1             ; 51792
03883  7DCC  0A                    ASL
03884  7DCD  2E 0A 81              ROL ROLLCOPY22+1             ; 51800
03885  7DD0  2E 02 81              ROL ROLLCOPY21+1             ; 51792
03886  7DD3  AD 02 81              LDA ROLLCOPY21+1             ; 51792
03887  7DD6  0A                    ASL
03888  7DD7  2E 0A 81              ROL ROLLCOPY22+1             ; 51800
03889  7DDA  2E 02 81              ROL ROLLCOPY21+1             ; 51792
03890  7DDD             
03891  7DDD  AD F1 80              LDA ROLLCOPY11+0             ; 51880
03892  7DE0  0A                    ASL
03893  7DE1  2E F9 80              ROL ROLLCOPY12+0             ; 51784
03894  7DE4  2E F1 80              ROL ROLLCOPY11+0             ; 51880
03895  7DE7  AD F1 80              LDA ROLLCOPY11+0             ; 51880
03896  7DEA  0A                    ASL
03897  7DEB  2E F9 80              ROL ROLLCOPY12+0             ; 51784
03898  7DEE  2E F1 80              ROL ROLLCOPY11+0             ; 51880
03899  7DF1  AD 01 81              LDA ROLLCOPY21+0             ; 51792
03900  7DF4  0A                    ASL
03901  7DF5  2E 09 81              ROL ROLLCOPY22+0             ; 51800
03902  7DF8  2E 01 81              ROL ROLLCOPY21+0             ; 51792
03903  7DFB  AD 01 81              LDA ROLLCOPY21+0             ; 51792
03904  7DFE  0A                    ASL
03905  7DFF  2E 09 81              ROL ROLLCOPY22+0             ; 51800
03906  7E02  2E 01 81              ROL ROLLCOPY21+0             ; 51792
03907  7E05  60                    RTS
03908  7E06             
03909  7E06             
03910  7E06             RRIGHTL4
03911  7E06  AD 00 81              LDA ROLLCOPY12+7             ; 51784
03912  7E09  4A                    LSR
03913  7E0A  6E F8 80              ROR ROLLCOPY11+7             ; 51880
03914  7E0D  6E 00 81              ROR ROLLCOPY12+7             ; 51784
03915  7E10  AD 00 81              LDA ROLLCOPY12+7             ; 51784
03916  7E13  4A                    LSR
03917  7E14  6E F8 80              ROR ROLLCOPY11+7             ; 51880
03918  7E17  6E 00 81              ROR ROLLCOPY12+7             ; 51784
03919  7E1A  AD 10 81              LDA ROLLCOPY22+7             ; 51800
03920  7E1D  4A                    LSR
03921  7E1E  6E 08 81              ROR ROLLCOPY21+7             ; 51792
03922  7E21  6E 10 81              ROR ROLLCOPY22+7             ; 51800
03923  7E24  AD 10 81              LDA ROLLCOPY22+7             ; 51800
03924  7E27  4A                    LSR
03925  7E28  6E 08 81              ROR ROLLCOPY21+7             ; 51792
03926  7E2B  6E 10 81              ROR ROLLCOPY22+7             ; 51800
03927  7E2E             
03928  7E2E  AD FF 80              LDA ROLLCOPY12+6             ; 51784
03929  7E31  4A                    LSR
03930  7E32  6E F7 80              ROR ROLLCOPY11+6             ; 51880
03931  7E35  6E FF 80              ROR ROLLCOPY12+6             ; 51784
03932  7E38  AD FF 80              LDA ROLLCOPY12+6             ; 51784
03933  7E3B  4A                    LSR
03934  7E3C  6E F7 80              ROR ROLLCOPY11+6             ; 51880
03935  7E3F  6E FF 80              ROR ROLLCOPY12+6             ; 51784
03936  7E42  AD 0F 81              LDA ROLLCOPY22+6             ; 51800
03937  7E45  4A                    LSR
03938  7E46  6E 07 81              ROR ROLLCOPY21+6             ; 51792
03939  7E49  6E 0F 81              ROR ROLLCOPY22+6             ; 51800
03940  7E4C  AD 0F 81              LDA ROLLCOPY22+6             ; 51800
03941  7E4F  4A                    LSR
03942  7E50  6E 07 81              ROR ROLLCOPY21+6             ; 51792
03943  7E53  6E 0F 81              ROR ROLLCOPY22+6             ; 51800
03944  7E56             
03945  7E56  AD FE 80              LDA ROLLCOPY12+5             ; 51784
03946  7E59  4A                    LSR
03947  7E5A  6E F6 80              ROR ROLLCOPY11+5             ; 51880
03948  7E5D  6E FE 80              ROR ROLLCOPY12+5             ; 51784
03949  7E60  AD FE 80              LDA ROLLCOPY12+5             ; 51784
03950  7E63  4A                    LSR
03951  7E64  6E F6 80              ROR ROLLCOPY11+5             ; 51880
03952  7E67  6E FE 80              ROR ROLLCOPY12+5             ; 51784
03953  7E6A  AD 0E 81              LDA ROLLCOPY22+5             ; 51800
03954  7E6D  4A                    LSR
03955  7E6E  6E 06 81              ROR ROLLCOPY21+5             ; 51792
03956  7E71  6E 0E 81              ROR ROLLCOPY22+5             ; 51800
03957  7E74  AD 0E 81              LDA ROLLCOPY22+5             ; 51800
03958  7E77  4A                    LSR
03959  7E78  6E 06 81              ROR ROLLCOPY21+5             ; 51792
03960  7E7B  6E 0E 81              ROR ROLLCOPY22+5             ; 51800
03961  7E7E             
03962  7E7E  AD FD 80              LDA ROLLCOPY12+4             ; 51784
03963  7E81  4A                    LSR
03964  7E82  6E F5 80              ROR ROLLCOPY11+4             ; 51880
03965  7E85  6E FD 80              ROR ROLLCOPY12+4             ; 51784
03966  7E88  AD FD 80              LDA ROLLCOPY12+4             ; 51784
03967  7E8B  4A                    LSR
03968  7E8C  6E F5 80              ROR ROLLCOPY11+4             ; 51880
03969  7E8F  6E FD 80              ROR ROLLCOPY12+4             ; 51784
03970  7E92  AD 0D 81              LDA ROLLCOPY22+4             ; 51800
03971  7E95  4A                    LSR
03972  7E96  6E 05 81              ROR ROLLCOPY21+4             ; 51792
03973  7E99  6E 0D 81              ROR ROLLCOPY22+4             ; 51800
03974  7E9C  AD 0D 81              LDA ROLLCOPY22+4             ; 51800
03975  7E9F  4A                    LSR
03976  7EA0  6E 05 81              ROR ROLLCOPY21+4             ; 51792
03977  7EA3  6E 0D 81              ROR ROLLCOPY22+4             ; 51800
03978  7EA6             
03979  7EA6  AD FC 80              LDA ROLLCOPY12+3             ; 51784
03980  7EA9  4A                    LSR
03981  7EAA  6E F4 80              ROR ROLLCOPY11+3             ; 51880
03982  7EAD  6E FC 80              ROR ROLLCOPY12+3             ; 51784
03983  7EB0  AD FC 80              LDA ROLLCOPY12+3             ; 51784
03984  7EB3  4A                    LSR
03985  7EB4  6E F4 80              ROR ROLLCOPY11+3             ; 51880
03986  7EB7  6E FC 80              ROR ROLLCOPY12+3             ; 51784
03987  7EBA  AD 0C 81              LDA ROLLCOPY22+3             ; 51800
03988  7EBD  4A                    LSR
03989  7EBE  6E 04 81              ROR ROLLCOPY21+3             ; 51792
03990  7EC1  6E 0C 81              ROR ROLLCOPY22+3             ; 51800
03991  7EC4  AD 0C 81              LDA ROLLCOPY22+3             ; 51800
03992  7EC7  4A                    LSR
03993  7EC8  6E 04 81              ROR ROLLCOPY21+3             ; 51792
03994  7ECB  6E 0C 81              ROR ROLLCOPY22+3             ; 51800
03995  7ECE             
03996  7ECE  AD FB 80              LDA ROLLCOPY12+2             ; 51784
03997  7ED1  4A                    LSR
03998  7ED2  6E F3 80              ROR ROLLCOPY11+2             ; 51880
03999  7ED5  6E FB 80              ROR ROLLCOPY12+2             ; 51784
04000  7ED8  AD FB 80              LDA ROLLCOPY12+2             ; 51784
04001  7EDB  4A                    LSR
04002  7EDC  6E F3 80              ROR ROLLCOPY11+2             ; 51880
04003  7EDF  6E FB 80              ROR ROLLCOPY12+2             ; 51784
04004  7EE2  AD 0B 81              LDA ROLLCOPY22+2             ; 51800
04005  7EE5  4A                    LSR
04006  7EE6  6E 03 81              ROR ROLLCOPY21+2             ; 51792
04007  7EE9  6E 0B 81              ROR ROLLCOPY22+2             ; 51800
04008  7EEC  AD 0B 81              LDA ROLLCOPY22+2             ; 51800
04009  7EEF  4A                    LSR
04010  7EF0  6E 03 81              ROR ROLLCOPY21+2             ; 51792
04011  7EF3  6E 0B 81              ROR ROLLCOPY22+2             ; 51800
04012  7EF6             
04013  7EF6  AD FA 80              LDA ROLLCOPY12+1             ; 51784
04014  7EF9  4A                    LSR
04015  7EFA  6E F2 80              ROR ROLLCOPY11+1             ; 51880
04016  7EFD  6E FA 80              ROR ROLLCOPY12+1             ; 51784
04017  7F00  AD FA 80              LDA ROLLCOPY12+1             ; 51784
04018  7F03  4A                    LSR
04019  7F04  6E F2 80              ROR ROLLCOPY11+1             ; 51880
04020  7F07  6E FA 80              ROR ROLLCOPY12+1             ; 51784
04021  7F0A  AD 0A 81              LDA ROLLCOPY22+1             ; 51800
04022  7F0D  4A                    LSR
04023  7F0E  6E 02 81              ROR ROLLCOPY21+1             ; 51792
04024  7F11  6E 0A 81              ROR ROLLCOPY22+1             ; 51800
04025  7F14  AD 0A 81              LDA ROLLCOPY22+1             ; 51800
04026  7F17  4A                    LSR
04027  7F18  6E 02 81              ROR ROLLCOPY21+1             ; 51792
04028  7F1B  6E 0A 81              ROR ROLLCOPY22+1             ; 51800
04029  7F1E             
04030  7F1E  AD F9 80              LDA ROLLCOPY12+0             ; 51784
04031  7F21  4A                    LSR
04032  7F22  6E F1 80              ROR ROLLCOPY11+0             ; 51880
04033  7F25  6E F9 80              ROR ROLLCOPY12+0             ; 51784
04034  7F28  AD F9 80              LDA ROLLCOPY12+0             ; 51784
04035  7F2B  4A                    LSR
04036  7F2C  6E F1 80              ROR ROLLCOPY11+0             ; 51880
04037  7F2F  6E F9 80              ROR ROLLCOPY12+0             ; 51784
04038  7F32  AD 09 81              LDA ROLLCOPY22+0             ; 51800
04039  7F35  4A                    LSR
04040  7F36  6E 01 81              ROR ROLLCOPY21+0             ; 51792
04041  7F39  6E 09 81              ROR ROLLCOPY22+0             ; 51800
04042  7F3C  AD 09 81              LDA ROLLCOPY22+0             ; 51800
04043  7F3F  4A                    LSR
04044  7F40  6E 01 81              ROR ROLLCOPY21+0             ; 51792
04045  7F43  6E 09 81              ROR ROLLCOPY22+0             ; 51800
04046  7F46  60                    RTS
04047  7F47             
04048  7F47             
04049  7F47             RUPD4
04050  7F47  AD F1 80              LDA ROLLCOPY11
04051  7F4A  8D A8 7F              STA A0+1
04052  7F4D  AD F2 80              LDA ROLLCOPY11+1
04053  7F50  8D AD 7F              STA A1+1
04054  7F53             
04055  7F53  AD F3 80              LDA ROLLCOPY11+2
04056  7F56  8D F1 80              STA ROLLCOPY11
04057  7F59  AD F4 80              LDA ROLLCOPY11+3
04058  7F5C  8D F2 80              STA ROLLCOPY11+1
04059  7F5F  AD F5 80              LDA ROLLCOPY11+4
04060  7F62  8D F3 80              STA ROLLCOPY11+2
04061  7F65  AD F6 80              LDA ROLLCOPY11+5
04062  7F68  8D F4 80              STA ROLLCOPY11+3
04063  7F6B  AD F7 80              LDA ROLLCOPY11+6
04064  7F6E  8D F5 80              STA ROLLCOPY11+4
04065  7F71  AD F8 80              LDA ROLLCOPY11+7
04066  7F74  8D F6 80              STA ROLLCOPY11+5
04067  7F77             
04068  7F77  AD 01 81              LDA ROLLCOPY21
04069  7F7A  8D F7 80              STA ROLLCOPY11+6
04070  7F7D  AD 02 81              LDA ROLLCOPY21+1
04071  7F80  8D F8 80              STA ROLLCOPY11+7
04072  7F83             
04073  7F83  AD 03 81              LDA ROLLCOPY21+2
04074  7F86  8D 01 81              STA ROLLCOPY21
04075  7F89  AD 04 81              LDA ROLLCOPY21+3
04076  7F8C  8D 02 81              STA ROLLCOPY21+1
04077  7F8F  AD 05 81              LDA ROLLCOPY21+4
04078  7F92  8D 03 81              STA ROLLCOPY21+2
04079  7F95  AD 06 81              LDA ROLLCOPY21+5
04080  7F98  8D 04 81              STA ROLLCOPY21+3
04081  7F9B  AD 07 81              LDA ROLLCOPY21+6
04082  7F9E  8D 05 81              STA ROLLCOPY21+4
04083  7FA1  AD 08 81              LDA ROLLCOPY21+7
04084  7FA4  8D 06 81              STA ROLLCOPY21+5
04085  7FA7             
04086  7FA7  A9 00      A0         LDA #0
04087  7FA9  8D 07 81              STA ROLLCOPY21+6
04088  7FAC  A9 00      A1         LDA #0
04089  7FAE  8D 08 81              STA ROLLCOPY21+7
04090  7FB1             
04091  7FB1  AD F9 80              LDA ROLLCOPY12
04092  7FB4  8D 12 80              STA B0+1
04093  7FB7  AD FA 80              LDA ROLLCOPY12+1
04094  7FBA  8D 17 80              STA B1+1
04095  7FBD             
04096  7FBD  AD FB 80              LDA ROLLCOPY12+2
04097  7FC0  8D F9 80              STA ROLLCOPY12
04098  7FC3  AD FC 80              LDA ROLLCOPY12+3
04099  7FC6  8D FA 80              STA ROLLCOPY12+1
04100  7FC9  AD FD 80              LDA ROLLCOPY12+4
04101  7FCC  8D FB 80              STA ROLLCOPY12+2
04102  7FCF  AD FE 80              LDA ROLLCOPY12+5
04103  7FD2  8D FC 80              STA ROLLCOPY12+3
04104  7FD5  AD FF 80              LDA ROLLCOPY12+6
04105  7FD8  8D FD 80              STA ROLLCOPY12+4
04106  7FDB  AD 00 81              LDA ROLLCOPY12+7
04107  7FDE  8D FE 80              STA ROLLCOPY12+5
04108  7FE1             
04109  7FE1  AD 09 81              LDA ROLLCOPY22
04110  7FE4  8D FF 80              STA ROLLCOPY12+6
04111  7FE7  AD 0A 81              LDA ROLLCOPY22+1
04112  7FEA  8D 00 81              STA ROLLCOPY12+7
04113  7FED             
04114  7FED  AD 0B 81              LDA ROLLCOPY22+2
04115  7FF0  8D 09 81              STA ROLLCOPY22
04116  7FF3  AD 0C 81              LDA ROLLCOPY22+3
04117  7FF6  8D 0A 81              STA ROLLCOPY22+1
04118  7FF9  AD 0D 81              LDA ROLLCOPY22+4
04119  7FFC  8D 0B 81              STA ROLLCOPY22+2
04120  7FFF  AD 0E 81              LDA ROLLCOPY22+5
04121  8002  8D 0C 81              STA ROLLCOPY22+3
04122  8005  AD 0F 81              LDA ROLLCOPY22+6
04123  8008  8D 0D 81              STA ROLLCOPY22+4
04124  800B  AD 10 81              LDA ROLLCOPY22+7
04125  800E  8D 0E 81              STA ROLLCOPY22+5
04126  8011             
04127  8011  A9 00      B0         LDA #0
04128  8013  8D 0F 81              STA ROLLCOPY22+6
04129  8016  A9 00      B1         LDA #0
04130  8018  8D 10 81              STA ROLLCOPY22+7
04131  801B             
04132  801B  60                    RTS
04133  801C             
04134  801C             
04135  801C             RDOWNU4
04136  801C  AD 08 81              LDA ROLLCOPY21+7
04137  801F  8D 7D 80              STA C7+1
04138  8022  AD 07 81              LDA ROLLCOPY21+6
04139  8025  8D 82 80              STA C6+1
04140  8028             
04141  8028  AD 06 81              LDA ROLLCOPY21+5
04142  802B  8D 08 81              STA ROLLCOPY21+7
04143  802E  AD 05 81              LDA ROLLCOPY21+4
04144  8031  8D 07 81              STA ROLLCOPY21+6
04145  8034  AD 04 81              LDA ROLLCOPY21+3
04146  8037  8D 06 81              STA ROLLCOPY21+5
04147  803A  AD 03 81              LDA ROLLCOPY21+2
04148  803D  8D 05 81              STA ROLLCOPY21+4
04149  8040  AD 02 81              LDA ROLLCOPY21+1
04150  8043  8D 04 81              STA ROLLCOPY21+3
04151  8046  AD 01 81              LDA ROLLCOPY21
04152  8049  8D 03 81              STA ROLLCOPY21+2
04153  804C             
04154  804C  AD F8 80              LDA ROLLCOPY11+7
04155  804F  8D 02 81              STA ROLLCOPY21+1
04156  8052  AD F7 80              LDA ROLLCOPY11+6
04157  8055  8D 01 81              STA ROLLCOPY21
04158  8058             
04159  8058  AD F6 80              LDA ROLLCOPY11+5
04160  805B  8D F8 80              STA ROLLCOPY11+7
04161  805E  AD F5 80              LDA ROLLCOPY11+4
04162  8061  8D F7 80              STA ROLLCOPY11+6
04163  8064  AD F4 80              LDA ROLLCOPY11+3
04164  8067  8D F6 80              STA ROLLCOPY11+5
04165  806A  AD F3 80              LDA ROLLCOPY11+2
04166  806D  8D F5 80              STA ROLLCOPY11+4
04167  8070  AD F2 80              LDA ROLLCOPY11+1
04168  8073  8D F4 80              STA ROLLCOPY11+3
04169  8076  AD F1 80              LDA ROLLCOPY11
04170  8079  8D F3 80              STA ROLLCOPY11+2
04171  807C             
04172  807C  A9 00      C7         LDA #0
04173  807E  8D F2 80              STA ROLLCOPY11+1
04174  8081  A9 00      C6         LDA #0
04175  8083  8D F1 80              STA ROLLCOPY11
04176  8086             
04177  8086  AD 10 81              LDA ROLLCOPY22+7
04178  8089  8D E7 80              STA D7+1
04179  808C  AD 0F 81              LDA ROLLCOPY22+6
04180  808F  8D EC 80              STA D6+1
04181  8092             
04182  8092  AD 0E 81              LDA ROLLCOPY22+5
04183  8095  8D 10 81              STA ROLLCOPY22+7
04184  8098  AD 0D 81              LDA ROLLCOPY22+4
04185  809B  8D 0F 81              STA ROLLCOPY22+6
04186  809E  AD 0C 81              LDA ROLLCOPY22+3
04187  80A1  8D 0E 81              STA ROLLCOPY22+5
04188  80A4  AD 0B 81              LDA ROLLCOPY22+2
04189  80A7  8D 0D 81              STA ROLLCOPY22+4
04190  80AA  AD 0A 81              LDA ROLLCOPY22+1
04191  80AD  8D 0C 81              STA ROLLCOPY22+3
04192  80B0  AD 09 81              LDA ROLLCOPY22
04193  80B3  8D 0B 81              STA ROLLCOPY22+2
04194  80B6             
04195  80B6  AD 00 81              LDA ROLLCOPY12+7
04196  80B9  8D 0A 81              STA ROLLCOPY22+1
04197  80BC  AD FF 80              LDA ROLLCOPY12+6
04198  80BF  8D 09 81              STA ROLLCOPY22
04199  80C2             
04200  80C2  AD FE 80              LDA ROLLCOPY12+5
04201  80C5  8D 00 81              STA ROLLCOPY12+7
04202  80C8  AD FD 80              LDA ROLLCOPY12+4
04203  80CB  8D FF 80              STA ROLLCOPY12+6
04204  80CE  AD FC 80              LDA ROLLCOPY12+3
04205  80D1  8D FE 80              STA ROLLCOPY12+5
04206  80D4  AD FB 80              LDA ROLLCOPY12+2
04207  80D7  8D FD 80              STA ROLLCOPY12+4
04208  80DA  AD FA 80              LDA ROLLCOPY12+1
04209  80DD  8D FC 80              STA ROLLCOPY12+3
04210  80E0  AD F9 80              LDA ROLLCOPY12
04211  80E3  8D FB 80              STA ROLLCOPY12+2
04212  80E6             
04213  80E6  A9 00      D7         LDA #0
04214  80E8  8D FA 80              STA ROLLCOPY12+1
04215  80EB  A9 00      D6         LDA #0
04216  80ED  8D F9 80              STA ROLLCOPY12
04217  80F0             
04218  80F0  60                    RTS
04219  80F1             
04220  80F1             
04221  80F1             ROLLCOPY11 
04222  80F1  00 00 00              BYTE 0, 0, 0, 0, 0, 0, 0, 0
04223  80F9             
04224  80F9             ROLLCOPY12 
04225  80F9  00 00 00              BYTE 0, 0, 0, 0, 0, 0, 0, 0
04226  8101             
04227  8101             ROLLCOPY21 
04228  8101  00 00 00              BYTE 0, 0, 0, 0, 0, 0, 0, 0
04229  8109             
04230  8109             ROLLCOPY22 
04231  8109  00 00 00              BYTE 0, 0, 0, 0, 0, 0, 0, 0
04232  8111             
04233  8111             
04234  8111             COPY_ROLLED_CHARS 
04235  8111  A2 07                 LDX #7
04236  8113  BD F1 80   CPYROLC    LDA ROLLCOPY11,X
04237  8116  9D A8 CE              STA ROLLADDR11,X             ; 51880
04238  8119  BD F9 80              LDA ROLLCOPY12,X
04239  811C  9D 48 CE              STA ROLLADDR12,X             ; 51784
04240  811F  BD 01 81              LDA ROLLCOPY21,X
04241  8122  9D 50 CE              STA ROLLADDR21,X             ; 51792
04242  8125  BD 09 81              LDA ROLLCOPY22,X
04243  8128  9D 58 CE              STA ROLLADDR22,X             ; 51800
04244  812B  CA                    DEX
04245  812C  10 E5                 BPL CPYROLC
04246  812E  60                    RTS
04247  812F             
04248  812F             
04249  812F             
04250  812F             
04251  812F             SIDINIT
04252  812F  A2 18                 LDX #$18
04253  8131  A9 00                 LDA #$00
04254  8133  9D 00 D4   L00491     STA SID_BASE_ADDRESS,X  ; RESET SID REGISTERS
04255  8136  CA                    DEX
04256  8137  10 FA                 BPL L00491
04257  8139  8D 34 82              STA TICKLO
04258  813C  8D 35 82              STA TICKHI
04259  813F  A9 66                 LDA #<SONG00
04260  8141  85 32                 STA $32
04261  8143  A9 82                 LDA #>SONG00
04262  8145  85 33                 STA $33
04263  8147  60                    RTS
04264  8148             
04265  8148             SIDPLAY
04266  8148  A0 00      L0001      LDY #0
04267  814A  B1 32                 LDA ($32),Y
04268  814C  CD 35 82              CMP TICKHI
04269  814F  F0 0B                 BEQ L0004       ; TICKHI = ($32),Y
04270  8151  90 17                 BCC L0005       ; TICKHI > ($32),Y
04271  8153             
04272  8153  EE 34 82   L0002      INC TICKLO      ; (PTR) > TICK
04273  8156  D0 03                 BNE L0003
04274  8158  EE 35 82              INC TICKHI
04275  815B  60         L0003      RTS
04276  815C             
04277  815C  A0 01      L0004      LDY #1
04278  815E  B1 32                 LDA ($32),Y
04279  8160  CD 34 82              CMP TICKLO
04280  8163  F0 13                 BEQ L0007       ; TICKLO = ($32),Y
04281  8165  90 03                 BCC L0005       ; TICKLO > ($32),Y
04282  8167  4C 53 81              JMP L0002
04283  816A             
04284  816A  A5 32      L0005      LDA $32         ; (PTR) < TICK
04285  816C  18                    CLC
04286  816D  69 05                 ADC #5
04287  816F  85 32                 STA $32
04288  8171  90 02                 BCC L0006
04289  8173  E6 33                 INC $33
04290  8175  4C 48 81   L0006      JMP L0001
04291  8178             
04292  8178  A0 02      L0007      LDY #2          ; (PTR) = TICK
04293  817A  B1 32                 LDA ($32),Y     ; A = OPCODE
04294  817C  48                    PHA
04295  817D  29 F0                 AND #$F0
04296  817F  C9 90                 CMP #$90        ; NOTEON?
04297  8181  D0 20                 BNE L0008
04298  8183  68                    PLA             ; NOTEON
04299  8184  29 0F                 AND #$0F
04300  8186  A8                    TAY
04301  8187  BE 36 82              LDX CHANNEL,Y   ; X = 7 * CHANNEL
04302  818A  A0 03                 LDY #3
04303  818C  B1 32                 LDA ($32),Y
04304  818E  9D 00 D4              STA SID_VOICE_FREQ_LO,X
04305  8191  A0 04                 LDY #4
04306  8193  B1 32                 LDA ($32),Y
04307  8195  9D 01 D4              STA SID_VOICE_FREQ_HI,X
04308  8198  BD 39 82              LDA CURVOICE,X
04309  819B  09 01                 ORA #$01        ; GATE ON
04310  819D  9D 04 D4              STA SID_VOICE_WAVEFORM_CONTROL,X
04311  81A0  4C 6A 81              JMP L0005
04312  81A3             
04313  81A3  C9 80      L0008      CMP #$80        ; NOTEOFF?
04314  81A5  D0 12                 BNE L0009
04315  81A7  68                    PLA             ; NOTEOFF
04316  81A8  29 0F                 AND #$0F
04317  81AA  A8                    TAY
04318  81AB  BE 36 82              LDX CHANNEL,Y   ; X = 7 * CHANNEL
04319  81AE  BD 39 82              LDA CURVOICE,X
04320  81B1  29 FE                 AND #$FE        ; GATE OFF
04321  81B3  9D 04 D4              STA SID_VOICE_WAVEFORM_CONTROL,X
04322  81B6  4C 6A 81              JMP L0005
04323  81B9             
04324  81B9  C9 E0      L0009      CMP #$E0        ; FREQ?
04325  81BB  D0 18                 BNE L0010
04326  81BD  68                    PLA             ; FREQ
04327  81BE  29 0F                 AND #$0F
04328  81C0  A8                    TAY
04329  81C1  BE 36 82              LDX CHANNEL,Y   ; X = 7 * CHANNEL
04330  81C4  A0 03                 LDY #3
04331  81C6  B1 32                 LDA ($32),Y
04332  81C8  9D 00 D4              STA SID_VOICE_FREQ_LO,X
04333  81CB  A0 04                 LDY #4
04334  81CD  B1 32                 LDA ($32),Y
04335  81CF  9D 01 D4              STA SID_VOICE_FREQ_HI,X
04336  81D2  4C 6A 81              JMP L0005
04337  81D5             
04338  81D5  C9 C0      L0010      CMP #$C0        ; INSTR?
04339  81D7  D0 38                 BNE L0011
04340  81D9  68                    PLA             ; INSTR
04341  81DA  29 0F                 AND #$0F
04342  81DC  A8                    TAY
04343  81DD  BE 36 82              LDX CHANNEL,Y   ; X = 7 * CHANNEL
04344  81E0  BD 39 82              LDA CURVOICE,X
04345  81E3  29 FE                 AND #$FE        ; GATE OFF
04346  81E5  9D 04 D4              STA SID_VOICE_WAVEFORM_CONTROL,X
04347  81E8  A0 03                 LDY #3
04348  81EA  B1 32                 LDA ($32),Y     ; A = INSTR NO.
04349  81EC  A8                    TAY
04350  81ED  B9 48 82              LDA WAVEFRM,Y
04351  81F0  9D 39 82              STA CURVOICE,X
04352  81F3  9D 04 D4              STA SID_VOICE_WAVEFORM_CONTROL,X
04353  81F6  B9 4E 82              LDA ATTDEC,Y
04354  81F9  9D 05 D4              STA SID_VOICE_ATTACK_DECAY,X
04355  81FC  B9 54 82              LDA SUSREL,Y
04356  81FF  9D 06 D4              STA SID_VOICE_SUSTAIN_RELEASE,X
04357  8202  B9 5A 82              LDA PULSELO,Y
04358  8205  9D 02 D4              STA SID_VOICE_PULSE_WIDTH_LO,X
04359  8208  B9 60 82              LDA PULSEHI,Y
04360  820B  9D 03 D4              STA SID_VOICE_PULSE_WIDTH_HI,X
04361  820E  4C 6A 81              JMP L0005
04362  8211             
04363  8211  C9 B0      L0011      CMP #$B0        ; VOLUME?
04364  8213  D0 0B                 BNE L0012
04365  8215  68                    PLA             ; VOLUME
04366  8216  A0 03                 LDY #3
04367  8218  B1 32                 LDA ($32),Y
04368  821A  8D 18 D4              STA SID_VOLUME_AND_FILTER_SELECT
04369  821D  4C 6A 81              JMP L0005
04370  8220             
04371  8220  68         L0012      PLA             ; MUST BE '$FF'
04372  8221  A9 00                 LDA #$00
04373  8223  8D 34 82              STA TICKLO
04374  8226  8D 35 82              STA TICKHI
04375  8229  A9 66                 LDA #<SONG00
04376  822B  85 32                 STA $32
04377  822D  A9 82                 LDA #>SONG00
04378  822F  85 33                 STA $33
04379  8231  4C 48 81              JMP L0001
04380  8234             
04381  8234  00         TICKLO     BYTE $00
04382  8235  00         TICKHI     BYTE $00
04383  8236             
04384  8236  00 07 0E   CHANNEL    BYTE $00, $07, $0E
04385  8239             
04386  8239             CURVOICE
04387  8239  00 00 00              BYTE $00, $00, $00, $00, $00, $00, $00
04388  8240  00 00 00              BYTE $00, $00, $00, $00, $00, $00, $00
04389  8247  00                    BYTE $00
04390  8248             
04391  8248             ;       6 INSTRUMENTS
04392  8248  10 20 40   WAVEFRM    BYTE $10, $20, $40, $10, $20, $40
04393  824E  40 40 22   ATTDEC     BYTE $40, $40, $22, $00, $00, $00
04394  8254  F0 7C 30   SUSREL     BYTE $F0, $7C, $30, $00, $00, $00
04395  825A  00 00 00   PULSELO    BYTE $00, $00, $00, $00, $00, $00
04396  8260  08 08 08   PULSEHI    BYTE $08, $08, $08, $00, $00, $00
04397  8266             
04398  8266             
04399  8266             
04400  8266             SONG00
04401  8266  00 00 C0              BYTE $00, $00, $C0, $01, $00
04402  826B  00 00 B0              BYTE $00, $00, $B0, $0F, $00
04403  8270  00 00 B0              BYTE $00, $00, $B0, $0F, $00
04404  8275  00 00 90              BYTE $00, $00, $90, $E2, $04
04405  827A  00 00 C1              BYTE $00, $00, $C1, $00, $00
04406  827F  00 00 B0              BYTE $00, $00, $B0, $0F, $00
04407  8284  00 00 91              BYTE $00, $00, $91, $9C, $45
04408  8289  00 00 B0              BYTE $00, $00, $B0, $0F, $00
04409  828E  00 00 C2              BYTE $00, $00, $C2, $02, $00
04410  8293  00 00 B0              BYTE $00, $00, $B0, $0F, $00
04411  8298  00 00 92              BYTE $00, $00, $92, $89, $13
04412  829D  00 06 82              BYTE $00, $06, $82, $00, $00
04413  82A2  00 06 81              BYTE $00, $06, $81, $00, $00
04414  82A7  00 06 91              BYTE $00, $06, $91, $23, $4E
04415  82AC  00 0C 92              BYTE $00, $0C, $92, $89, $13
04416  82B1  00 12 82              BYTE $00, $12, $82, $00, $00
04417  82B6  00 18 92              BYTE $00, $18, $92, $89, $13
04418  82BB  00 1E 82              BYTE $00, $1E, $82, $00, $00
04419  82C0  00 1E 92              BYTE $00, $1E, $92, $89, $13
04420  82C5  00 23 82              BYTE $00, $23, $82, $00, $00
04421  82CA  00 2A 92              BYTE $00, $2A, $92, $89, $13
04422  82CF  00 2F 82              BYTE $00, $2F, $82, $00, $00
04423  82D4  00 30 92              BYTE $00, $30, $92, $89, $13
04424  82D9  00 35 82              BYTE $00, $35, $82, $00, $00
04425  82DE  00 3C 92              BYTE $00, $3C, $92, $89, $13
04426  82E3  00 41 82              BYTE $00, $41, $82, $00, $00
04427  82E8  00 41 92              BYTE $00, $41, $92, $89, $13
04428  82ED  00 47 82              BYTE $00, $47, $82, $00, $00
04429  82F2  00 47 81              BYTE $00, $47, $81, $00, $00
04430  82F7  00 47 91              BYTE $00, $47, $91, $9C, $45
04431  82FC  00 47 92              BYTE $00, $47, $92, $89, $13
04432  8301  00 4D 82              BYTE $00, $4D, $82, $00, $00
04433  8306  00 4D 92              BYTE $00, $4D, $92, $89, $13
04434  830B  00 50 80              BYTE $00, $50, $80, $00, $00
04435  8310  00 53 82              BYTE $00, $53, $82, $00, $00
04436  8315  00 53 90              BYTE $00, $53, $90, $E2, $04
04437  831A  00 53 81              BYTE $00, $53, $81, $00, $00
04438  831F  00 53 91              BYTE $00, $53, $91, $23, $4E
04439  8324  00 53 92              BYTE $00, $53, $92, $89, $13
04440  8329  00 59 82              BYTE $00, $59, $82, $00, $00
04441  832E  00 5C 80              BYTE $00, $5C, $80, $00, $00
04442  8333  00 5F 90              BYTE $00, $5F, $90, $E2, $04
04443  8338  00 5F 81              BYTE $00, $5F, $81, $00, $00
04444  833D  00 5F 91              BYTE $00, $5F, $91, $B4, $57
04445  8342  00 5F 92              BYTE $00, $5F, $92, $89, $13
04446  8347  00 65 82              BYTE $00, $65, $82, $00, $00
04447  834C  00 6B 92              BYTE $00, $6B, $92, $89, $13
04448  8351  00 71 82              BYTE $00, $71, $82, $00, $00
04449  8356  00 71 92              BYTE $00, $71, $92, $89, $13
04450  835B  00 77 82              BYTE $00, $77, $82, $00, $00
04451  8360  00 77 92              BYTE $00, $77, $92, $89, $13
04452  8365  00 7D 82              BYTE $00, $7D, $82, $00, $00
04453  836A  00 83 81              BYTE $00, $83, $81, $00, $00
04454  836F  00 83 91              BYTE $00, $83, $91, $9C, $45
04455  8374  00 83 92              BYTE $00, $83, $92, $89, $13
04456  8379  00 89 82              BYTE $00, $89, $82, $00, $00
04457  837E  00 89 92              BYTE $00, $89, $92, $89, $13
04458  8383  00 8F 82              BYTE $00, $8F, $82, $00, $00
04459  8388  00 95 92              BYTE $00, $95, $92, $89, $13
04460  838D  00 9B 82              BYTE $00, $9B, $82, $00, $00
04461  8392  00 A1 92              BYTE $00, $A1, $92, $89, $13
04462  8397  00 A6 82              BYTE $00, $A6, $82, $00, $00
04463  839C  00 A7 81              BYTE $00, $A7, $81, $00, $00
04464  83A1  00 A7 91              BYTE $00, $A7, $91, $89, $3A
04465  83A6  00 A7 92              BYTE $00, $A7, $92, $89, $13
04466  83AB  00 AC 82              BYTE $00, $AC, $82, $00, $00
04467  83B0  00 AD 92              BYTE $00, $AD, $92, $89, $13
04468  83B5  00 B2 82              BYTE $00, $B2, $82, $00, $00
04469  83BA  00 B3 80              BYTE $00, $B3, $80, $00, $00
04470  83BF  00 B3 92              BYTE $00, $B3, $92, $89, $13
04471  83C4  00 B8 82              BYTE $00, $B8, $82, $00, $00
04472  83C9  00 BE 90              BYTE $00, $BE, $90, $E2, $04
04473  83CE  00 BE 81              BYTE $00, $BE, $81, $00, $00
04474  83D3  00 BE 91              BYTE $00, $BE, $91, $23, $4E
04475  83D8  00 BE 92              BYTE $00, $BE, $92, $89, $13
04476  83DD  00 C4 82              BYTE $00, $C4, $82, $00, $00
04477  83E2  00 CA 92              BYTE $00, $CA, $92, $89, $13
04478  83E7  00 D0 82              BYTE $00, $D0, $82, $00, $00
04479  83EC  00 D6 92              BYTE $00, $D6, $92, $89, $13
04480  83F1  00 DC 82              BYTE $00, $DC, $82, $00, $00
04481  83F6  00 DC 92              BYTE $00, $DC, $92, $89, $13
04482  83FB  00 E2 82              BYTE $00, $E2, $82, $00, $00
04483  8400  00 E8 92              BYTE $00, $E8, $92, $89, $13
04484  8405  00 EE 82              BYTE $00, $EE, $82, $00, $00
04485  840A  00 EE 92              BYTE $00, $EE, $92, $89, $13
04486  840F  00 F4 82              BYTE $00, $F4, $82, $00, $00
04487  8414  00 FA 92              BYTE $00, $FA, $92, $89, $13
04488  8419  01 00 82              BYTE $01, $00, $82, $00, $00
04489  841E  01 00 92              BYTE $01, $00, $92, $89, $13
04490  8423  01 06 82              BYTE $01, $06, $82, $00, $00
04491  8428  01 06 81              BYTE $01, $06, $81, $00, $00
04492  842D  01 06 91              BYTE $01, $06, $91, $9C, $45
04493  8432  01 06 92              BYTE $01, $06, $92, $89, $13
04494  8437  01 0C 82              BYTE $01, $0C, $82, $00, $00
04495  843C  01 0C 92              BYTE $01, $0C, $92, $89, $13
04496  8441  01 0F 80              BYTE $01, $0F, $80, $00, $00
04497  8446  01 12 82              BYTE $01, $12, $82, $00, $00
04498  844B  01 12 90              BYTE $01, $12, $90, $E2, $04
04499  8450  01 12 81              BYTE $01, $12, $81, $00, $00
04500  8455  01 12 91              BYTE $01, $12, $91, $23, $4E
04501  845A  01 12 92              BYTE $01, $12, $92, $89, $13
04502  845F  01 18 82              BYTE $01, $18, $82, $00, $00
04503  8464  01 1B 80              BYTE $01, $1B, $80, $00, $00
04504  8469  01 1E 90              BYTE $01, $1E, $90, $E2, $04
04505  846E  01 1E 81              BYTE $01, $1E, $81, $00, $00
04506  8473  01 1E 91              BYTE $01, $1E, $91, $4C, $68
04507  8478  01 1E 92              BYTE $01, $1E, $92, $89, $13
04508  847D  01 23 82              BYTE $01, $23, $82, $00, $00
04509  8482  01 2A 92              BYTE $01, $2A, $92, $89, $13
04510  8487  01 2F 82              BYTE $01, $2F, $82, $00, $00
04511  848C  01 30 92              BYTE $01, $30, $92, $89, $13
04512  8491  01 35 82              BYTE $01, $35, $82, $00, $00
04513  8496  01 36 92              BYTE $01, $36, $92, $89, $13
04514  849B  01 3B 82              BYTE $01, $3B, $82, $00, $00
04515  84A0  01 41 81              BYTE $01, $41, $81, $00, $00
04516  84A5  01 41 91              BYTE $01, $41, $91, $B4, $57
04517  84AA  01 41 92              BYTE $01, $41, $92, $89, $13
04518  84AF  01 47 82              BYTE $01, $47, $82, $00, $00
04519  84B4  01 47 92              BYTE $01, $47, $92, $89, $13
04520  84B9  01 4D 82              BYTE $01, $4D, $82, $00, $00
04521  84BE  01 53 92              BYTE $01, $53, $92, $89, $13
04522  84C3  01 59 82              BYTE $01, $59, $82, $00, $00
04523  84C8  01 5F 92              BYTE $01, $5F, $92, $89, $13
04524  84CD  01 65 82              BYTE $01, $65, $82, $00, $00
04525  84D2  01 65 81              BYTE $01, $65, $81, $00, $00
04526  84D7  01 65 91              BYTE $01, $65, $91, $9C, $45
04527  84DC  01 65 92              BYTE $01, $65, $92, $89, $13
04528  84E1  01 6B 82              BYTE $01, $6B, $82, $00, $00
04529  84E6  01 6B 92              BYTE $01, $6B, $92, $89, $13
04530  84EB  01 71 82              BYTE $01, $71, $82, $00, $00
04531  84F0  01 71 80              BYTE $01, $71, $80, $00, $00
04532  84F5  01 71 92              BYTE $01, $71, $92, $89, $13
04533  84FA  01 77 82              BYTE $01, $77, $82, $00, $00
04534  84FF  01 7A 81              BYTE $01, $7A, $81, $00, $00
04535  8504  01 7D 90              BYTE $01, $7D, $90, $E2, $04
04536  8509  01 7D 91              BYTE $01, $7D, $91, $9C, $45
04537  850E  01 7D 92              BYTE $01, $7D, $92, $89, $13
04538  8513  01 83 82              BYTE $01, $83, $82, $00, $00
04539  8518  01 89 92              BYTE $01, $89, $92, $89, $13
04540  851D  01 8F 82              BYTE $01, $8F, $82, $00, $00
04541  8522  01 95 92              BYTE $01, $95, $92, $89, $13
04542  8527  01 9A 82              BYTE $01, $9A, $82, $00, $00
04543  852C  01 9B 92              BYTE $01, $9B, $92, $89, $13
04544  8531  01 A0 82              BYTE $01, $A0, $82, $00, $00
04545  8536  01 A7 92              BYTE $01, $A7, $92, $89, $13
04546  853B  01 AC 82              BYTE $01, $AC, $82, $00, $00
04547  8540  01 AD 92              BYTE $01, $AD, $92, $89, $13
04548  8545  01 B2 82              BYTE $01, $B2, $82, $00, $00
04549  854A  01 B8 81              BYTE $01, $B8, $81, $00, $00
04550  854F  01 B8 91              BYTE $01, $B8, $91, $89, $3A
04551  8554  01 B8 92              BYTE $01, $B8, $92, $89, $13
04552  8559  01 BE 82              BYTE $01, $BE, $82, $00, $00
04553  855E  01 BE 92              BYTE $01, $BE, $92, $89, $13
04554  8563  01 C4 82              BYTE $01, $C4, $82, $00, $00
04555  8568  01 C4 81              BYTE $01, $C4, $81, $00, $00
04556  856D  01 C4 91              BYTE $01, $C4, $91, $9C, $45
04557  8572  01 C4 92              BYTE $01, $C4, $92, $89, $13
04558  8577  01 CA 82              BYTE $01, $CA, $82, $00, $00
04559  857C  01 CA 92              BYTE $01, $CA, $92, $89, $13
04560  8581  01 CD 80              BYTE $01, $CD, $80, $00, $00
04561  8586  01 D0 82              BYTE $01, $D0, $82, $00, $00
04562  858B  01 D0 90              BYTE $01, $D0, $90, $E2, $04
04563  8590  01 D0 81              BYTE $01, $D0, $81, $00, $00
04564  8595  01 D0 91              BYTE $01, $D0, $91, $23, $4E
04565  859A  01 D0 92              BYTE $01, $D0, $92, $89, $13
04566  859F  01 D6 82              BYTE $01, $D6, $82, $00, $00
04567  85A4  01 D9 80              BYTE $01, $D9, $80, $00, $00
04568  85A9  01 DC 90              BYTE $01, $DC, $90, $E2, $04
04569  85AE  01 DC 81              BYTE $01, $DC, $81, $00, $00
04570  85B3  01 DC 91              BYTE $01, $DC, $91, $26, $34
04571  85B8  01 DC 92              BYTE $01, $DC, $92, $89, $13
04572  85BD  01 E2 82              BYTE $01, $E2, $82, $00, $00
04573  85C2  01 E8 92              BYTE $01, $E8, $92, $89, $13
04574  85C7  01 EE 82              BYTE $01, $EE, $82, $00, $00
04575  85CC  01 EE 92              BYTE $01, $EE, $92, $89, $13
04576  85D1  01 F4 82              BYTE $01, $F4, $82, $00, $00
04577  85D6  01 F4 92              BYTE $01, $F4, $92, $89, $13
04578  85DB  01 FA 82              BYTE $01, $FA, $82, $00, $00
04579  85E0  02 00 81              BYTE $02, $00, $81, $00, $00
04580  85E5  02 00 91              BYTE $02, $00, $91, $89, $3A
04581  85EA  02 00 92              BYTE $02, $00, $92, $89, $13
04582  85EF  02 06 82              BYTE $02, $06, $82, $00, $00
04583  85F4  02 06 92              BYTE $02, $06, $92, $89, $13
04584  85F9  02 0C 82              BYTE $02, $0C, $82, $00, $00
04585  85FE  02 12 92              BYTE $02, $12, $92, $89, $13
04586  8603  02 17 82              BYTE $02, $17, $82, $00, $00
04587  8608  02 1E 92              BYTE $02, $1E, $92, $89, $13
04588  860D  02 23 82              BYTE $02, $23, $82, $00, $00
04589  8612  02 24 81              BYTE $02, $24, $81, $00, $00
04590  8617  02 24 91              BYTE $02, $24, $91, $23, $4E
04591  861C  02 24 92              BYTE $02, $24, $92, $89, $13
04592  8621  02 29 82              BYTE $02, $29, $82, $00, $00
04593  8626  02 2A 92              BYTE $02, $2A, $92, $89, $13
04594  862B  02 2F 82              BYTE $02, $2F, $82, $00, $00
04595  8630  02 30 80              BYTE $02, $30, $80, $00, $00
04596  8635  02 30 92              BYTE $02, $30, $92, $89, $13
04597  863A  02 35 82              BYTE $02, $35, $82, $00, $00
04598  863F  02 3B 90              BYTE $02, $3B, $90, $E2, $04
04599  8644  02 3B 81              BYTE $02, $3B, $81, $00, $00
04600  8649  02 3B 91              BYTE $02, $3B, $91, $9C, $45
04601  864E  02 3B 92              BYTE $02, $3B, $92, $89, $13
04602  8653  02 41 82              BYTE $02, $41, $82, $00, $00
04603  8658  02 47 92              BYTE $02, $47, $92, $89, $13
04604  865D  02 4D 82              BYTE $02, $4D, $82, $00, $00
04605  8662  02 53 92              BYTE $02, $53, $92, $89, $13
04606  8667  02 59 82              BYTE $02, $59, $82, $00, $00
04607  866C  02 59 92              BYTE $02, $59, $92, $89, $13
04608  8671  02 5F 82              BYTE $02, $5F, $82, $00, $00
04609  8676  02 65 92              BYTE $02, $65, $92, $89, $13
04610  867B  02 6B 82              BYTE $02, $6B, $82, $00, $00
04611  8680  02 6B 92              BYTE $02, $6B, $92, $89, $13
04612  8685  02 71 82              BYTE $02, $71, $82, $00, $00
04613  868A  02 77 81              BYTE $02, $77, $81, $00, $00
04614  868F  02 77 91              BYTE $02, $77, $91, $89, $3A
04615  8694  02 77 92              BYTE $02, $77, $92, $89, $13
04616  8699  02 7D 82              BYTE $02, $7D, $82, $00, $00
04617  869E  02 7D 92              BYTE $02, $7D, $92, $89, $13
04618  86A3  02 83 82              BYTE $02, $83, $82, $00, $00
04619  86A8  02 83 81              BYTE $02, $83, $81, $00, $00
04620  86AD  02 83 91              BYTE $02, $83, $91, $9C, $45
04621  86B2  02 83 92              BYTE $02, $83, $92, $89, $13
04622  86B7  02 89 82              BYTE $02, $89, $82, $00, $00
04623  86BC  02 89 92              BYTE $02, $89, $92, $89, $13
04624  86C1  02 8C 80              BYTE $02, $8C, $80, $00, $00
04625  86C6  02 8F 82              BYTE $02, $8F, $82, $00, $00
04626  86CB  02 8F 90              BYTE $02, $8F, $90, $E2, $04
04627  86D0  02 8F 81              BYTE $02, $8F, $81, $00, $00
04628  86D5  02 8F 91              BYTE $02, $8F, $91, $23, $4E
04629  86DA  02 8F 92              BYTE $02, $8F, $92, $89, $13
04630  86DF  02 94 82              BYTE $02, $94, $82, $00, $00
04631  86E4  02 98 80              BYTE $02, $98, $80, $00, $00
04632  86E9  02 98 81              BYTE $02, $98, $81, $00, $00
04633  86EE  02 9B 90              BYTE $02, $9B, $90, $E2, $04
04634  86F3  02 9B 91              BYTE $02, $9B, $91, $23, $4E
04635  86F8  02 9B 92              BYTE $02, $9B, $92, $89, $13
04636  86FD  02 A0 82              BYTE $02, $A0, $82, $00, $00
04637  8702  02 A7 92              BYTE $02, $A7, $92, $89, $13
04638  8707  02 AC 82              BYTE $02, $AC, $82, $00, $00
04639  870C  02 AD 92              BYTE $02, $AD, $92, $89, $13
04640  8711  02 B2 82              BYTE $02, $B2, $82, $00, $00
04641  8716  02 B2 92              BYTE $02, $B2, $92, $89, $13
04642  871B  02 B8 82              BYTE $02, $B8, $82, $00, $00
04643  8720  02 BE 92              BYTE $02, $BE, $92, $89, $13
04644  8725  02 C4 82              BYTE $02, $C4, $82, $00, $00
04645  872A  02 C4 92              BYTE $02, $C4, $92, $89, $13
04646  872F  02 CA 82              BYTE $02, $CA, $82, $00, $00
04647  8734  02 D0 92              BYTE $02, $D0, $92, $89, $13
04648  8739  02 D6 82              BYTE $02, $D6, $82, $00, $00
04649  873E  02 DC 92              BYTE $02, $DC, $92, $89, $13
04650  8743  02 E2 82              BYTE $02, $E2, $82, $00, $00
04651  8748  02 E2 92              BYTE $02, $E2, $92, $89, $13
04652  874D  02 E8 82              BYTE $02, $E8, $82, $00, $00
04653  8752  02 E8 92              BYTE $02, $E8, $92, $89, $13
04654  8757  02 EB 80              BYTE $02, $EB, $80, $00, $00
04655  875C  02 EE 82              BYTE $02, $EE, $82, $00, $00
04656  8761  02 EE 90              BYTE $02, $EE, $90, $E2, $04
04657  8766  02 EE 92              BYTE $02, $EE, $92, $89, $13
04658  876B  02 F4 82              BYTE $02, $F4, $82, $00, $00
04659  8770  02 F7 80              BYTE $02, $F7, $80, $00, $00
04660  8775  02 FA 90              BYTE $02, $FA, $90, $E2, $04
04661  877A  02 FA 81              BYTE $02, $FA, $81, $00, $00
04662  877F  02 FA C1              BYTE $02, $FA, $C1, $00, $00
04663  8784  02 FA 91              BYTE $02, $FA, $91, $45, $1D
04664  8789  02 FA C2              BYTE $02, $FA, $C2, $00, $00
04665  878E  02 FA 92              BYTE $02, $FA, $92, $3B, $17
04666  8793  03 09 81              BYTE $03, $09, $81, $00, $00
04667  8798  03 09 82              BYTE $03, $09, $82, $00, $00
04668  879D  03 0C 91              BYTE $03, $0C, $91, $45, $1D
04669  87A2  03 0C 92              BYTE $03, $0C, $92, $3B, $17
04670  87A7  03 1B 81              BYTE $03, $1B, $81, $00, $00
04671  87AC  03 1B 82              BYTE $03, $1B, $82, $00, $00
04672  87B1  03 1E 91              BYTE $03, $1E, $91, $45, $1D
04673  87B6  03 1E 92              BYTE $03, $1E, $92, $3B, $17
04674  87BB  03 27 81              BYTE $03, $27, $81, $00, $00
04675  87C0  03 27 82              BYTE $03, $27, $82, $00, $00
04676  87C5  03 2A 91              BYTE $03, $2A, $91, $45, $1D
04677  87CA  03 2A 92              BYTE $03, $2A, $92, $3B, $17
04678  87CF  03 35 81              BYTE $03, $35, $81, $00, $00
04679  87D4  03 35 C1              BYTE $03, $35, $C1, $01, $00
04680  87D9  03 35 91              BYTE $03, $35, $91, $CE, $22
04681  87DE  03 3B 81              BYTE $03, $3B, $81, $00, $00
04682  87E3  03 3B 91              BYTE $03, $3B, $91, $DA, $2B
04683  87E8  03 3B 82              BYTE $03, $3B, $82, $00, $00
04684  87ED  03 41 81              BYTE $03, $41, $81, $00, $00
04685  87F2  03 47 91              BYTE $03, $47, $91, $CE, $22
04686  87F7  03 4A 80              BYTE $03, $4A, $80, $00, $00
04687  87FC  03 4D 81              BYTE $03, $4D, $81, $00, $00
04688  8801  03 4D 90              BYTE $03, $4D, $90, $E2, $04
04689  8806  03 4D 91              BYTE $03, $4D, $91, $DA, $2B
04690  880B  03 53 81              BYTE $03, $53, $81, $00, $00
04691  8810  03 53 91              BYTE $03, $53, $91, $CE, $22
04692  8815  03 56 80              BYTE $03, $56, $80, $00, $00
04693  881A  03 59 81              BYTE $03, $59, $81, $00, $00
04694  881F  03 59 90              BYTE $03, $59, $90, $E2, $04
04695  8824  03 65 91              BYTE $03, $65, $91, $DA, $2B
04696  8829  03 6B 81              BYTE $03, $6B, $81, $00, $00
04697  882E  03 89 C1              BYTE $03, $89, $C1, $00, $00
04698  8833  03 89 91              BYTE $03, $89, $91, $DA, $20
04699  8838  03 89 92              BYTE $03, $89, $92, $13, $1A
04700  883D  03 98 81              BYTE $03, $98, $81, $00, $00
04701  8842  03 98 82              BYTE $03, $98, $82, $00, $00
04702  8847  03 9B 91              BYTE $03, $9B, $91, $DA, $20
04703  884C  03 9B 92              BYTE $03, $9B, $92, $13, $1A
04704  8851  03 AA 80              BYTE $03, $AA, $80, $00, $00
04705  8856  03 AA 81              BYTE $03, $AA, $81, $00, $00
04706  885B  03 AA 82              BYTE $03, $AA, $82, $00, $00
04707  8860  03 AC 90              BYTE $03, $AC, $90, $E2, $04
04708  8865  03 AC 91              BYTE $03, $AC, $91, $DA, $20
04709  886A  03 AC 92              BYTE $03, $AC, $92, $13, $1A
04710  886F  03 B5 80              BYTE $03, $B5, $80, $00, $00
04711  8874  03 B8 81              BYTE $03, $B8, $81, $00, $00
04712  8879  03 B8 82              BYTE $03, $B8, $82, $00, $00
04713  887E  03 B8 90              BYTE $03, $B8, $90, $E2, $04
04714  8883  03 B8 91              BYTE $03, $B8, $91, $45, $1D
04715  8888  03 B8 92              BYTE $03, $B8, $92, $3B, $17
04716  888D  03 C7 81              BYTE $03, $C7, $81, $00, $00
04717  8892  03 C7 82              BYTE $03, $C7, $82, $00, $00
04718  8897  03 CA 91              BYTE $03, $CA, $91, $45, $1D
04719  889C  03 CA 92              BYTE $03, $CA, $92, $3B, $17
04720  88A1  03 D9 81              BYTE $03, $D9, $81, $00, $00
04721  88A6  03 D9 82              BYTE $03, $D9, $82, $00, $00
04722  88AB  03 DC 91              BYTE $03, $DC, $91, $45, $1D
04723  88B0  03 DC 92              BYTE $03, $DC, $92, $3B, $17
04724  88B5  03 E5 81              BYTE $03, $E5, $81, $00, $00
04725  88BA  03 E5 82              BYTE $03, $E5, $82, $00, $00
04726  88BF  03 E8 91              BYTE $03, $E8, $91, $45, $1D
04727  88C4  03 E8 92              BYTE $03, $E8, $92, $3B, $17
04728  88C9  03 F4 81              BYTE $03, $F4, $81, $00, $00
04729  88CE  03 F4 C1              BYTE $03, $F4, $C1, $01, $00
04730  88D3  03 F4 91              BYTE $03, $F4, $91, $CE, $22
04731  88D8  03 FA 81              BYTE $03, $FA, $81, $00, $00
04732  88DD  03 FA 91              BYTE $03, $FA, $91, $DA, $2B
04733  88E2  03 FA 82              BYTE $03, $FA, $82, $00, $00
04734  88E7  04 00 81              BYTE $04, $00, $81, $00, $00
04735  88EC  04 06 91              BYTE $04, $06, $91, $CE, $22
04736  88F1  04 09 80              BYTE $04, $09, $80, $00, $00
04737  88F6  04 0B 81              BYTE $04, $0B, $81, $00, $00
04738  88FB  04 0C 90              BYTE $04, $0C, $90, $E2, $04
04739  8900  04 0C 91              BYTE $04, $0C, $91, $DA, $2B
04740  8905  04 11 81              BYTE $04, $11, $81, $00, $00
04741  890A  04 12 91              BYTE $04, $12, $91, $CE, $22
04742  890F  04 15 80              BYTE $04, $15, $80, $00, $00
04743  8914  04 17 81              BYTE $04, $17, $81, $00, $00
04744  8919  04 18 90              BYTE $04, $18, $90, $E2, $04
04745  891E  04 1E 91              BYTE $04, $1E, $91, $DA, $2B
04746  8923  04 23 81              BYTE $04, $23, $81, $00, $00
04747  8928  04 24 91              BYTE $04, $24, $91, $CE, $22
04748  892D  04 29 81              BYTE $04, $29, $81, $00, $00
04749  8932  04 68 80              BYTE $04, $68, $80, $00, $00
04750  8937  04 6B 90              BYTE $04, $6B, $90, $E2, $04
04751  893C  04 74 80              BYTE $04, $74, $80, $00, $00
04752  8941  04 77 90              BYTE $04, $77, $90, $E2, $04
04753  8946  04 77 C1              BYTE $04, $77, $C1, $00, $00
04754  894B  04 77 91              BYTE $04, $77, $91, $45, $1D
04755  8950  04 77 92              BYTE $04, $77, $92, $3B, $17
04756  8955  04 86 81              BYTE $04, $86, $81, $00, $00
04757  895A  04 86 82              BYTE $04, $86, $82, $00, $00
04758  895F  04 89 91              BYTE $04, $89, $91, $45, $1D
04759  8964  04 89 92              BYTE $04, $89, $92, $3B, $17
04760  8969  04 8F 90              BYTE $04, $8F, $90, $CF, $05
04761  896E  04 98 81              BYTE $04, $98, $81, $00, $00
04762  8973  04 98 82              BYTE $04, $98, $82, $00, $00
04763  8978  04 9B 90              BYTE $04, $9B, $90, $E2, $04
04764  897D  04 9B 91              BYTE $04, $9B, $91, $45, $1D
04765  8982  04 9B 92              BYTE $04, $9B, $92, $3B, $17
04766  8987  04 A1 90              BYTE $04, $A1, $90, $85, $06
04767  898C  04 A4 81              BYTE $04, $A4, $81, $00, $00
04768  8991  04 A4 82              BYTE $04, $A4, $82, $00, $00
04769  8996  04 A6 91              BYTE $04, $A6, $91, $45, $1D
04770  899B  04 A6 92              BYTE $04, $A6, $92, $3B, $17
04771  89A0  04 AC 90              BYTE $04, $AC, $90, $E2, $04
04772  89A5  04 B2 90              BYTE $04, $B2, $90, $CF, $05
04773  89AA  04 B8 81              BYTE $04, $B8, $81, $00, $00
04774  89AF  04 B8 82              BYTE $04, $B8, $82, $00, $00
04775  89B4  04 BE 90              BYTE $04, $BE, $90, $85, $06
04776  89B9  04 CA 90              BYTE $04, $CA, $90, $51, $07
04777  89BE  04 D6 90              BYTE $04, $D6, $90, $E2, $04
04778  89C3  04 EE 90              BYTE $04, $EE, $90, $CF, $05
04779  89C8  04 FA 90              BYTE $04, $FA, $90, $E2, $04
04780  89CD  05 00 90              BYTE $05, $00, $90, $85, $06
04781  89D2  05 06 91              BYTE $05, $06, $91, $DA, $20
04782  89D7  05 06 92              BYTE $05, $06, $92, $13, $1A
04783  89DC  05 0C 90              BYTE $05, $0C, $90, $E2, $04
04784  89E1  05 12 90              BYTE $05, $12, $90, $CF, $05
04785  89E6  05 15 81              BYTE $05, $15, $81, $00, $00
04786  89EB  05 15 82              BYTE $05, $15, $82, $00, $00
04787  89F0  05 18 91              BYTE $05, $18, $91, $DA, $20
04788  89F5  05 18 92              BYTE $05, $18, $92, $13, $1A
04789  89FA  05 1E 90              BYTE $05, $1E, $90, $85, $06
04790  89FF  05 26 81              BYTE $05, $26, $81, $00, $00
04791  8A04  05 26 82              BYTE $05, $26, $82, $00, $00
04792  8A09  05 29 90              BYTE $05, $29, $90, $51, $07
04793  8A0E  05 29 91              BYTE $05, $29, $91, $DA, $20
04794  8A13  05 29 92              BYTE $05, $29, $92, $13, $1A
04795  8A18  05 35 81              BYTE $05, $35, $81, $00, $00
04796  8A1D  05 35 82              BYTE $05, $35, $82, $00, $00
04797  8A22  05 35 90              BYTE $05, $35, $90, $E2, $04
04798  8A27  05 35 91              BYTE $05, $35, $91, $45, $1D
04799  8A2C  05 35 92              BYTE $05, $35, $92, $3B, $17
04800  8A31  05 44 81              BYTE $05, $44, $81, $00, $00
04801  8A36  05 44 82              BYTE $05, $44, $82, $00, $00
04802  8A3B  05 47 91              BYTE $05, $47, $91, $45, $1D
04803  8A40  05 47 92              BYTE $05, $47, $92, $3B, $17
04804  8A45  05 4D 90              BYTE $05, $4D, $90, $CF, $05
04805  8A4A  05 56 81              BYTE $05, $56, $81, $00, $00
04806  8A4F  05 56 82              BYTE $05, $56, $82, $00, $00
04807  8A54  05 59 90              BYTE $05, $59, $90, $E2, $04
04808  8A59  05 59 91              BYTE $05, $59, $91, $45, $1D
04809  8A5E  05 59 92              BYTE $05, $59, $92, $3B, $17
04810  8A63  05 5F 90              BYTE $05, $5F, $90, $85, $06
04811  8A68  05 62 81              BYTE $05, $62, $81, $00, $00
04812  8A6D  05 62 82              BYTE $05, $62, $82, $00, $00
04813  8A72  05 65 91              BYTE $05, $65, $91, $45, $1D
04814  8A77  05 65 92              BYTE $05, $65, $92, $3B, $17
04815  8A7C  05 6B 90              BYTE $05, $6B, $90, $E2, $04
04816  8A81  05 71 90              BYTE $05, $71, $90, $CF, $05
04817  8A86  05 77 81              BYTE $05, $77, $81, $00, $00
04818  8A8B  05 77 82              BYTE $05, $77, $82, $00, $00
04819  8A90  05 7D 90              BYTE $05, $7D, $90, $85, $06
04820  8A95  05 89 90              BYTE $05, $89, $90, $51, $07
04821  8A9A  05 95 90              BYTE $05, $95, $90, $E2, $04
04822  8A9F  05 95 C1              BYTE $05, $95, $C1, $01, $00
04823  8AA4  05 95 91              BYTE $05, $95, $91, $CE, $22
04824  8AA9  05 95 C2              BYTE $05, $95, $C2, $01, $00
04825  8AAE  05 95 92              BYTE $05, $95, $92, $45, $1D
04826  8AB3  05 9A 81              BYTE $05, $9A, $81, $00, $00
04827  8AB8  05 9A 82              BYTE $05, $9A, $82, $00, $00
04828  8ABD  05 9B 91              BYTE $05, $9B, $91, $CE, $22
04829  8AC2  05 9B 92              BYTE $05, $9B, $92, $45, $1D
04830  8AC7  05 A0 81              BYTE $05, $A0, $81, $00, $00
04831  8ACC  05 A0 82              BYTE $05, $A0, $82, $00, $00
04832  8AD1  05 A6 91              BYTE $05, $A6, $91, $CE, $22
04833  8AD6  05 A6 92              BYTE $05, $A6, $92, $45, $1D
04834  8ADB  05 AC 81              BYTE $05, $AC, $81, $00, $00
04835  8AE0  05 AC 82              BYTE $05, $AC, $82, $00, $00
04836  8AE5  05 AC 90              BYTE $05, $AC, $90, $CF, $05
04837  8AEA  05 B8 90              BYTE $05, $B8, $90, $E2, $04
04838  8AEF  05 B8 91              BYTE $05, $B8, $91, $CE, $22
04839  8AF4  05 B8 92              BYTE $05, $B8, $92, $45, $1D
04840  8AF9  05 BE 81              BYTE $05, $BE, $81, $00, $00
04841  8AFE  05 BE 82              BYTE $05, $BE, $82, $00, $00
04842  8B03  05 BE 90              BYTE $05, $BE, $90, $85, $06
04843  8B08  05 C4 91              BYTE $05, $C4, $91, $DA, $20
04844  8B0D  05 C4 92              BYTE $05, $C4, $92, $13, $1A
04845  8B12  05 CA 81              BYTE $05, $CA, $81, $00, $00
04846  8B17  05 CA 82              BYTE $05, $CA, $82, $00, $00
04847  8B1C  05 CA 90              BYTE $05, $CA, $90, $E2, $04
04848  8B21  05 CA 91              BYTE $05, $CA, $91, $DA, $20
04849  8B26  05 CA 92              BYTE $05, $CA, $92, $13, $1A
04850  8B2B  05 D0 81              BYTE $05, $D0, $81, $00, $00
04851  8B30  05 D0 82              BYTE $05, $D0, $82, $00, $00
04852  8B35  05 D0 90              BYTE $05, $D0, $90, $CF, $05
04853  8B3A  05 D6 91              BYTE $05, $D6, $91, $CE, $22
04854  8B3F  05 D6 92              BYTE $05, $D6, $92, $45, $1D
04855  8B44  05 DC 81              BYTE $05, $DC, $81, $00, $00
04856  8B49  05 DC 82              BYTE $05, $DC, $82, $00, $00
04857  8B4E  05 DC 90              BYTE $05, $DC, $90, $85, $06
04858  8B53  05 E8 90              BYTE $05, $E8, $90, $51, $07
04859  8B58  05 F4 90              BYTE $05, $F4, $90, $E2, $04
04860  8B5D  05 F4 91              BYTE $05, $F4, $91, $11, $27
04861  8B62  05 F4 92              BYTE $05, $F4, $92, $DA, $20
04862  8B67  05 FA 81              BYTE $05, $FA, $81, $00, $00
04863  8B6C  05 FA 82              BYTE $05, $FA, $82, $00, $00
04864  8B71  05 FA 91              BYTE $05, $FA, $91, $11, $27
04865  8B76  05 FA 92              BYTE $05, $FA, $92, $DA, $20
04866  8B7B  05 FF 81              BYTE $05, $FF, $81, $00, $00
04867  8B80  05 FF 82              BYTE $05, $FF, $82, $00, $00
04868  8B85  06 06 91              BYTE $06, $06, $91, $11, $27
04869  8B8A  06 06 92              BYTE $06, $06, $92, $DA, $20
04870  8B8F  06 0B 81              BYTE $06, $0B, $81, $00, $00
04871  8B94  06 0B 82              BYTE $06, $0B, $82, $00, $00
04872  8B99  06 0C 90              BYTE $06, $0C, $90, $CF, $05
04873  8B9E  06 18 90              BYTE $06, $18, $90, $E2, $04
04874  8BA3  06 18 91              BYTE $06, $18, $91, $11, $27
04875  8BA8  06 18 92              BYTE $06, $18, $92, $DA, $20
04876  8BAD  06 1D 81              BYTE $06, $1D, $81, $00, $00
04877  8BB2  06 1D 82              BYTE $06, $1D, $82, $00, $00
04878  8BB7  06 1D 90              BYTE $06, $1D, $90, $85, $06
04879  8BBC  06 23 91              BYTE $06, $23, $91, $CE, $22
04880  8BC1  06 23 92              BYTE $06, $23, $92, $45, $1D
04881  8BC6  06 29 81              BYTE $06, $29, $81, $00, $00
04882  8BCB  06 29 82              BYTE $06, $29, $82, $00, $00
04883  8BD0  06 29 90              BYTE $06, $29, $90, $E2, $04
04884  8BD5  06 29 91              BYTE $06, $29, $91, $CE, $22
04885  8BDA  06 29 92              BYTE $06, $29, $92, $45, $1D
04886  8BDF  06 2F 81              BYTE $06, $2F, $81, $00, $00
04887  8BE4  06 2F 82              BYTE $06, $2F, $82, $00, $00
04888  8BE9  06 2F 90              BYTE $06, $2F, $90, $CF, $05
04889  8BEE  06 35 91              BYTE $06, $35, $91, $CE, $22
04890  8BF3  06 35 92              BYTE $06, $35, $92, $45, $1D
04891  8BF8  06 3B 81              BYTE $06, $3B, $81, $00, $00
04892  8BFD  06 3B 82              BYTE $06, $3B, $82, $00, $00
04893  8C02  06 3B 90              BYTE $06, $3B, $90, $85, $06
04894  8C07  06 47 90              BYTE $06, $47, $90, $51, $07
04895  8C0C  06 53 90              BYTE $06, $53, $90, $E2, $04
04896  8C11  06 53 91              BYTE $06, $53, $91, $CE, $22
04897  8C16  06 53 92              BYTE $06, $53, $92, $45, $1D
04898  8C1B  06 59 81              BYTE $06, $59, $81, $00, $00
04899  8C20  06 59 82              BYTE $06, $59, $82, $00, $00
04900  8C25  06 59 91              BYTE $06, $59, $91, $CE, $22
04901  8C2A  06 59 92              BYTE $06, $59, $92, $45, $1D
04902  8C2F  06 5F 81              BYTE $06, $5F, $81, $00, $00
04903  8C34  06 5F 82              BYTE $06, $5F, $82, $00, $00
04904  8C39  06 65 91              BYTE $06, $65, $91, $CE, $22
04905  8C3E  06 65 92              BYTE $06, $65, $92, $45, $1D
04906  8C43  06 6B 81              BYTE $06, $6B, $81, $00, $00
04907  8C48  06 6B 82              BYTE $06, $6B, $82, $00, $00
04908  8C4D  06 6B 90              BYTE $06, $6B, $90, $CF, $05
04909  8C52  06 77 90              BYTE $06, $77, $90, $E2, $04
04910  8C57  06 77 91              BYTE $06, $77, $91, $CE, $22
04911  8C5C  06 77 92              BYTE $06, $77, $92, $45, $1D
04912  8C61  06 7C 81              BYTE $06, $7C, $81, $00, $00
04913  8C66  06 7C 82              BYTE $06, $7C, $82, $00, $00
04914  8C6B  06 7D 90              BYTE $06, $7D, $90, $85, $06
04915  8C70  06 83 91              BYTE $06, $83, $91, $DA, $20
04916  8C75  06 83 92              BYTE $06, $83, $92, $13, $1A
04917  8C7A  06 88 81              BYTE $06, $88, $81, $00, $00
04918  8C7F  06 88 82              BYTE $06, $88, $82, $00, $00
04919  8C84  06 89 90              BYTE $06, $89, $90, $E2, $04
04920  8C89  06 89 91              BYTE $06, $89, $91, $DA, $20
04921  8C8E  06 89 92              BYTE $06, $89, $92, $13, $1A
04922  8C93  06 8E 81              BYTE $06, $8E, $81, $00, $00
04923  8C98  06 8E 82              BYTE $06, $8E, $82, $00, $00
04924  8C9D  06 8F 90              BYTE $06, $8F, $90, $CF, $05
04925  8CA2  06 95 91              BYTE $06, $95, $91, $CE, $22
04926  8CA7  06 95 92              BYTE $06, $95, $92, $45, $1D
04927  8CAC  06 9A 81              BYTE $06, $9A, $81, $00, $00
04928  8CB1  06 9A 82              BYTE $06, $9A, $82, $00, $00
04929  8CB6  06 9A 90              BYTE $06, $9A, $90, $85, $06
04930  8CBB  06 A6 90              BYTE $06, $A6, $90, $51, $07
04931  8CC0  06 B2 90              BYTE $06, $B2, $90, $E2, $04
04932  8CC5  06 B2 91              BYTE $06, $B2, $91, $11, $27
04933  8CCA  06 B2 92              BYTE $06, $B2, $92, $DA, $20
04934  8CCF  06 B8 81              BYTE $06, $B8, $81, $00, $00
04935  8CD4  06 B8 82              BYTE $06, $B8, $82, $00, $00
04936  8CD9  06 B8 91              BYTE $06, $B8, $91, $11, $27
04937  8CDE  06 B8 92              BYTE $06, $B8, $92, $DA, $20
04938  8CE3  06 BE 81              BYTE $06, $BE, $81, $00, $00
04939  8CE8  06 BE 82              BYTE $06, $BE, $82, $00, $00
04940  8CED  06 C4 91              BYTE $06, $C4, $91, $11, $27
04941  8CF2  06 C4 92              BYTE $06, $C4, $92, $DA, $20
04942  8CF7  06 CA 81              BYTE $06, $CA, $81, $00, $00
04943  8CFC  06 CA 82              BYTE $06, $CA, $82, $00, $00
04944  8D01  06 CA 90              BYTE $06, $CA, $90, $CF, $05
04945  8D06  06 D6 90              BYTE $06, $D6, $90, $E2, $04
04946  8D0B  06 D6 91              BYTE $06, $D6, $91, $11, $27
04947  8D10  06 D6 92              BYTE $06, $D6, $92, $DA, $20
04948  8D15  06 DC 81              BYTE $06, $DC, $81, $00, $00
04949  8D1A  06 DC 82              BYTE $06, $DC, $82, $00, $00
04950  8D1F  06 DC 90              BYTE $06, $DC, $90, $85, $06
04951  8D24  06 E2 91              BYTE $06, $E2, $91, $CE, $22
04952  8D29  06 E2 92              BYTE $06, $E2, $92, $45, $1D
04953  8D2E  06 E8 81              BYTE $06, $E8, $81, $00, $00
04954  8D33  06 E8 82              BYTE $06, $E8, $82, $00, $00
04955  8D38  06 E8 90              BYTE $06, $E8, $90, $E2, $04
04956  8D3D  06 E8 91              BYTE $06, $E8, $91, $CE, $22
04957  8D42  06 E8 92              BYTE $06, $E8, $92, $45, $1D
04958  8D47  06 EE 81              BYTE $06, $EE, $81, $00, $00
04959  8D4C  06 EE 82              BYTE $06, $EE, $82, $00, $00
04960  8D51  06 EE 90              BYTE $06, $EE, $90, $CF, $05
04961  8D56  06 F4 91              BYTE $06, $F4, $91, $CE, $22
04962  8D5B  06 F4 92              BYTE $06, $F4, $92, $45, $1D
04963  8D60  06 F9 81              BYTE $06, $F9, $81, $00, $00
04964  8D65  06 F9 82              BYTE $06, $F9, $82, $00, $00
04965  8D6A  06 FA 90              BYTE $06, $FA, $90, $85, $06
04966  8D6F  07 06 90              BYTE $07, $06, $90, $51, $07
04967  8D74  07 12 90              BYTE $07, $12, $90, $E2, $04
04968  8D79  07 12 C1              BYTE $07, $12, $C1, $02, $00
04969  8D7E  07 12 91              BYTE $07, $12, $91, $89, $13
04970  8D83  07 12 C2              BYTE $07, $12, $C2, $02, $00
04971  8D88  07 17 81              BYTE $07, $17, $81, $00, $00
04972  8D8D  07 1D 91              BYTE $07, $1D, $91, $26, $34
04973  8D92  07 1D 92              BYTE $07, $1D, $92, $89, $13
04974  8D97  07 23 81              BYTE $07, $23, $81, $00, $00
04975  8D9C  07 23 82              BYTE $07, $23, $82, $00, $00
04976  8DA1  07 29 90              BYTE $07, $29, $90, $CF, $05
04977  8DA6  07 29 91              BYTE $07, $29, $91, $89, $13
04978  8DAB  07 2F 81              BYTE $07, $2F, $81, $00, $00
04979  8DB0  07 2F 91              BYTE $07, $2F, $91, $76, $2E
04980  8DB5  07 2F 92              BYTE $07, $2F, $92, $89, $13
04981  8DBA  07 35 81              BYTE $07, $35, $81, $00, $00
04982  8DBF  07 35 82              BYTE $07, $35, $82, $00, $00
04983  8DC4  07 35 90              BYTE $07, $35, $90, $E2, $04
04984  8DC9  07 3B 90              BYTE $07, $3B, $90, $85, $06
04985  8DCE  07 3B 91              BYTE $07, $3B, $91, $89, $13
04986  8DD3  07 41 81              BYTE $07, $41, $81, $00, $00
04987  8DD8  07 41 91              BYTE $07, $41, $91, $CE, $22
04988  8DDD  07 41 92              BYTE $07, $41, $92, $89, $13
04989  8DE2  07 47 81              BYTE $07, $47, $81, $00, $00
04990  8DE7  07 47 82              BYTE $07, $47, $82, $00, $00
04991  8DEC  07 47 90              BYTE $07, $47, $90, $E2, $04
04992  8DF1  07 4D 90              BYTE $07, $4D, $90, $CF, $05
04993  8DF6  07 4D C1              BYTE $07, $4D, $C1, $01, $00
04994  8DFB  07 4D 91              BYTE $07, $4D, $91, $CE, $22
04995  8E00  07 4D 92              BYTE $07, $4D, $92, $89, $13
04996  8E05  07 53 81              BYTE $07, $53, $81, $00, $00
04997  8E0A  07 53 82              BYTE $07, $53, $82, $00, $00
04998  8E0F  07 53 91              BYTE $07, $53, $91, $DA, $2B
04999  8E14  07 53 92              BYTE $07, $53, $92, $CE, $22
05000  8E19  07 59 81              BYTE $07, $59, $81, $00, $00
05001  8E1E  07 59 82              BYTE $07, $59, $82, $00, $00
05002  8E23  07 59 90              BYTE $07, $59, $90, $85, $06
05003  8E28  07 59 C1              BYTE $07, $59, $C1, $02, $00
05004  8E2D  07 59 91              BYTE $07, $59, $91, $89, $13
05005  8E32  07 5F 81              BYTE $07, $5F, $81, $00, $00
05006  8E37  07 5F C1              BYTE $07, $5F, $C1, $01, $00
05007  8E3C  07 5F 91              BYTE $07, $5F, $91, $CE, $22
05008  8E41  07 5F 92              BYTE $07, $5F, $92, $89, $13
05009  8E46  07 65 81              BYTE $07, $65, $81, $00, $00
05010  8E4B  07 65 82              BYTE $07, $65, $82, $00, $00
05011  8E50  07 65 90              BYTE $07, $65, $90, $51, $07
05012  8E55  07 65 91              BYTE $07, $65, $91, $DA, $2B
05013  8E5A  07 65 92              BYTE $07, $65, $92, $11, $27
05014  8E5F  07 6B 81              BYTE $07, $6B, $81, $00, $00
05015  8E64  07 6B 82              BYTE $07, $6B, $82, $00, $00
05016  8E69  07 6B 91              BYTE $07, $6B, $91, $CE, $22
05017  8E6E  07 71 81              BYTE $07, $71, $81, $00, $00
05018  8E73  07 71 90              BYTE $07, $71, $90, $E2, $04
05019  8E78  07 71 C1              BYTE $07, $71, $C1, $02, $00
05020  8E7D  07 71 91              BYTE $07, $71, $91, $89, $13
05021  8E82  07 76 81              BYTE $07, $76, $81, $00, $00
05022  8E87  07 7D 91              BYTE $07, $7D, $91, $26, $34
05023  8E8C  07 7D 92              BYTE $07, $7D, $92, $89, $13
05024  8E91  07 82 81              BYTE $07, $82, $81, $00, $00
05025  8E96  07 82 82              BYTE $07, $82, $82, $00, $00
05026  8E9B  07 83 91              BYTE $07, $83, $91, $89, $13
05027  8EA0  07 88 81              BYTE $07, $88, $81, $00, $00
05028  8EA5  07 89 90              BYTE $07, $89, $90, $CF, $05
05029  8EAA  07 89 91              BYTE $07, $89, $91, $89, $13
05030  8EAF  07 8E 81              BYTE $07, $8E, $81, $00, $00
05031  8EB4  07 8F 91              BYTE $07, $8F, $91, $76, $2E
05032  8EB9  07 94 81              BYTE $07, $94, $81, $00, $00
05033  8EBE  07 94 90              BYTE $07, $94, $90, $E2, $04
05034  8EC3  07 94 91              BYTE $07, $94, $91, $89, $13
05035  8EC8  07 9A 81              BYTE $07, $9A, $81, $00, $00
05036  8ECD  07 9A 90              BYTE $07, $9A, $90, $85, $06
05037  8ED2  07 9A 91              BYTE $07, $9A, $91, $89, $13
05038  8ED7  07 A0 81              BYTE $07, $A0, $81, $00, $00
05039  8EDC  07 A0 91              BYTE $07, $A0, $91, $CE, $22
05040  8EE1  07 A6 81              BYTE $07, $A6, $81, $00, $00
05041  8EE6  07 A6 90              BYTE $07, $A6, $90, $E2, $04
05042  8EEB  07 A6 91              BYTE $07, $A6, $91, $89, $13
05043  8EF0  07 AC 81              BYTE $07, $AC, $81, $00, $00
05044  8EF5  07 AC 90              BYTE $07, $AC, $90, $CF, $05
05045  8EFA  07 AC 91              BYTE $07, $AC, $91, $CE, $22
05046  8EFF  07 B2 81              BYTE $07, $B2, $81, $00, $00
05047  8F04  07 B2 91              BYTE $07, $B2, $91, $89, $13
05048  8F09  07 B8 81              BYTE $07, $B8, $81, $00, $00
05049  8F0E  07 B8 90              BYTE $07, $B8, $90, $85, $06
05050  8F13  07 B8 91              BYTE $07, $B8, $91, $CE, $22
05051  8F18  07 B8 92              BYTE $07, $B8, $92, $89, $13
05052  8F1D  07 BE 81              BYTE $07, $BE, $81, $00, $00
05053  8F22  07 BE 82              BYTE $07, $BE, $82, $00, $00
05054  8F27  07 BE 91              BYTE $07, $BE, $91, $11, $27
05055  8F2C  07 BE 92              BYTE $07, $BE, $92, $89, $13
05056  8F31  07 C4 81              BYTE $07, $C4, $81, $00, $00
05057  8F36  07 C4 82              BYTE $07, $C4, $82, $00, $00
05058  8F3B  07 C4 90              BYTE $07, $C4, $90, $51, $07
05059  8F40  07 C4 91              BYTE $07, $C4, $91, $89, $13
05060  8F45  07 CA 81              BYTE $07, $CA, $81, $00, $00
05061  8F4A  07 D0 90              BYTE $07, $D0, $90, $E2, $04
05062  8F4F  07 D0 91              BYTE $07, $D0, $91, $89, $13
05063  8F54  07 D6 81              BYTE $07, $D6, $81, $00, $00
05064  8F59  07 DC 91              BYTE $07, $DC, $91, $26, $34
05065  8F5E  07 DC 92              BYTE $07, $DC, $92, $89, $13
05066  8F63  07 E2 81              BYTE $07, $E2, $81, $00, $00
05067  8F68  07 E2 82              BYTE $07, $E2, $82, $00, $00
05068  8F6D  07 E8 90              BYTE $07, $E8, $90, $CF, $05
05069  8F72  07 E8 91              BYTE $07, $E8, $91, $89, $13
05070  8F77  07 EE 81              BYTE $07, $EE, $81, $00, $00
05071  8F7C  07 EE 91              BYTE $07, $EE, $91, $76, $2E
05072  8F81  07 EE 92              BYTE $07, $EE, $92, $89, $13
05073  8F86  07 F3 81              BYTE $07, $F3, $81, $00, $00
05074  8F8B  07 F3 82              BYTE $07, $F3, $82, $00, $00
05075  8F90  07 F4 90              BYTE $07, $F4, $90, $E2, $04
05076  8F95  07 FA 90              BYTE $07, $FA, $90, $85, $06
05077  8F9A  07 FA 91              BYTE $07, $FA, $91, $89, $13
05078  8F9F  07 FF 81              BYTE $07, $FF, $81, $00, $00
05079  8FA4  08 00 91              BYTE $08, $00, $91, $CE, $22
05080  8FA9  08 00 92              BYTE $08, $00, $92, $89, $13
05081  8FAE  08 05 81              BYTE $08, $05, $81, $00, $00
05082  8FB3  08 05 82              BYTE $08, $05, $82, $00, $00
05083  8FB8  08 06 90              BYTE $08, $06, $90, $E2, $04
05084  8FBD  08 0C 90              BYTE $08, $0C, $90, $CF, $05
05085  8FC2  08 0C C1              BYTE $08, $0C, $C1, $01, $00
05086  8FC7  08 0C 91              BYTE $08, $0C, $91, $CE, $22
05087  8FCC  08 0C 92              BYTE $08, $0C, $92, $89, $13
05088  8FD1  08 11 81              BYTE $08, $11, $81, $00, $00
05089  8FD6  08 11 82              BYTE $08, $11, $82, $00, $00
05090  8FDB  08 11 91              BYTE $08, $11, $91, $DA, $2B
05091  8FE0  08 11 92              BYTE $08, $11, $92, $CE, $22
05092  8FE5  08 17 81              BYTE $08, $17, $81, $00, $00
05093  8FEA  08 17 82              BYTE $08, $17, $82, $00, $00
05094  8FEF  08 17 90              BYTE $08, $17, $90, $85, $06
05095  8FF4  08 17 C1              BYTE $08, $17, $C1, $02, $00
05096  8FF9  08 17 91              BYTE $08, $17, $91, $89, $13
05097  8FFE  08 1D 81              BYTE $08, $1D, $81, $00, $00
05098  9003  08 1D C1              BYTE $08, $1D, $C1, $01, $00
05099  9008  08 1D 91              BYTE $08, $1D, $91, $CE, $22
05100  900D  08 1D 92              BYTE $08, $1D, $92, $89, $13
05101  9012  08 23 81              BYTE $08, $23, $81, $00, $00
05102  9017  08 23 82              BYTE $08, $23, $82, $00, $00
05103  901C  08 23 90              BYTE $08, $23, $90, $51, $07
05104  9021  08 23 91              BYTE $08, $23, $91, $DA, $2B
05105  9026  08 23 92              BYTE $08, $23, $92, $11, $27
05106  902B  08 29 81              BYTE $08, $29, $81, $00, $00
05107  9030  08 29 82              BYTE $08, $29, $82, $00, $00
05108  9035  08 29 91              BYTE $08, $29, $91, $CE, $22
05109  903A  08 2F 81              BYTE $08, $2F, $81, $00, $00
05110  903F  08 2F 90              BYTE $08, $2F, $90, $E2, $04
05111  9044  08 2F C1              BYTE $08, $2F, $C1, $02, $00
05112  9049  08 2F 91              BYTE $08, $2F, $91, $89, $13
05113  904E  08 35 81              BYTE $08, $35, $81, $00, $00
05114  9053  08 3B 91              BYTE $08, $3B, $91, $26, $34
05115  9058  08 3B 92              BYTE $08, $3B, $92, $89, $13
05116  905D  08 41 81              BYTE $08, $41, $81, $00, $00
05117  9062  08 41 82              BYTE $08, $41, $82, $00, $00
05118  9067  08 41 91              BYTE $08, $41, $91, $89, $13
05119  906C  08 47 81              BYTE $08, $47, $81, $00, $00
05120  9071  08 47 90              BYTE $08, $47, $90, $CF, $05
05121  9076  08 47 91              BYTE $08, $47, $91, $89, $13
05122  907B  08 4D 81              BYTE $08, $4D, $81, $00, $00
05123  9080  08 4D 91              BYTE $08, $4D, $91, $76, $2E
05124  9085  08 53 81              BYTE $08, $53, $81, $00, $00
05125  908A  08 53 90              BYTE $08, $53, $90, $E2, $04
05126  908F  08 53 91              BYTE $08, $53, $91, $89, $13
05127  9094  08 59 81              BYTE $08, $59, $81, $00, $00
05128  9099  08 59 90              BYTE $08, $59, $90, $85, $06
05129  909E  08 59 91              BYTE $08, $59, $91, $89, $13
05130  90A3  08 5F 81              BYTE $08, $5F, $81, $00, $00
05131  90A8  08 5F 91              BYTE $08, $5F, $91, $CE, $22
05132  90AD  08 65 81              BYTE $08, $65, $81, $00, $00
05133  90B2  08 65 90              BYTE $08, $65, $90, $E2, $04
05134  90B7  08 65 91              BYTE $08, $65, $91, $89, $13
05135  90BC  08 6B 81              BYTE $08, $6B, $81, $00, $00
05136  90C1  08 6B 90              BYTE $08, $6B, $90, $CF, $05
05137  90C6  08 6B 91              BYTE $08, $6B, $91, $CE, $22
05138  90CB  08 70 81              BYTE $08, $70, $81, $00, $00
05139  90D0  08 71 91              BYTE $08, $71, $91, $89, $13
05140  90D5  08 76 81              BYTE $08, $76, $81, $00, $00
05141  90DA  08 77 90              BYTE $08, $77, $90, $85, $06
05142  90DF  08 77 91              BYTE $08, $77, $91, $CE, $22
05143  90E4  08 77 92              BYTE $08, $77, $92, $89, $13
05144  90E9  08 7C 81              BYTE $08, $7C, $81, $00, $00
05145  90EE  08 7C 82              BYTE $08, $7C, $82, $00, $00
05146  90F3  08 7D 91              BYTE $08, $7D, $91, $11, $27
05147  90F8  08 7D 92              BYTE $08, $7D, $92, $89, $13
05148  90FD  08 82 81              BYTE $08, $82, $81, $00, $00
05149  9102  08 82 82              BYTE $08, $82, $82, $00, $00
05150  9107  08 83 90              BYTE $08, $83, $90, $51, $07
05151  910C  08 83 91              BYTE $08, $83, $91, $89, $13
05152  9111  08 88 81              BYTE $08, $88, $81, $00, $00
05153  9116  08 8E 90              BYTE $08, $8E, $90, $E2, $04
05154  911B  08 8E 91              BYTE $08, $8E, $91, $89, $13
05155  9120  08 94 81              BYTE $08, $94, $81, $00, $00
05156  9125  08 9A 91              BYTE $08, $9A, $91, $26, $34
05157  912A  08 9A 92              BYTE $08, $9A, $92, $89, $13
05158  912F  08 A0 81              BYTE $08, $A0, $81, $00, $00
05159  9134  08 A0 82              BYTE $08, $A0, $82, $00, $00
05160  9139  08 A6 90              BYTE $08, $A6, $90, $CF, $05
05161  913E  08 A6 91              BYTE $08, $A6, $91, $89, $13
05162  9143  08 AC 81              BYTE $08, $AC, $81, $00, $00
05163  9148  08 AC 91              BYTE $08, $AC, $91, $76, $2E
05164  914D  08 AC 92              BYTE $08, $AC, $92, $89, $13
05165  9152  08 B2 81              BYTE $08, $B2, $81, $00, $00
05166  9157  08 B2 82              BYTE $08, $B2, $82, $00, $00
05167  915C  08 B2 90              BYTE $08, $B2, $90, $E2, $04
05168  9161  08 B8 90              BYTE $08, $B8, $90, $85, $06
05169  9166  08 B8 91              BYTE $08, $B8, $91, $89, $13
05170  916B  08 BE 81              BYTE $08, $BE, $81, $00, $00
05171  9170  08 BE 91              BYTE $08, $BE, $91, $CE, $22
05172  9175  08 BE 92              BYTE $08, $BE, $92, $89, $13
05173  917A  08 C4 81              BYTE $08, $C4, $81, $00, $00
05174  917F  08 C4 82              BYTE $08, $C4, $82, $00, $00
05175  9184  08 C4 90              BYTE $08, $C4, $90, $E2, $04
05176  9189  08 CA 90              BYTE $08, $CA, $90, $CF, $05
05177  918E  08 CA 91              BYTE $08, $CA, $91, $89, $13
05178  9193  08 D0 81              BYTE $08, $D0, $81, $00, $00
05179  9198  08 D0 91              BYTE $08, $D0, $91, $CE, $22
05180  919D  08 D0 92              BYTE $08, $D0, $92, $89, $13
05181  91A2  08 D6 81              BYTE $08, $D6, $81, $00, $00
05182  91A7  08 D6 82              BYTE $08, $D6, $82, $00, $00
05183  91AC  08 D6 90              BYTE $08, $D6, $90, $85, $06
05184  91B1  08 D6 91              BYTE $08, $D6, $91, $89, $13
05185  91B6  08 DC 81              BYTE $08, $DC, $81, $00, $00
05186  91BB  08 DC 91              BYTE $08, $DC, $91, $89, $13
05187  91C0  08 E2 81              BYTE $08, $E2, $81, $00, $00
05188  91C5  08 E2 90              BYTE $08, $E2, $90, $51, $07
05189  91CA  08 E2 91              BYTE $08, $E2, $91, $11, $27
05190  91CF  08 E2 92              BYTE $08, $E2, $92, $89, $13
05191  91D4  08 E8 81              BYTE $08, $E8, $81, $00, $00
05192  91D9  08 E8 82              BYTE $08, $E8, $82, $00, $00
05193  91DE  08 EE 80              BYTE $08, $EE, $80, $00, $00
05194  91E3  08 EE 91              BYTE $08, $EE, $91, $9C, $45
05195  91E8  08 EE C1              BYTE $08, $EE, $C1, $00, $00
05196  91ED  08 EE 92              BYTE $08, $EE, $92, $45, $1D
05197  91F2  08 F3 82              BYTE $08, $F3, $82, $00, $00
05198  91F7  08 F4 81              BYTE $08, $F4, $81, $00, $00
05199  91FC  08 F4 91              BYTE $08, $F4, $91, $23, $4E
05200  9201  08 FA 92              BYTE $08, $FA, $92, $45, $1D
05201  9206  08 FF 82              BYTE $08, $FF, $82, $00, $00
05202  920B  09 06 90              BYTE $09, $06, $90, $CF, $05
05203  9210  09 06 92              BYTE $09, $06, $92, $45, $1D
05204  9215  09 0B 82              BYTE $09, $0B, $82, $00, $00
05205  921A  09 0B 92              BYTE $09, $0B, $92, $45, $1D
05206  921F  09 11 82              BYTE $09, $11, $82, $00, $00
05207  9224  09 11 90              BYTE $09, $11, $90, $E2, $04
05208  9229  09 17 90              BYTE $09, $17, $90, $85, $06
05209  922E  09 17 92              BYTE $09, $17, $92, $45, $1D
05210  9233  09 1D 82              BYTE $09, $1D, $82, $00, $00
05211  9238  09 1D 92              BYTE $09, $1D, $92, $45, $1D
05212  923D  09 23 82              BYTE $09, $23, $82, $00, $00
05213  9242  09 23 90              BYTE $09, $23, $90, $E2, $04
05214  9247  09 29 90              BYTE $09, $29, $90, $CF, $05
05215  924C  09 29 92              BYTE $09, $29, $92, $45, $1D
05216  9251  09 2F 82              BYTE $09, $2F, $82, $00, $00
05217  9256  09 2F 92              BYTE $09, $2F, $92, $45, $1D
05218  925B  09 35 82              BYTE $09, $35, $82, $00, $00
05219  9260  09 35 90              BYTE $09, $35, $90, $85, $06
05220  9265  09 35 81              BYTE $09, $35, $81, $00, $00
05221  926A  09 35 91              BYTE $09, $35, $91, $9C, $45
05222  926F  09 35 92              BYTE $09, $35, $92, $45, $1D
05223  9274  09 3B 82              BYTE $09, $3B, $82, $00, $00
05224  9279  09 3B 92              BYTE $09, $3B, $92, $45, $1D
05225  927E  09 41 82              BYTE $09, $41, $82, $00, $00
05226  9283  09 41 90              BYTE $09, $41, $90, $51, $07
05227  9288  09 41 81              BYTE $09, $41, $81, $00, $00
05228  928D  09 41 91              BYTE $09, $41, $91, $23, $4E
05229  9292  09 41 92              BYTE $09, $41, $92, $45, $1D
05230  9297  09 47 82              BYTE $09, $47, $82, $00, $00
05231  929C  09 4D 90              BYTE $09, $4D, $90, $E2, $04
05232  92A1  09 4D 81              BYTE $09, $4D, $81, $00, $00
05233  92A6  09 4D 91              BYTE $09, $4D, $91, $B4, $57
05234  92AB  09 4D 92              BYTE $09, $4D, $92, $45, $1D
05235  92B0  09 53 82              BYTE $09, $53, $82, $00, $00
05236  92B5  09 59 92              BYTE $09, $59, $92, $45, $1D
05237  92BA  09 5F 82              BYTE $09, $5F, $82, $00, $00
05238  92BF  09 5F 92              BYTE $09, $5F, $92, $45, $1D
05239  92C4  09 65 82              BYTE $09, $65, $82, $00, $00
05240  92C9  09 65 80              BYTE $09, $65, $80, $00, $00
05241  92CE  09 65 92              BYTE $09, $65, $92, $45, $1D
05242  92D3  09 6A 82              BYTE $09, $6A, $82, $00, $00
05243  92D8  09 71 81              BYTE $09, $71, $81, $00, $00
05244  92DD  09 71 91              BYTE $09, $71, $91, $9C, $45
05245  92E2  09 71 92              BYTE $09, $71, $92, $45, $1D
05246  92E7  09 76 82              BYTE $09, $76, $82, $00, $00
05247  92EC  09 77 92              BYTE $09, $77, $92, $45, $1D
05248  92F1  09 7C 82              BYTE $09, $7C, $82, $00, $00
05249  92F6  09 83 92              BYTE $09, $83, $92, $45, $1D
05250  92FB  09 88 82              BYTE $09, $88, $82, $00, $00
05251  9300  09 8E 92              BYTE $09, $8E, $92, $45, $1D
05252  9305  09 94 82              BYTE $09, $94, $82, $00, $00
05253  930A  09 94 81              BYTE $09, $94, $81, $00, $00
05254  930F  09 94 91              BYTE $09, $94, $91, $89, $3A
05255  9314  09 94 92              BYTE $09, $94, $92, $45, $1D
05256  9319  09 9A 82              BYTE $09, $9A, $82, $00, $00
05257  931E  09 9A 92              BYTE $09, $9A, $92, $45, $1D
05258  9323  09 A0 82              BYTE $09, $A0, $82, $00, $00
05259  9328  09 A0 92              BYTE $09, $A0, $92, $45, $1D
05260  932D  09 A6 82              BYTE $09, $A6, $82, $00, $00
05261  9332  09 AC 90              BYTE $09, $AC, $90, $E2, $04
05262  9337  09 AC 81              BYTE $09, $AC, $81, $00, $00
05263  933C  09 AC 91              BYTE $09, $AC, $91, $23, $4E
05264  9341  09 AC 92              BYTE $09, $AC, $92, $45, $1D
05265  9346  09 B2 82              BYTE $09, $B2, $82, $00, $00
05266  934B  09 B8 92              BYTE $09, $B8, $92, $45, $1D
05267  9350  09 BE 82              BYTE $09, $BE, $82, $00, $00
05268  9355  09 C4 90              BYTE $09, $C4, $90, $CF, $05
05269  935A  09 C4 92              BYTE $09, $C4, $92, $45, $1D
05270  935F  09 CA 82              BYTE $09, $CA, $82, $00, $00
05271  9364  09 CA 92              BYTE $09, $CA, $92, $45, $1D
05272  9369  09 D0 82              BYTE $09, $D0, $82, $00, $00
05273  936E  09 D0 90              BYTE $09, $D0, $90, $E2, $04
05274  9373  09 D6 90              BYTE $09, $D6, $90, $85, $06
05275  9378  09 D6 92              BYTE $09, $D6, $92, $45, $1D
05276  937D  09 DC 82              BYTE $09, $DC, $82, $00, $00
05277  9382  09 DC 92              BYTE $09, $DC, $92, $45, $1D
05278  9387  09 E2 82              BYTE $09, $E2, $82, $00, $00
05279  938C  09 E2 90              BYTE $09, $E2, $90, $E2, $04
05280  9391  09 E8 90              BYTE $09, $E8, $90, $CF, $05
05281  9396  09 E8 92              BYTE $09, $E8, $92, $45, $1D
05282  939B  09 ED 82              BYTE $09, $ED, $82, $00, $00
05283  93A0  09 EE 92              BYTE $09, $EE, $92, $45, $1D
05284  93A5  09 F3 82              BYTE $09, $F3, $82, $00, $00
05285  93AA  09 F4 90              BYTE $09, $F4, $90, $85, $06
05286  93AF  09 F4 81              BYTE $09, $F4, $81, $00, $00
05287  93B4  09 F4 91              BYTE $09, $F4, $91, $9C, $45
05288  93B9  09 F4 92              BYTE $09, $F4, $92, $45, $1D
05289  93BE  09 F9 82              BYTE $09, $F9, $82, $00, $00
05290  93C3  09 FA 92              BYTE $09, $FA, $92, $45, $1D
05291  93C8  09 FF 82              BYTE $09, $FF, $82, $00, $00
05292  93CD  0A 00 90              BYTE $0A, $00, $90, $51, $07
05293  93D2  0A 00 81              BYTE $0A, $00, $81, $00, $00
05294  93D7  0A 00 91              BYTE $0A, $00, $91, $23, $4E
05295  93DC  0A 00 92              BYTE $0A, $00, $92, $45, $1D
05296  93E1  0A 05 82              BYTE $0A, $05, $82, $00, $00
05297  93E6  0A 0B 90              BYTE $0A, $0B, $90, $E2, $04
05298  93EB  0A 0B 81              BYTE $0A, $0B, $81, $00, $00
05299  93F0  0A 0B 91              BYTE $0A, $0B, $91, $4C, $68
05300  93F5  0A 0B 92              BYTE $0A, $0B, $92, $45, $1D
05301  93FA  0A 11 82              BYTE $0A, $11, $82, $00, $00
05302  93FF  0A 17 92              BYTE $0A, $17, $92, $45, $1D
05303  9404  0A 1D 82              BYTE $0A, $1D, $82, $00, $00
05304  9409  0A 1D 92              BYTE $0A, $1D, $92, $45, $1D
05305  940E  0A 23 82              BYTE $0A, $23, $82, $00, $00
05306  9413  0A 23 80              BYTE $0A, $23, $80, $00, $00
05307  9418  0A 23 92              BYTE $0A, $23, $92, $45, $1D
05308  941D  0A 29 82              BYTE $0A, $29, $82, $00, $00
05309  9422  0A 2F 81              BYTE $0A, $2F, $81, $00, $00
05310  9427  0A 2F 91              BYTE $0A, $2F, $91, $B4, $57
05311  942C  0A 2F 92              BYTE $0A, $2F, $92, $45, $1D
05312  9431  0A 35 82              BYTE $0A, $35, $82, $00, $00
05313  9436  0A 35 92              BYTE $0A, $35, $92, $45, $1D
05314  943B  0A 3B 82              BYTE $0A, $3B, $82, $00, $00
05315  9440  0A 41 92              BYTE $0A, $41, $92, $45, $1D
05316  9445  0A 47 82              BYTE $0A, $47, $82, $00, $00
05317  944A  0A 4D 92              BYTE $0A, $4D, $92, $45, $1D
05318  944F  0A 53 82              BYTE $0A, $53, $82, $00, $00
05319  9454  0A 53 81              BYTE $0A, $53, $81, $00, $00
05320  9459  0A 53 91              BYTE $0A, $53, $91, $9C, $45
05321  945E  0A 53 92              BYTE $0A, $53, $92, $45, $1D
05322  9463  0A 59 82              BYTE $0A, $59, $82, $00, $00
05323  9468  0A 59 92              BYTE $0A, $59, $92, $45, $1D
05324  946D  0A 5F 82              BYTE $0A, $5F, $82, $00, $00
05325  9472  0A 5F 92              BYTE $0A, $5F, $92, $45, $1D
05326  9477  0A 64 82              BYTE $0A, $64, $82, $00, $00
05327  947C  0A 68 81              BYTE $0A, $68, $81, $00, $00
05328  9481  0A 6B 90              BYTE $0A, $6B, $90, $E2, $04
05329  9486  0A 6B 91              BYTE $0A, $6B, $91, $9C, $45
05330  948B  0A 6B 92              BYTE $0A, $6B, $92, $45, $1D
05331  9490  0A 70 82              BYTE $0A, $70, $82, $00, $00
05332  9495  0A 77 92              BYTE $0A, $77, $92, $45, $1D
05333  949A  0A 7C 82              BYTE $0A, $7C, $82, $00, $00
05334  949F  0A 82 90              BYTE $0A, $82, $90, $CF, $05
05335  94A4  0A 82 92              BYTE $0A, $82, $92, $45, $1D
05336  94A9  0A 88 82              BYTE $0A, $88, $82, $00, $00
05337  94AE  0A 88 92              BYTE $0A, $88, $92, $45, $1D
05338  94B3  0A 8E 82              BYTE $0A, $8E, $82, $00, $00
05339  94B8  0A 8E 90              BYTE $0A, $8E, $90, $E2, $04
05340  94BD  0A 94 90              BYTE $0A, $94, $90, $85, $06
05341  94C2  0A 94 92              BYTE $0A, $94, $92, $45, $1D
05342  94C7  0A 9A 82              BYTE $0A, $9A, $82, $00, $00
05343  94CC  0A 9A 92              BYTE $0A, $9A, $92, $45, $1D
05344  94D1  0A A0 82              BYTE $0A, $A0, $82, $00, $00
05345  94D6  0A A0 90              BYTE $0A, $A0, $90, $E2, $04
05346  94DB  0A A6 90              BYTE $0A, $A6, $90, $CF, $05
05347  94E0  0A A6 81              BYTE $0A, $A6, $81, $00, $00
05348  94E5  0A A6 91              BYTE $0A, $A6, $91, $89, $3A
05349  94EA  0A A6 92              BYTE $0A, $A6, $92, $45, $1D
05350  94EF  0A AC 82              BYTE $0A, $AC, $82, $00, $00
05351  94F4  0A AC 92              BYTE $0A, $AC, $92, $45, $1D
05352  94F9  0A B2 82              BYTE $0A, $B2, $82, $00, $00
05353  94FE  0A B2 90              BYTE $0A, $B2, $90, $85, $06
05354  9503  0A B2 81              BYTE $0A, $B2, $81, $00, $00
05355  9508  0A B2 91              BYTE $0A, $B2, $91, $9C, $45
05356  950D  0A B2 92              BYTE $0A, $B2, $92, $45, $1D
05357  9512  0A B8 82              BYTE $0A, $B8, $82, $00, $00
05358  9517  0A B8 92              BYTE $0A, $B8, $92, $45, $1D
05359  951C  0A BE 82              BYTE $0A, $BE, $82, $00, $00
05360  9521  0A BE 90              BYTE $0A, $BE, $90, $51, $07
05361  9526  0A BE 81              BYTE $0A, $BE, $81, $00, $00
05362  952B  0A BE 91              BYTE $0A, $BE, $91, $23, $4E
05363  9530  0A BE 92              BYTE $0A, $BE, $92, $45, $1D
05364  9535  0A C4 82              BYTE $0A, $C4, $82, $00, $00
05365  953A  0A CA 90              BYTE $0A, $CA, $90, $E2, $04
05366  953F  0A CA 81              BYTE $0A, $CA, $81, $00, $00
05367  9544  0A CA 91              BYTE $0A, $CA, $91, $26, $34
05368  9549  0A CA 92              BYTE $0A, $CA, $92, $45, $1D
05369  954E  0A D0 82              BYTE $0A, $D0, $82, $00, $00
05370  9553  0A D6 92              BYTE $0A, $D6, $92, $45, $1D
05371  9558  0A DC 82              BYTE $0A, $DC, $82, $00, $00
05372  955D  0A DC 92              BYTE $0A, $DC, $92, $45, $1D
05373  9562  0A E1 82              BYTE $0A, $E1, $82, $00, $00
05374  9567  0A E2 80              BYTE $0A, $E2, $80, $00, $00
05375  956C  0A E2 92              BYTE $0A, $E2, $92, $45, $1D
05376  9571  0A E7 82              BYTE $0A, $E7, $82, $00, $00
05377  9576  0A EE 81              BYTE $0A, $EE, $81, $00, $00
05378  957B  0A EE 91              BYTE $0A, $EE, $91, $89, $3A
05379  9580  0A EE 92              BYTE $0A, $EE, $92, $45, $1D
05380  9585  0A F3 82              BYTE $0A, $F3, $82, $00, $00
05381  958A  0A F4 92              BYTE $0A, $F4, $92, $45, $1D
05382  958F  0A F9 82              BYTE $0A, $F9, $82, $00, $00
05383  9594  0A FF 92              BYTE $0A, $FF, $92, $45, $1D
05384  9599  0B 05 82              BYTE $0B, $05, $82, $00, $00
05385  959E  0B 0B 92              BYTE $0B, $0B, $92, $45, $1D
05386  95A3  0B 11 82              BYTE $0B, $11, $82, $00, $00
05387  95A8  0B 11 81              BYTE $0B, $11, $81, $00, $00
05388  95AD  0B 11 91              BYTE $0B, $11, $91, $23, $4E
05389  95B2  0B 11 92              BYTE $0B, $11, $92, $45, $1D
05390  95B7  0B 17 82              BYTE $0B, $17, $82, $00, $00
05391  95BC  0B 17 92              BYTE $0B, $17, $92, $45, $1D
05392  95C1  0B 1D 82              BYTE $0B, $1D, $82, $00, $00
05393  95C6  0B 1D 92              BYTE $0B, $1D, $92, $45, $1D
05394  95CB  0B 23 82              BYTE $0B, $23, $82, $00, $00
05395  95D0  0B 29 90              BYTE $0B, $29, $90, $E2, $04
05396  95D5  0B 29 81              BYTE $0B, $29, $81, $00, $00
05397  95DA  0B 29 91              BYTE $0B, $29, $91, $9C, $45
05398  95DF  0B 29 92              BYTE $0B, $29, $92, $45, $1D
05399  95E4  0B 2F 82              BYTE $0B, $2F, $82, $00, $00
05400  95E9  0B 35 92              BYTE $0B, $35, $92, $45, $1D
05401  95EE  0B 3B 82              BYTE $0B, $3B, $82, $00, $00
05402  95F3  0B 41 90              BYTE $0B, $41, $90, $CF, $05
05403  95F8  0B 41 92              BYTE $0B, $41, $92, $45, $1D
05404  95FD  0B 47 82              BYTE $0B, $47, $82, $00, $00
05405  9602  0B 47 92              BYTE $0B, $47, $92, $45, $1D
05406  9607  0B 4D 82              BYTE $0B, $4D, $82, $00, $00
05407  960C  0B 4D 90              BYTE $0B, $4D, $90, $E2, $04
05408  9611  0B 53 90              BYTE $0B, $53, $90, $85, $06
05409  9616  0B 53 92              BYTE $0B, $53, $92, $45, $1D
05410  961B  0B 59 82              BYTE $0B, $59, $82, $00, $00
05411  9620  0B 59 92              BYTE $0B, $59, $92, $45, $1D
05412  9625  0B 5E 82              BYTE $0B, $5E, $82, $00, $00
05413  962A  0B 5F 90              BYTE $0B, $5F, $90, $E2, $04
05414  962F  0B 65 90              BYTE $0B, $65, $90, $CF, $05
05415  9634  0B 65 81              BYTE $0B, $65, $81, $00, $00
05416  9639  0B 65 91              BYTE $0B, $65, $91, $89, $3A
05417  963E  0B 65 92              BYTE $0B, $65, $92, $45, $1D
05418  9643  0B 6A 82              BYTE $0B, $6A, $82, $00, $00
05419  9648  0B 6B 92              BYTE $0B, $6B, $92, $45, $1D
05420  964D  0B 70 82              BYTE $0B, $70, $82, $00, $00
05421  9652  0B 71 90              BYTE $0B, $71, $90, $85, $06
05422  9657  0B 71 81              BYTE $0B, $71, $81, $00, $00
05423  965C  0B 71 91              BYTE $0B, $71, $91, $9C, $45
05424  9661  0B 71 92              BYTE $0B, $71, $92, $45, $1D
05425  9666  0B 76 82              BYTE $0B, $76, $82, $00, $00
05426  966B  0B 77 92              BYTE $0B, $77, $92, $45, $1D
05427  9670  0B 7C 82              BYTE $0B, $7C, $82, $00, $00
05428  9675  0B 7C 90              BYTE $0B, $7C, $90, $51, $07
05429  967A  0B 7C 81              BYTE $0B, $7C, $81, $00, $00
05430  967F  0B 7C 91              BYTE $0B, $7C, $91, $23, $4E
05431  9684  0B 7C 92              BYTE $0B, $7C, $92, $45, $1D
05432  9689  0B 82 82              BYTE $0B, $82, $82, $00, $00
05433  968E  0B 85 81              BYTE $0B, $85, $81, $00, $00
05434  9693  0B 88 90              BYTE $0B, $88, $90, $E2, $04
05435  9698  0B 88 91              BYTE $0B, $88, $91, $23, $4E
05436  969D  0B 88 92              BYTE $0B, $88, $92, $45, $1D
05437  96A2  0B 8E 82              BYTE $0B, $8E, $82, $00, $00
05438  96A7  0B 94 92              BYTE $0B, $94, $92, $45, $1D
05439  96AC  0B 9A 82              BYTE $0B, $9A, $82, $00, $00
05440  96B1  0B 9A 92              BYTE $0B, $9A, $92, $45, $1D
05441  96B6  0B A0 82              BYTE $0B, $A0, $82, $00, $00
05442  96BB  0B A0 80              BYTE $0B, $A0, $80, $00, $00
05443  96C0  0B A0 92              BYTE $0B, $A0, $92, $45, $1D
05444  96C5  0B A6 82              BYTE $0B, $A6, $82, $00, $00
05445  96CA  0B AC 92              BYTE $0B, $AC, $92, $45, $1D
05446  96CF  0B B2 82              BYTE $0B, $B2, $82, $00, $00
05447  96D4  0B B2 92              BYTE $0B, $B2, $92, $45, $1D
05448  96D9  0B B8 82              BYTE $0B, $B8, $82, $00, $00
05449  96DE  0B BE 92              BYTE $0B, $BE, $92, $45, $1D
05450  96E3  0B C4 82              BYTE $0B, $C4, $82, $00, $00
05451  96E8  0B CA 92              BYTE $0B, $CA, $92, $45, $1D
05452  96ED  0B D0 82              BYTE $0B, $D0, $82, $00, $00
05453  96F2  0B D0 92              BYTE $0B, $D0, $92, $45, $1D
05454  96F7  0B D6 82              BYTE $0B, $D6, $82, $00, $00
05455  96FC  0B D6 92              BYTE $0B, $D6, $92, $45, $1D
05456  9701  0B DB 82              BYTE $0B, $DB, $82, $00, $00
05457  9706  0B DC 92              BYTE $0B, $DC, $92, $45, $1D
05458  970B  0B E1 82              BYTE $0B, $E1, $82, $00, $00
05459  9710  0B E8 81              BYTE $0B, $E8, $81, $00, $00
05460  9715  0C 40 FF              BYTE $0C, $40, $FF, $00, $00
05461  971A             
05462  971A             
05463  971A             

******* 470 Label(s) *******
A0 = $7FA7 
A1 = $7FAC 
ABC = $66BC 
ACTION1 = $74C0 
ACTION2 = $7508 
ACTION4 = $7550 
ADDLR = $6FC3 
ADDNEWCOLOR = $72A9 
ADDNEWDATA = $6EBD 
ADDTB = $6FC6 
ANC001 = $72FD 
ANC002 = $7303 
ANC003 = $730B 
ANC004 = $7314 
ANC005 = $731A 
ANC006 = $7322 
ANC007 = $7339 
ANC008 = $733D 
ANC009 = $7341 
ANC010 = $7345 
ANC011 = $7349 
ANC012 = $7374 
ANC013 = $738D 
ANC014 = $7394 
ANC015 = $739A 
ANC016 = $73A1 
ANC017 = $73A7 
ANC018 = $73D2 
ATTDEC = $824E 
B0 = $8011 
B1 = $8016 
BIGX1 = $69D1 
BIGX2 = $6A01 
BITTABLE = $7A9C 
BLKADDR = $695F 
BLKTABHI = $798A 
BLKTABLO = $788A 
BLKY = $726F 
BLOCKAD = $7017 
BLOCKADR = $70AB 
Blocked = $6990 
Blocked_Down = $69AE 
BlockedDown = $6930 
BlockedLeft = $67D8 
BlockedRight = $6873 
BlockedUp = $68D2 
BLOCKSTART = $4000 
C6 = $8081 
C7 = $807C 
Calc_Map_and_Blk_X_Coordinates = $6963 
Calc_Map_and_Blk_Y_Coordinates = $6974 
CBT12 = $70E1 
CBT21 = $70E1 
CHANNEL = $8236 
CHARADDR = $6189 
Check_If_Blocked = $6985 
Check_If_Blocked_Down = $6993 
CHKMAXX = $740E 
CHKMAXY = $7430 
CHKMINX = $7404 
CHKMINY = $7420 
CHKNEED2SCROLL = $69B1 
CHKX = $73FC 
CHKY = $73FF 
CLADDR1 = $7196 
CLADDR2 = $7288 
CLR12 = $704D 
CLR21 = $704D 
COLBLHI = $7460 
COLBLLO = $745F 
COLORBUFFER = $6BF2 
COLORTAB = $5000 
COLPOS = $701D 
COLPOSR = $70B1 
COLTLHI = $7454 
COLTLLO = $7453 
COLTRHI = $745A 
COLTRLO = $7459 
CONT = $615A 
CONT1 = $6432 
COPY = $6178 
COPY_CHARS = $615D 
COPY_ROLLED_CHARS = $8111 
COPY_SPRITES = $6195 
COPY1T2 = $6A8F 
COPY1T2X = $6AE9 
COPY2 = $61A1 
COPY2T1 = $6B36 
COPY2T1X = $6B90 
COPYSCREEN = $6A82 
CPYROL4 = $7C4A 
CPYROLC = $8113 
CPYROLL = $7B06 
CRL12 = $6FCB 
CRL21 = $6FCB 
CS0 = $6A8B 
CTB12 = $71B7 
CTB21 = $71B7 
CURVOICE = $8239 
D6 = $80EB 
D7 = $80E6 
DecXL = $67CE 
DecYU = $68C5 
DeltaXIs0L = $6759 
DeltaXIs0R = $67F4 
DeltaYIs0D = $68DC 
DeltaYIs0U = $687B 
DISABLE = $661F 
DOADD = $6F9B 
DONE = $704C 
DONE1 = $6B35 
DONE2 = $6BDC 
DONER = $70E0 
DOSCR = $63BA 
DOSCR1 = $6A67 
EQZERO = $7063 
FACELEFT = $69F3 
FACERIGHT = $69BF 
FACEY = $6A27 
FALL_SPEED_TABLE = $7AC7 
FallComplete = $66EF 
FallLoop = $66E5 
FallSpeedAtMax = $66F9 
Get_Char_at_Map_position = $6933 
H2DL1 = $7AED 
H2DL2 = $7AF7 
H2DL3 = $7B01 
HEX2DEC = $7AE9 
IncXR = $685B 
IncYD = $6915 
INIT_SCREEN = $61B1 
INIT2 = $623F 
IRQ = $6393 
IRQ0 = $63EE 
IRQ1 = $63FC 
IRQ3 = $63E1 
IRQNO2 = $662A 
ISOK = $65CD 
ISZERO0 = $65D7 
JMP00 = $7630 
JMP01 = $7634 
JMP02 = $7638 
JMP03 = $763C 
JMP04 = $7640 
JMP05 = $7644 
JMP06 = $7648 
JMP07 = $764C 
JMP08 = $7650 
JMP10 = $7654 
JMP11 = $7658 
JMP12 = $765C 
JMP13 = $7660 
JMP14 = $7664 
JMP15 = $7668 
JMP16 = $766C 
JMP17 = $7670 
JMP18 = $7674 
JMPC0 = $7678 
JMPC1 = $767A 
JMPC2 = $767C 
JMPC3 = $767E 
JMPC4 = $7680 
JMPC5 = $7682 
JMPC6 = $7684 
JMPC7 = $7686 
JMPC8 = $7688 
JMPTAB = $7630 
JMPTABCOL = $7678 
JOYDIR = $744B 
JOYDIR2SCROLLIX = $7467 
JOYSET = $6A61 
JOYWEDGE = $73DD 
JumpBlocked = $6736 
JumpComplete = $66F9 
JumpContinue = $672A 
JumpOn = $6720 
JumpStopped = $66F9 
L0001 = $8148 
L0002 = $8153 
L0003 = $815B 
L0004 = $815C 
L0005 = $816A 
L0006 = $8175 
L0007 = $8178 
L0008 = $81A3 
L0009 = $81B9 
L0010 = $81D5 
L0011 = $8211 
L0012 = $8220 
L00491 = $8133 
L01 = $61CC 
L02 = $61DC 
LB01 = $7175 
LB02 = $7177 
LB03 = $718E 
LB04 = $7190 
LB05 = $7196 
LB06 = $71B6 
LBB01 = $7114 
LBB02 = $7116 
LBB03 = $712B 
LBB04 = $712D 
LBB05 = $7148 
LBBBY = $711A 
LC01 = $71B1 
LC02 = $71B1 
LD00 = $7253 
LD01 = $7269 
LD02 = $726B 
LD03 = $7280 
LD04 = $7282 
LD05 = $7288 
LD06 = $72A8 
LDD00 = $71D5 
LDD01 = $71F5 
LDD02 = $71F7 
LDD03 = $720C 
LDD04 = $720E 
LDD05 = $7229 
LDDBY = $71FB 
LE01 = $72A3 
LE02 = $72A3 
LOOP11 = $6A9B 
LOOP12 = $6AED 
LOOP21 = $6B42 
LOOP22 = $6B94 
MAPAD = $6FF4 
MAPADDR = $6946 
MAPADR = $7084 
MAPHEIGHT = $5101 
MAPPTRHI = $7462 
MAPPTRLO = $7461 
MAPSTART = $5102 
MAPTABHI = $778A 
MAPTABLO = $768A 
MAPWIDTH = $5100 
MAXXOK = $741F 
MAXYOK = $7449 
MCD = $6E13 
MCDL0 = $6E22 
MCDL1 = $6E74 
MCDLX = $6E70 
MCL = $6CBB 
MCLL0 = $6CC7 
MCLL1 = $6D19 
MCLLX = $6D15 
MCN = $6D68 
MCR = $6D69 
MCRL0 = $6D78 
MCRL1 = $6DCA 
MCRLX = $6DC6 
MCU = $6C1A 
MCUL0 = $6C26 
MCUL1 = $6C78 
MCULX = $6C74 
MEDX1 = $69D6 
MEDX2 = $6A1C 
MINXOK = $740D 
MINYOK = $742F 
NEWBL = $7038 
NEWBLR = $70CC 
NEWBOTTOM = $71B7 
NEWLEFT = $6FCB 
NEWRIGHT = $704D 
NEWTOP = $70E1 
NEXTBLK = $613B 
NEXTML = $611A 
NEXTSPR1 = $65E7 
NEXTSPR2 = $6617 
No_Fourth_Character_CheckL = $67C2 
No_Fourth_Character_CheckR = $685B 
No_Second_Character_CheckD = $6915 
No_Second_Character_CheckU = $68B9 
NOBIGX1 = $69E1 
NOBIGX2 = $6A0C 
NOC2 = $702E 
NOC2R = $70C2 
NOC3 = $7049 
NOC3R = $70DD 
NOCHK = $7403 
NOCOLL = $6A74 
NoDecML = $67CC 
NoDecMU = $68C3 
NoDecPL = $67D6 
NoDecPU = $68CD 
NoDecXL = $676F 
NoDecYL1 = $6785 
NoDecYL2 = $6798 
NoDecYR1 = $681E 
NoDecYR2 = $6831 
NoDecYU = $6896 
NOHIX = $65BA 
NOHIY = $6602 
NoIncMD = $6925 
NoIncMR = $686B 
NoIncPD = $692D 
NoIncPR = $6873 
NoIncXD = $690A 
NoIncXR = $680A 
NoIncXU = $68AE 
NoIncYD = $68F2 
NoIncYL = $67B7 
NoIncYR = $6850 
NOJMP = $6FCA 
NOLIM = $6A35 
NOROLL = $645F 
NOSCR = $643C 
NOSCR1 = $6A67 
NOT1 = $63D2 
NOT2 = $63DC 
NOT8 = $643C 
NotDownPressed = $66D1 
NOTEIG = $6F9A 
NOTEQ0 = $6F66 
NOTEQ02 = $6F72 
NOTEQ1 = $6F0F 
NOTEQ2 = $6F25 
NOTEQ22 = $6F31 
NOTEQ3 = $6ED0 
NOTEQ5 = $6EE6 
NOTEQ6 = $6F44 
NOTEQ62 = $6F53 
NOTEQ7 = $6EFC 
NOTEQ8 = $6F88 
NOTEQ82 = $6F97 
NotFalling = $66CC 
NOTFIV = $6EE9 
NotLeftPressed = $6703 
NOTONE = $6F12 
NotRightPressed = $670D 
NOTSEV = $6EFF 
NOTSIX = $6F56 
NOTTHR = $6ED3 
NOTTWO = $6F34 
NotUpPressed = $66F9 
NOTZRO = $6F75 
NOUPD = $6462 
NRL0 = $7075 
OFFSET = $6416 
OLDXSCROLL = $64E8 
OLDYSCROLL = $6520 
PHASE = $7465 
PHASECOPY = $6449 
PLAYER_FALL_POS = $7AC6 
PLAYER_JUMP_POS = $7AA4 
PLAYER_JUMP_TABLE = $7AA5 
PlayerControl = $66BF 
PlayerFell = $66DB 
PlayerIsJumping = $670E 
PlayerMoveDown = $68D5 
PlayerMoveLeft = $673E 
PlayerMoveRight = $67D9 
PlayerMoveUp = $6874 
PULSEHI = $8260 
PULSELO = $825A 
RASIRQ = $6399 
RASIRQ2 = $6630 
RDOWNU = $7BFE 
RDOWNU4 = $801C 
READ_JOYSTICK = $73D3 
RLEFTR = $7B7E 
RLEFTR4 = $7CC5 
RLOOPD = $7BCC 
RLOOPL = $7B9A 
RLOOPR = $7B80 
RLOOPU = $7C18 
ROLLCHARS = $7B04 
ROLLCHARS4 = $7C48 
ROLLCOPY11 = $80F1 
ROLLCOPY12 = $80F9 
ROLLCOPY21 = $8101 
ROLLCOPY22 = $8109 
ROLLS12 = $645C 
RRIGHTL = $7B98 
RRIGHTL4 = $7E06 
RUPD = $7BB2 
RUPD4 = $7F47 
SameCharXR = $686B 
SameCharYD = $6925 
SAVEAD = $7BE9 
SAVEAU = $7C33 
SAVEBD = $7BF3 
SAVEBU = $7C3D 
SAVECD = $7BEE 
SAVECU = $7C38 
SAVEDD = $7BF8 
SAVEDU = $7C42 
SAVEX = $6518 
SAVEY = $6550 
SAVY1 = $7007 
SAVY1R = $7097 
SAVY2 = $701D 
SAVY2R = $70B1 
SCADDR1 = $7193 
SCADDR2 = $7285 
SCADDR3 = $7130 
SCADDR4 = $7211 
SCJSR = $6BEE 
SCRBLHI = $745D 
SCRBLLO = $745B 
SCREEN = $744C 
SCREENLOC = $744D 
SCROLLCOLOR = $6BDD 
SCROLLCONV = $7628 
SCROLLIX = $7466 
SCROLLIXCHKXHI = $7487 
SCROLLIXCHKXLO = $7477 
SCROLLIXCHKYHI = $74A7 
SCROLLIXCHKYLO = $7497 
SCROLLIXCOPY = $6443 
SCROLLIXCOPYX = $64F7 
SCROLLIXCOPYY = $652F 
SCROLLS = $7598 
SCROLLSPEED = $744A 
SCROLLTABLE = $74B7 
SCRPOS = $701A 
SCRPOSR = $70AE 
SCRTLHI = $7451 
SCRTLLO = $744F 
SCRTRHI = $7457 
SCRTRLO = $7455 
SETENAB = $65DF 
SETUP_IRQ = $6371 
SIDINIT = $812F 
SIDPLAY = $8148 
SIMDOWN = $6A59 
SIMUP = $6A4E 
SKIP1 = $7B2E 
SKIP1S4 = $7C75 
SKIP2 = $7B38 
SKIP2S4 = $7C82 
SKIP3 = $7B42 
SKIP3S4 = $7C8C 
SKIP4 = $7B4C 
SKIP4S4 = $7C96 
SKIP5 = $7B59 
SKIP5S4 = $7CA0 
SKIP6 = $7B66 
SKIP6S4 = $7CAA 
SKIP7 = $7B73 
SKIP7S4 = $7CB7 
SKIPX = $7B7D 
SKIPXS4 = $7CC4 
SONG00 = $8266 
START = $6100 
SUSREL = $8254 
TICKHI = $8235 
TICKLO = $8234 
TSTACT = $63DF 
WAIT = $6660 
WAITNEWFRAME = $643C 
WAVEFRM = $8248 
WINXDONE = $657A 
WINYDONE = $659C 
WW1 = $665E 
WW2 = $6684 
XDISPNEG = $6567 
XEXPECT = $7A8A 
XEXPECTNEG = $6509 
XEXPECTPOS = $6500 
XEXPECTZER = $6514 
XSBC = $6572 
XSCROLL = $7463 
YDISPNEG = $6589 
YEXPECT = $7A93 
YEXPECTNEG = $6541 
YEXPECTPOS = $6538 
YEXPECTZER = $654C 
YSBC = $6594 
YSCROLL = $7464 

******* 149 Unused label(s) *******
A0
A1
ADDLR
ADDTB
ANC002
ANC005
ANC007
ANC008
ANC009
ANC010
ANC013
ANC014
ANC015
ANC016
B0
B1
BITTABLE
BLKADDR
BLKY
C6
C7
CBT12
CBT21
CHKMAXX
CHKMAXY
CHKMINX
CHKMINY
CHKX
CHKY
CLADDR1
CLADDR2
CLR12
CLR21
COLORBUFFER
COLPOS
COLPOSR
COLTRHI
COLTRLO
CONT1
COPY_SPRITES
COPY1T2X
COPY2T1X
CRL12
CRL21
CTB12
CTB21
D6
D7
DONE1
DONE2
FACERIGHT
IRQ3
JMP00
JMP01
JMP02
JMP03
JMP04
JMP05
JMP06
JMP07
JMP08
JMP10
JMP11
JMP12
JMP13
JMP14
JMP15
JMP16
JMP17
JMP18
JMPC0
JMPC1
JMPC2
JMPC3
JMPC4
JMPC5
JMPC6
JMPC7
JMPC8
LB02
LB03
LB05
LBB02
LBB03
LBBBY
LC02
LD02
LD03
LD05
LDD02
LDD03
LDDBY
LE02
MAPADDR
MAPPTRHI
MAPPTRLO
MCD
MCDLX
MCL
MCLLX
MCN
MCR
MCRLX
MCU
MCULX
NEWBOTTOM
NEWLEFT
NEWRIGHT
NEWTOP
NOCHK
NOJMP
NOSCR1
NotDownPressed
NRL0
OFFSET
OLDXSCROLL
OLDYSCROLL
PHASECOPY
RASIRQ
RASIRQ2
READ_JOYSTICK
SAVEAD
SAVEAU
SAVEBD
SAVEBU
SAVECD
SAVECU
SAVEDD
SAVEDU
SAVY1
SAVY1R
SAVY2
SAVY2R
SCADDR1
SCADDR2
SCADDR3
SCADDR4
SCJSR
SCROLLIXCOPY
SCROLLIXCOPYX
SCROLLIXCOPYY
SCRPOS
SCRPOSR
START
WW1
XEXPECTPOS
XSBC
YEXPECTPOS
YSBC

******* 150 Variable(s) *******
BLACK  = $0000
BLUE  = $0006
BROWN  = $0009
CYAN  = $0003
DARK_GREY  = $000B
DEST  = $C800
FACING  = $00D4
FALL_TABLE_SIZE  = $0022
GREEN  = $0005
IRQLINE1  = $0064
IRQLINE2  = $00C3
JUMP_TABLE_SIZE  = $0022
LIGHT_BLUE  = $000E
LIGHT_GREEN  = $000D
LIGHT_GREY  = $000F
LIGHT_RED  = $000A
MED_GREY  = $000C
ORANGE  = $0008
PARAM5  = $0030
PURPLE  = $0004
RayDeltaX  = $0020
RayDeltaY  = $0023
RayMapChrX_HI  = $001F
RayMapChrX_LO  = $001E
RayMapChrY_HI  = $0022
RayMapChrY_LO  = $0021
RayPixX_HI  = $0025
RayPixX_LO  = $0024
RayPixY_HI  = $0027
RayPixY_LO  = $0026
RED  = $0002
ROLLADDR11  = $CEA8
ROLLADDR12  = $CE48
ROLLADDR21  = $CE50
ROLLADDR22  = $CE58
ROLLCHR11  = $00D5
ROLLCHR12  = $00C9
ROLLCHR21  = $00CA
ROLLCHR22  = $00CB
SCREEN1  = $BFD7
SCREEN2  = $C3D7
SET  = $D000
SID_BASE_ADDRESS  = $D400
SID_FILTER_CUTOFF_FREQ_HI  = $D416
SID_FILTER_CUTOFF_FREQ_LO  = $D415
SID_FILTER_RESONANCE_CONTROL  = $D417
SID_VOICE_1_ATTACK_DECAY  = $D405
SID_VOICE_1_FREQ_HI  = $D401
SID_VOICE_1_FREQ_LO  = $D400
SID_VOICE_1_PULSE_WIDTH_HI  = $D403
SID_VOICE_1_PULSE_WIDTH_LO  = $D402
SID_VOICE_1_SUSTAIN_RELEASE  = $D406
SID_VOICE_1_WAVEFORM_CONTROL  = $D404
SID_VOICE_2_ATTACK_DECAY  = $D40C
SID_VOICE_2_FREQ_HI  = $D408
SID_VOICE_2_FREQ_LO  = $D407
SID_VOICE_2_PULSE_WIDTH_HI  = $D40A
SID_VOICE_2_PULSE_WIDTH_LO  = $D409
SID_VOICE_2_SUSTAIN_RELEASE  = $D40D
SID_VOICE_2_WAVEFORM_CONTROL  = $D40B
SID_VOICE_3_ATTACK_DECAY  = $D413
SID_VOICE_3_FREQ_HI  = $D40F
SID_VOICE_3_FREQ_LO  = $D40E
SID_VOICE_3_PULSE_WIDTH_HI  = $D411
SID_VOICE_3_PULSE_WIDTH_LO  = $D410
SID_VOICE_3_SUSTAIN_RELEASE  = $D414
SID_VOICE_3_WAVEFORM_CONTROL  = $D412
SID_VOICE_ATTACK_DECAY  = $D405
SID_VOICE_FREQ_HI  = $D401
SID_VOICE_FREQ_LO  = $D400
SID_VOICE_PULSE_WIDTH_HI  = $D403
SID_VOICE_PULSE_WIDTH_LO  = $D402
SID_VOICE_SUSTAIN_RELEASE  = $D406
SID_VOICE_WAVEFORM_CONTROL  = $D404
SID_VOLUME_AND_FILTER_SELECT  = $D418
TEMPHI  = $00D1
TEMPLO  = $00D0
tgt_c64  = $0001
TmpBlkX  = $002D
TmpBlkY  = $002F
TmpMapChrX_HI  = $0029
TmpMapChrX_LO  = $0028
TmpMapChrY_HI  = $002B
TmpMapChrY_LO  = $002A
TmpMapX  = $002C
TmpMapY  = $002E
VIC_BACKGROUND_COLOR  = $D021
VIC_BORDER_COLOR  = $D020
VIC_CHARSET_MULTICOLOR_1  = $D022
VIC_CHARSET_MULTICOLOR_2  = $D023
VIC_EXT_BACKGROUND_COLOR_3  = $D024
VIC_IRQ_ENABLE  = $D01A
VIC_IRQ_STATUS_FLAG  = $D019
VIC_LIGHT_PEN_X_POS  = $D013
VIC_LIGHT_PEN_Y_POS  = $D014
VIC_MEMORY_CONTROL  = $D018
VIC_RASTER_SCAN_LINE  = $D012
VIC_SPRITE_0_COLOR  = $D027
VIC_SPRITE_0_X_POS  = $D000
VIC_SPRITE_0_Y_POS  = $D001
VIC_SPRITE_1_COLOR  = $D028
VIC_SPRITE_1_X_POS  = $D002
VIC_SPRITE_1_Y_POS  = $D003
VIC_SPRITE_2_COLOR  = $D029
VIC_SPRITE_2_X_POS  = $D004
VIC_SPRITE_2_Y_POS  = $D005
VIC_SPRITE_3_COLOR  = $D02A
VIC_SPRITE_3_X_POS  = $D006
VIC_SPRITE_3_Y_POS  = $D007
VIC_SPRITE_4_COLOR  = $D02B
VIC_SPRITE_4_X_POS  = $D008
VIC_SPRITE_4_Y_POS  = $D009
VIC_SPRITE_5_COLOR  = $D02C
VIC_SPRITE_5_X_POS  = $D00A
VIC_SPRITE_5_Y_POS  = $D00B
VIC_SPRITE_6_COLOR  = $D02D
VIC_SPRITE_6_X_POS  = $D00C
VIC_SPRITE_6_Y_POS  = $D00D
VIC_SPRITE_7_COLOR  = $D02E
VIC_SPRITE_7_X_POS  = $D00E
VIC_SPRITE_7_Y_POS  = $D00F
VIC_SPRITE_CHAR_COLLISION  = $D01F
VIC_SPRITE_CHAR_PRIORITY  = $D01B
VIC_SPRITE_COLOR  = $D027
VIC_SPRITE_ENABLE  = $D015
VIC_SPRITE_MULTICOLOR_1  = $D025
VIC_SPRITE_MULTICOLOR_2  = $D026
VIC_SPRITE_MULTICOLOR_SELECT  = $D01C
VIC_SPRITE_SPRITE_COLLISION  = $D01E
VIC_SPRITE_X_EXPAND  = $D01D
VIC_SPRITE_X_POS  = $D000
VIC_SPRITE_X_POS_MSB  = $D010
VIC_SPRITE_Y_EXPAND  = $D017
VIC_SPRITE_Y_POS  = $D001
VIC_XSCROLL_CONTROL  = $D016
VIC_YSCROLL_CONTROL  = $D011
WHITE  = $0001
WinBlkX  = $0016
WinBlkY  = $0017
WinChrX  = $0018
WinChrY  = $0019
WinMapX  = $0014
WinMapY  = $0015
WinPixX_HI  = $001B
WinPixX_LO  = $001A
WinPixY_HI  = $001D
WinPixY_LO  = $001C
XDISP  = $00D2
YDISP  = $00D3
YELLOW  = $0007
******* 70 Unused variables(s) *******
BLUE
CYAN
DARK_GREY
FALL_TABLE_SIZE
LIGHT_BLUE
LIGHT_GREEN
LIGHT_GREY
LIGHT_RED
ROLLADDR11
ROLLADDR12
ROLLADDR21
ROLLADDR22
ROLLCHR11
ROLLCHR12
ROLLCHR21
ROLLCHR22
SCREEN1
SCREEN2
SID_BASE_ADDRESS
SID_FILTER_CUTOFF_FREQ_HI
SID_FILTER_CUTOFF_FREQ_LO
SID_FILTER_RESONANCE_CONTROL
SID_VOICE_1_ATTACK_DECAY
SID_VOICE_1_FREQ_HI
SID_VOICE_1_FREQ_LO
SID_VOICE_1_PULSE_WIDTH_HI
SID_VOICE_1_PULSE_WIDTH_LO
SID_VOICE_1_SUSTAIN_RELEASE
SID_VOICE_1_WAVEFORM_CONTROL
SID_VOICE_2_ATTACK_DECAY
SID_VOICE_2_FREQ_HI
SID_VOICE_2_FREQ_LO
SID_VOICE_2_PULSE_WIDTH_HI
SID_VOICE_2_PULSE_WIDTH_LO
SID_VOICE_2_SUSTAIN_RELEASE
SID_VOICE_2_WAVEFORM_CONTROL
SID_VOICE_3_ATTACK_DECAY
SID_VOICE_3_FREQ_HI
SID_VOICE_3_FREQ_LO
SID_VOICE_3_PULSE_WIDTH_HI
SID_VOICE_3_PULSE_WIDTH_LO
SID_VOICE_3_SUSTAIN_RELEASE
SID_VOICE_3_WAVEFORM_CONTROL
SID_VOICE_ATTACK_DECAY
SID_VOICE_FREQ_HI
SID_VOICE_FREQ_LO
SID_VOICE_PULSE_WIDTH_HI
SID_VOICE_PULSE_WIDTH_LO
SID_VOICE_SUSTAIN_RELEASE
SID_VOICE_WAVEFORM_CONTROL
tgt_c64
VIC_EXT_BACKGROUND_COLOR_3
VIC_LIGHT_PEN_X_POS
VIC_LIGHT_PEN_Y_POS
VIC_SPRITE_3_COLOR
VIC_SPRITE_3_X_POS
VIC_SPRITE_3_Y_POS
VIC_SPRITE_4_COLOR
VIC_SPRITE_4_X_POS
VIC_SPRITE_4_Y_POS
VIC_SPRITE_5_COLOR
VIC_SPRITE_5_X_POS
VIC_SPRITE_5_Y_POS
VIC_SPRITE_6_COLOR
VIC_SPRITE_6_X_POS
VIC_SPRITE_6_Y_POS
VIC_SPRITE_COLOR
VIC_SPRITE_X_POS
VIC_SPRITE_Y_POS
YELLOW

