                 * = $0801

0801  0A                 BYTE $0A,$08,$00,$00,$9E,$32,$30,$36 ; Encode 2058 SYS2061
0809  31                 BYTE $31,$00,$00,$00
                 ;________________________________________
080D  20 44 A6           JSR $A644           ; Execute NEW command
0810  78                 SEI
0811  A9 33              LDA #$33            ; Select Character ROM at $D000-$DFFF
0813  85 01              STA $01             ; INPUT/OUTPUT REGISTER
0815  A2 08              LDX #$08            ; Copy Character set from $D000 (ROM) to $3800
0817  A0 00              LDY #$00
0819  B9 00 D0   L00001  LDA $D000,Y         ; The HI byte of this address is changed in 0822
081C  99 00 38           STA $3800,Y         ; The HI byte of this address is changed in 0825
081F  C8                 INY
0820  D0 F7      L00002  BNE L00001
0822  EE 1B 08           INC $081B
0825  EE 1E 08           INC $081E
0828  CA                 DEX
0829  D0 EE              BNE L00001
082B  A2 3F              LDX #$3F            ; Copy 8 characters from RAM to custom character set
082D  BD C0 0A   L00003  LDA $0AC0,X
0830  9D C8 3F           STA $3FC8,X
0833  98                 TYA                 ; Faster and shorter then LDA #$00
0834  9D C0 0A           STA $0AC0,X         ; Clear the 8 copied characters from the source
0837  9D 40 03           STA $0340,X         ; Clear $0340-$037F
083A  CA                 DEX
083B  10 F0              BPL L00003
083D  4C 00 0D           JMP L00030
                 ;________________________________________
                                             ; 21
0840  00 00 00           BYTE $00,$00,$00    ; ................................................
0843  00 00 00           BYTE $00,$00,$00    ; ................................................
0846  00 A8 00           BYTE $00,$A8,$00    ; ................OOOOOOOOOOOO....................
0849  00 A8 00           BYTE $00,$A8,$00    ; ................OOOOOOOOOOOO....................
084C  00 AC 00           BYTE $00,$AC,$00    ; ................OOOOOOOO####....................
084F  00 BC 00           BYTE $00,$BC,$00    ; ................OOOO########....................
0852  00 3C 00           BYTE $00,$3C,$00    ; ....................########....................
0855  00 20 00           BYTE $00,$20,$00    ; ....................OOOO........................
0858  00 A8 00           BYTE $00,$A8,$00    ; ................OOOOOOOOOOOO....................
085B  00 A8 00           BYTE $00,$A8,$00    ; ................OOOOOOOOOOOO....................
085E  00 A8 00           BYTE $00,$A8,$00    ; ................OOOOOOOOOOOO....................
0861  00 A8 00           BYTE $00,$A8,$00    ; ................OOOOOOOOOOOO....................
0864  00 A8 00           BYTE $00,$A8,$00    ; ................OOOOOOOOOOOO....................
0867  00 69 00           BYTE $00,$69,$00    ; ................++++OOOOOOOO++++................
086A  00 69 00           BYTE $00,$69,$00    ; ................++++OOOOOOOO++++................
086D  00 28 00           BYTE $00,$28,$00    ; ....................OOOOOOOO....................
0870  00 28 00           BYTE $00,$28,$00    ; ....................OOOOOOOO....................
0873  00 28 00           BYTE $00,$28,$00    ; ....................OOOOOOOO....................
0876  00 14 00           BYTE $00,$14,$00    ; ....................++++++++....................
0879  00 14 00           BYTE $00,$14,$00    ; ....................++++++++....................
087C  00 15 00           BYTE $00,$15,$00    ; ....................++++++++++++................
087F  00                 BYTE $00
                 ;________________________________________
                                             ; 22
0880  00 00 00           BYTE $00,$00,$00    ; ................................................
0883  00 00 00           BYTE $00,$00,$00    ; ................................................
0886  00 A8 00           BYTE $00,$A8,$00    ; ................OOOOOOOOOOOO....................
0889  00 A8 00           BYTE $00,$A8,$00    ; ................OOOOOOOOOOOO....................
088C  00 AC 00           BYTE $00,$AC,$00    ; ................OOOOOOOO####....................
088F  00 BC 00           BYTE $00,$BC,$00    ; ................OOOO########....................
0892  00 3C 00           BYTE $00,$3C,$00    ; ....................########....................
0895  00 20 00           BYTE $00,$20,$00    ; ....................OOOO........................
0898  00 A8 00           BYTE $00,$A8,$00    ; ................OOOOOOOOOOOO....................
089B  00 A8 00           BYTE $00,$A8,$00    ; ................OOOOOOOOOOOO....................
089E  00 A8 00           BYTE $00,$A8,$00    ; ................OOOOOOOOOOOO....................
08A1  00 AA 00           BYTE $00,$AA,$00    ; ................OOOOOOOOOOOOOOOO................
08A4  02 AA 00           BYTE $02,$AA,$00    ; ............OOOOOOOOOOOOOOOOOOOO................
08A7  01 AA 40           BYTE $01,$AA,$40    ; ............++++OOOOOOOOOOOOOOOO++++............
08AA  01 28 40           BYTE $01,$28,$40    ; ............++++....OOOOOOOO....++++............
08AD  00 28 00           BYTE $00,$28,$00    ; ....................OOOOOOOO....................
08B0  00 2A 00           BYTE $00,$2A,$00    ; ....................OOOOOOOOOOOO................
08B3  00 A2 00           BYTE $00,$A2,$00    ; ................OOOOOOOO....OOOO................
08B6  00 41 00           BYTE $00,$41,$00    ; ................++++........++++................
08B9  00 41 00           BYTE $00,$41,$00    ; ................++++........++++................
08BC  00 51 40           BYTE $00,$51,$40    ; ................++++++++....++++++++............
08BF  00                 BYTE $00
                 ;________________________________________
                                             ; 23
08C0  00 00 00           BYTE $00,$00,$00    ; ................................................
08C3  00 00 00           BYTE $00,$00,$00    ; ................................................
08C6  00 A8 00           BYTE $00,$A8,$00    ; ................OOOOOOOOOOOO....................
08C9  00 A8 00           BYTE $00,$A8,$00    ; ................OOOOOOOOOOOO....................
08CC  00 E8 00           BYTE $00,$E8,$00    ; ................####OOOOOOOO....................
08CF  00 F8 00           BYTE $00,$F8,$00    ; ................########OOOO....................
08D2  00 F0 00           BYTE $00,$F0,$00    ; ................########........................
08D5  00 20 00           BYTE $00,$20,$00    ; ....................OOOO........................
08D8  00 A8 00           BYTE $00,$A8,$00    ; ................OOOOOOOOOOOO....................
08DB  00 A8 00           BYTE $00,$A8,$00    ; ................OOOOOOOOOOOO....................
08DE  00 A8 00           BYTE $00,$A8,$00    ; ................OOOOOOOOOOOO....................
08E1  00 A8 00           BYTE $00,$A8,$00    ; ................OOOOOOOOOOOO....................
08E4  00 A8 00           BYTE $00,$A8,$00    ; ................OOOOOOOOOOOO....................
08E7  01 A4 00           BYTE $01,$A4,$00    ; ............++++OOOOOOOO++++....................
08EA  01 A4 00           BYTE $01,$A4,$00    ; ............++++OOOOOOOO++++....................
08ED  00 A0 00           BYTE $00,$A0,$00    ; ................OOOOOOOO........................
08F0  00 A0 00           BYTE $00,$A0,$00    ; ................OOOOOOOO........................
08F3  00 A0 00           BYTE $00,$A0,$00    ; ................OOOOOOOO........................
08F6  00 50 00           BYTE $00,$50,$00    ; ................++++++++........................
08F9  00 50 00           BYTE $00,$50,$00    ; ................++++++++........................
08FC  01 50 00           BYTE $01,$50,$00    ; ............++++++++++++........................
08FF  00                 BYTE $00
                 ;________________________________________
                                             ; 24
0900  00 00 00           BYTE $00,$00,$00    ; ................................................
0903  00 00 00           BYTE $00,$00,$00    ; ................................................
0906  00 A8 00           BYTE $00,$A8,$00    ; ................OOOOOOOOOOOO....................
0909  00 A8 00           BYTE $00,$A8,$00    ; ................OOOOOOOOOOOO....................
090C  00 E8 00           BYTE $00,$E8,$00    ; ................####OOOOOOOO....................
090F  00 F8 00           BYTE $00,$F8,$00    ; ................########OOOO....................
0912  00 F0 00           BYTE $00,$F0,$00    ; ................########........................
0915  00 20 00           BYTE $00,$20,$00    ; ....................OOOO........................
0918  00 A8 00           BYTE $00,$A8,$00    ; ................OOOOOOOOOOOO....................
091B  00 A8 00           BYTE $00,$A8,$00    ; ................OOOOOOOOOOOO....................
091E  00 A8 00           BYTE $00,$A8,$00    ; ................OOOOOOOOOOOO....................
0921  02 A8 00           BYTE $02,$A8,$00    ; ............OOOOOOOOOOOOOOOO....................
0924  02 AA 00           BYTE $02,$AA,$00    ; ............OOOOOOOOOOOOOOOOOOOO................
0927  06 A9 00           BYTE $06,$A9,$00    ; ........++++OOOOOOOOOOOOOOOO++++................
092A  04 A1 00           BYTE $04,$A1,$00    ; ........++++....OOOOOOOO....++++................
092D  00 A0 00           BYTE $00,$A0,$00    ; ................OOOOOOOO........................
0930  02 A0 00           BYTE $02,$A0,$00    ; ............OOOOOOOOOOOO........................
0933  02 28 00           BYTE $02,$28,$00    ; ............OOOO....OOOOOOOO....................
0936  01 04 00           BYTE $01,$04,$00    ; ............++++........++++....................
0939  01 04 00           BYTE $01,$04,$00    ; ............++++........++++....................
093C  05 14 00           BYTE $05,$14,$00    ; ........++++++++....++++++++....................
093F  00                 BYTE $00
                 ;________________________________________
                                             ; 25
0940  00 00 00           BYTE $00,$00,$00    ; ................................................
0943  00 00 00           BYTE $00,$00,$00    ; ................................................
0946  04 A8 00           BYTE $04,$A8,$00    ; ........++++....OOOOOOOOOOOO....................
0949  04 A8 00           BYTE $04,$A8,$00    ; ........++++....OOOOOOOOOOOO....................
094C  08 A8 00           BYTE $08,$A8,$00    ; ........OOOO....OOOOOOOOOOOO....................
094F  08 A8 40           BYTE $08,$A8,$40    ; ........OOOO....OOOOOOOOOOOO....++++............
0952  08 30 40           BYTE $08,$30,$40    ; ........OOOO........####........++++............
0955  0A A8 80           BYTE $0A,$A8,$80    ; ........OOOOOOOOOOOOOOOOOOOO....OOOO............
0958  0A AA 80           BYTE $0A,$AA,$80    ; ........OOOOOOOOOOOOOOOOOOOOOOOOOOOO............
095B  00 AA 80           BYTE $00,$AA,$80    ; ................OOOOOOOOOOOOOOOOOOOO............
095E  00 A8 00           BYTE $00,$A8,$00    ; ................OOOOOOOOOOOO....................
0961  00 A8 00           BYTE $00,$A8,$00    ; ................OOOOOOOOOOOO....................
0964  00 A8 00           BYTE $00,$A8,$00    ; ................OOOOOOOOOOOO....................
0967  00 A8 00           BYTE $00,$A8,$00    ; ................OOOOOOOOOOOO....................
096A  00 88 00           BYTE $00,$88,$00    ; ................OOOO....OOOO....................
096D  00 84 00           BYTE $00,$84,$00    ; ................OOOO....++++....................
0970  00 84 00           BYTE $00,$84,$00    ; ................OOOO....++++....................
0973  00 85 00           BYTE $00,$85,$00    ; ................OOOO....++++++++................
0976  00 40 00           BYTE $00,$40,$00    ; ................++++............................
0979  00 40 00           BYTE $00,$40,$00    ; ................++++............................
097C  01 40 00           BYTE $01,$40,$00    ; ............++++++++............................
097F  00                 BYTE $00
                 ;________________________________________
                                             ; 26
0980  00 00 00           BYTE $00,$00,$00    ; ................................................
0983  00 00 00           BYTE $00,$00,$00    ; ................................................
0986  00 A8 40           BYTE $00,$A8,$40    ; ................OOOOOOOOOOOO....++++............
0989  00 A8 40           BYTE $00,$A8,$40    ; ................OOOOOOOOOOOO....++++............
098C  00 A8 80           BYTE $00,$A8,$80    ; ................OOOOOOOOOOOO....OOOO............
098F  04 A8 80           BYTE $04,$A8,$80    ; ........++++....OOOOOOOOOOOO....OOOO............
0992  04 30 80           BYTE $04,$30,$80    ; ........++++........####........OOOO............
0995  08 AA 80           BYTE $08,$AA,$80    ; ........OOOO....OOOOOOOOOOOOOOOOOOOO............
0998  0A AA 80           BYTE $0A,$AA,$80    ; ........OOOOOOOOOOOOOOOOOOOOOOOOOOOO............
099B  0A A8 00           BYTE $0A,$A8,$00    ; ........OOOOOOOOOOOOOOOOOOOO....................
099E  00 A8 00           BYTE $00,$A8,$00    ; ................OOOOOOOOOOOO....................
09A1  00 A8 00           BYTE $00,$A8,$00    ; ................OOOOOOOOOOOO....................
09A4  00 A8 00           BYTE $00,$A8,$00    ; ................OOOOOOOOOOOO....................
09A7  00 A8 00           BYTE $00,$A8,$00    ; ................OOOOOOOOOOOO....................
09AA  00 88 00           BYTE $00,$88,$00    ; ................OOOO....OOOO....................
09AD  00 48 00           BYTE $00,$48,$00    ; ................++++....OOOO....................
09B0  00 48 00           BYTE $00,$48,$00    ; ................++++....OOOO....................
09B3  01 48 00           BYTE $01,$48,$00    ; ............++++++++....OOOO....................
09B6  00 04 00           BYTE $00,$04,$00    ; ........................++++....................
09B9  00 04 00           BYTE $00,$04,$00    ; ........................++++....................
09BC  00 05 00           BYTE $00,$05,$00    ; ........................++++++++................
09BF  00                 BYTE $00
                 ;________________________________________
                                             ; 27
09C0  28 00 0A           BYTE $28,$00,$0A    ; ....OOOOOOOO............................OOOOOOOO
09C3  2A 00 2A           BYTE $2A,$00,$2A    ; ....OOOOOOOOOOOO....................OOOOOOOOOOOO
09C6  0A 80 A8           BYTE $0A,$80,$A8    ; ........OOOOOOOOOOOO............OOOOOOOOOOOO....
09C9  0A AA A8           BYTE $0A,$AA,$A8    ; ........OOOOOOOOOOOOOOOOOOOOOOOOOOOOOOOOOOOO....
09CC  0A AA A8           BYTE $0A,$AA,$A8    ; ........OOOOOOOOOOOOOOOOOOOOOOOOOOOOOOOOOOOO....
09CF  08 48 48           BYTE $08,$48,$48    ; ........OOOO....++++....OOOO....++++....OOOO....
09D2  0A 2A 28           BYTE $0A,$2A,$28    ; ........OOOOOOOO....OOOOOOOOOOOO....OOOOOOOO....
09D5  0A AA A8           BYTE $0A,$AA,$A8    ; ........OOOOOOOOOOOOOOOOOOOOOOOOOOOOOOOOOOOO....
09D8  0A AA A8           BYTE $0A,$AA,$A8    ; ........OOOOOOOOOOOOOOOOOOOOOOOOOOOOOOOOOOOO....
09DB  0A AA 98           BYTE $0A,$AA,$98    ; ........OOOOOOOOOOOOOOOOOOOOOOOOOOOO++++OOOO....
09DE  AA AA 68           BYTE $AA,$AA,$68    ; OOOOOOOOOOOOOOOOOOOOOOOOOOOOOOOO++++OOOOOOOO....
09E1  59 69 A8           BYTE $59,$69,$A8    ; ++++++++OOOO++++++++OOOOOOOO++++OOOOOOOOOOOO....
09E4  44 56 A8           BYTE $44,$56,$A8    ; ++++....++++....++++++++++++OOOOOOOOOOOOOOOO....
09E7  55 5A A8           BYTE $55,$5A,$A8    ; ++++++++++++++++++++++++OOOOOOOOOOOOOOOOOOOO....
09EA  99 AA A8           BYTE $99,$AA,$A8    ; OOOO++++OOOO++++OOOOOOOOOOOOOOOOOOOOOOOOOOOO....
09ED  11 02 A8           BYTE $11,$02,$A8    ; ....++++....++++............OOOOOOOOOOOOOOOO....
09F0  00 00 A8           BYTE $00,$00,$A8    ; ................................OOOOOOOOOOOO....
09F3  00 00 A8           BYTE $00,$00,$A8    ; ................................OOOOOOOOOOOO....
09F6  00 00 28           BYTE $00,$00,$28    ; ....................................OOOOOOOO....
09F9  00 00 28           BYTE $00,$00,$28    ; ....................................OOOOOOOO....
09FC  00 00 28           BYTE $00,$00,$28    ; ....................................OOOOOOOO....
09FF  00                 BYTE $00
                 ;________________________________________
                                             ; 28
0A00  28 00 0A           BYTE $28,$00,$0A    ; ....OOOOOOOO............................OOOOOOOO
0A03  2A 00 2A           BYTE $2A,$00,$2A    ; ....OOOOOOOOOOOO....................OOOOOOOOOOOO
0A06  0A 80 A8           BYTE $0A,$80,$A8    ; ........OOOOOOOOOOOO............OOOOOOOOOOOO....
0A09  0A AA A8           BYTE $0A,$AA,$A8    ; ........OOOOOOOOOOOOOOOOOOOOOOOOOOOOOOOOOOOO....
0A0C  0A AA A8           BYTE $0A,$AA,$A8    ; ........OOOOOOOOOOOOOOOOOOOOOOOOOOOOOOOOOOOO....
0A0F  08 48 48           BYTE $08,$48,$48    ; ........OOOO....++++....OOOO....++++....OOOO....
0A12  0A 2A 28           BYTE $0A,$2A,$28    ; ........OOOOOOOO....OOOOOOOOOOOO....OOOOOOOO....
0A15  0A AA A8           BYTE $0A,$AA,$A8    ; ........OOOOOOOOOOOOOOOOOOOOOOOOOOOOOOOOOOOO....
0A18  0A AA A8           BYTE $0A,$AA,$A8    ; ........OOOOOOOOOOOOOOOOOOOOOOOOOOOOOOOOOOOO....
0A1B  0A AA 98           BYTE $0A,$AA,$98    ; ........OOOOOOOOOOOOOOOOOOOOOOOOOOOO++++OOOO....
0A1E  AA AA 58           BYTE $AA,$AA,$58    ; OOOOOOOOOOOOOOOOOOOOOOOOOOOOOOOO++++++++OOOO....
0A21  59 69 D8           BYTE $59,$69,$D8    ; ++++++++OOOO++++++++OOOOOOOO++++####++++OOOO....
0A24  44 57 D8           BYTE $44,$57,$D8    ; ++++....++++....++++++++++++########++++OOOO....
0A27  55 5F 68           BYTE $55,$5F,$68    ; ++++++++++++++++++++++++########++++OOOOOOOO....
0A2A  99 9F 68           BYTE $99,$9F,$68    ; OOOO++++OOOO++++OOOO++++########++++OOOOOOOO....
0A2D  11 1F 68           BYTE $11,$1F,$68    ; ....++++....++++....++++########++++OOOOOOOO....
0A30  00 7D A8           BYTE $00,$7D,$A8    ; ................++++########++++OOOOOOOOOOOO....
0A33  00 7D A8           BYTE $00,$7D,$A8    ; ................++++########++++OOOOOOOOOOOO....
0A36  00 7D 28           BYTE $00,$7D,$28    ; ................++++########++++....OOOOOOOO....
0A39  01 F4 28           BYTE $01,$F4,$28    ; ............++++########++++........OOOOOOOO....
0A3C  01 54 28           BYTE $01,$54,$28    ; ............++++++++++++++++........OOOOOOOO....
0A3F  00                 BYTE $00
                 ;________________________________________
                                             ; 29
0A40  00 50 00           BYTE $00,$50,$00    ; ................++++++++........................
0A43  00 54 00           BYTE $00,$54,$00    ; ................++++++++++++....................
0A46  00 A8 00           BYTE $00,$A8,$00    ; ................OOOOOOOOOOOO....................
0A49  00 AA 00           BYTE $00,$AA,$00    ; ................OOOOOOOOOOOOOOOO................
0A4C  00 FA 00           BYTE $00,$FA,$00    ; ................########OOOOOOOO................
0A4F  00 FA 80           BYTE $00,$FA,$80    ; ................########OOOOOOOOOOOO............
0A52  00 FA 80           BYTE $00,$FA,$80    ; ................########OOOOOOOOOOOO............
0A55  00 1A 80           BYTE $00,$1A,$80    ; ....................++++OOOOOOOOOOOO............
0A58  00 5A 80           BYTE $00,$5A,$80    ; ................++++++++OOOOOOOOOOOO............
0A5B  01 5A 00           BYTE $01,$5A,$00    ; ............++++++++++++OOOOOOOO................
0A5E  01 58 00           BYTE $01,$58,$00    ; ............++++++++++++OOOO....................
0A61  00 54 00           BYTE $00,$54,$00    ; ................++++++++++++....................
0A64  00 54 00           BYTE $00,$54,$00    ; ................++++++++++++....................
0A67  00 54 00           BYTE $00,$54,$00    ; ................++++++++++++....................
0A6A  01 55 00           BYTE $01,$55,$00    ; ............++++++++++++++++++++................
0A6D  05 55 40           BYTE $05,$55,$40    ; ........++++++++++++++++++++++++++++............
0A70  05 55 40           BYTE $05,$55,$40    ; ........++++++++++++++++++++++++++++............
0A73  15 55 50           BYTE $15,$55,$50    ; ....++++++++++++++++++++++++++++++++++++........
0A76  15 55 50           BYTE $15,$55,$50    ; ....++++++++++++++++++++++++++++++++++++........
0A79  15 55 50           BYTE $15,$55,$50    ; ....++++++++++++++++++++++++++++++++++++........
0A7C  15 55 50           BYTE $15,$55,$50    ; ....++++++++++++++++++++++++++++++++++++........
0A7F  15                 BYTE $15
                 ;________________________________________
                                             ; 2A
0A80  1F FF F8           BYTE $1F,$FF,$F8    ; ......####################################......
0A83  3F FF FC           BYTE $3F,$FF,$FC    ; ....########################################....
0A86  7F FF FE           BYTE $7F,$FF,$FE    ; ..############################################..
0A89  FF FF FF           BYTE $FF,$FF,$FF    ; ################################################
0A8C  DA 2E 1B           BYTE $DA,$2E,$1B    ; ####..####..##......##..######........####..####
0A8F  DA EE DB           BYTE $DA,$EE,$DB    ; ####..####..##..######..######..####..####..####
0A92  C2 6E 1B           BYTE $C2,$6E,$1B    ; ####........##....####..######........####..####
0A95  DA EE FF           BYTE $DA,$EE,$FF    ; ####..####..##..######..######..################
0A98  DA 22 FB           BYTE $DA,$22,$FB    ; ####..####..##......##......##..##########..####
0A9B  FF FF FF           BYTE $FF,$FF,$FF    ; ################################################
0A9E  7F FF FE           BYTE $7F,$FF,$FE    ; ..############################################..
0AA1  3F FF FC           BYTE $3F,$FF,$FC    ; ....########################################....
0AA4  1F FF F8           BYTE $1F,$FF,$F8    ; ......####################################......
0AA7  00 FF 00           BYTE $00,$FF,$00    ; ................################................
0AAA  00 3F 80           BYTE $00,$3F,$80    ; ....................##############..............
0AAD  00 0F C0           BYTE $00,$0F,$C0    ; ........................############............
0AB0  00 03 E0           BYTE $00,$03,$E0    ; ............................##########..........
0AB3  00 00 F0           BYTE $00,$00,$F0    ; ................................########........
0AB6  00 00 38           BYTE $00,$00,$38    ; ....................................######......
0AB9  00 00 0C           BYTE $00,$00,$0C    ; ........................................####....
0ABC  00 00 02           BYTE $00,$00,$02    ; ............................................##..
0ABF  00                 BYTE $00
                 ;________________________________________
                 ;
                 ;    These 7 characters are copied to $3FC8-$3FFF and are cleared afterwards
                 ;
                 ;    This leaves a blank sprite 2B which is used to flash Help Text Boble and Dragon Breath
                 ;
                                             ; F9
0AC0  55                 BYTE $55            ;     ..##..##..##..##        ++++++++++++++++
0AC1  55                 BYTE $55            ;     ..##..##..##..##        ++++++++++++++++
0AC2  65                 BYTE $65            ;     ..####....##..##        ++++OOOO++++++++
0AC3  99                 BYTE $99            ;     ##....####....##        OOOO++++OOOO++++
0AC4  99                 BYTE $99            ;     ##....####....##        OOOO++++OOOO++++
0AC5  65                 BYTE $65            ;     ..####....##..##        ++++OOOO++++++++
0AC6  55                 BYTE $55            ;     ..##..##..##..##        ++++++++++++++++
0AC7  55                 BYTE $55            ;     ..##..##..##..##        ++++++++++++++++
                                             ; FA
0AC8  FF                 BYTE $FF            ;     ################        ################
0AC9  FA                 BYTE $FA            ;     ##########..##..        ########OOOOOOOO
0ACA  EB                 BYTE $EB            ;     ######..##..####        ####OOOOOOOO####
0ACB  AF                 BYTE $AF            ;     ##..##..########        OOOOOOOO########
0ACC  AF                 BYTE $AF            ;     ##..##..########        OOOOOOOO########
0ACD  EB                 BYTE $EB            ;     ######..##..####        ####OOOOOOOO####
0ACE  FA                 BYTE $FA            ;     ##########..##..        ########OOOOOOOO
0ACF  FF                 BYTE $FF            ;     ################        ################
                                             ; FB
0AD0  FF                 BYTE $FF            ;     ################        ################
0AD1  AF                 BYTE $AF            ;     ##..##..########        OOOOOOOO########
0AD2  EB                 BYTE $EB            ;     ######..##..####        ####OOOOOOOO####
0AD3  FA                 BYTE $FA            ;     ##########..##..        ########OOOOOOOO
0AD4  FA                 BYTE $FA            ;     ##########..##..        ########OOOOOOOO
0AD5  EB                 BYTE $EB            ;     ######..##..####        ####OOOOOOOO####
0AD6  AF                 BYTE $AF            ;     ##..##..########        OOOOOOOO########
0AD7  FF                 BYTE $FF            ;     ################        ################
                                             ; FC
0AD8  03                 BYTE $03            ;     ............####        ............####
0AD9  03                 BYTE $03            ;     ............####        ............####
0ADA  0F                 BYTE $0F            ;     ........########        ........########
0ADB  03                 BYTE $03            ;     ............####        ............####
0ADC  03                 BYTE $03            ;     ............####        ............####
0ADD  03                 BYTE $03            ;     ............####        ............####
0ADE  0F                 BYTE $0F            ;     ........########        ........########
0ADF  03                 BYTE $03            ;     ............####        ............####
                                             ; FD
0AE0  C0                 BYTE $C0            ;     ####............        ####............
0AE1  C0                 BYTE $C0            ;     ####............        ####............
0AE2  F0                 BYTE $F0            ;     ########........        ########........
0AE3  C0                 BYTE $C0            ;     ####............        ####............
0AE4  C0                 BYTE $C0            ;     ####............        ####............
0AE5  C0                 BYTE $C0            ;     ####............        ####............
0AE6  F0                 BYTE $F0            ;     ########........        ########........
0AE7  C0                 BYTE $C0            ;     ####............        ####............
                                             ; FE
0AE8  55                 BYTE $55            ;     ..##..##..##..##        ++++++++++++++++
0AE9  55                 BYTE $55            ;     ..##..##..##..##        ++++++++++++++++
0AEA  FF                 BYTE $FF            ;     ################        ################
0AEB  00                 BYTE $00            ;     ................        ................
0AEC  00                 BYTE $00            ;     ................        ................
0AED  00                 BYTE $00            ;     ................        ................
0AEE  FF                 BYTE $FF            ;     ################        ################
0AEF  00                 BYTE $00            ;     ................        ................
                                             ; FF
0AF0  00                 BYTE $00            ;     ................        ................
0AF1  00                 BYTE $00            ;     ................        ................
0AF2  FF                 BYTE $FF            ;     ################        ################
0AF3  00                 BYTE $00            ;     ................        ................
0AF4  00                 BYTE $00            ;     ................        ................
0AF5  00                 BYTE $00            ;     ................        ................
0AF6  FF                 BYTE $FF            ;     ################        ################
0AF7  00                 BYTE $00            ;     ................        ................
                 ;________________________________________
                 ;
                 ;    These 8 bytes are copied to $4000-$4007 and are cleared afterwards
                 ;
0AF8  D8                 BYTE $D8            ; Multicolor Mode ON
0AF9  1F                 BYTE $1F            ; Characters at $3800-$3FFF, Screen at $0400-$07FF
0AFA  01                 BYTE $01            ; Border Color = WHITE
0AFB  00                 BYTE $00            ; Background Color 0 = BLACK
0AFC  0C                 BYTE $0C            ; Background Color 1 = MEDIUM GREY
0AFD  01                 BYTE $01            ; Background Color 2 = WHITE
0AFE  01                 BYTE $01            ; Sprite Multicolor 0 = WHITE
0AFF  0A                 BYTE $0A            ; Sprite Multicolor 1 = LIGHT RED
                 ;________________________________________
                                             ; 2C
0B00  88 00 00           BYTE $88,$00,$00    ; ##......##......................................
0B03  82 01 80           BYTE $82,$01,$80    ; ##..........##................####..............
0B06  C3 31 00           BYTE $C3,$31,$00    ; ####........####....####......##................
0B09  41 23 10           BYTE $41,$23,$10    ; ..##..........##....##......####......##........
0B0C  53 04 00           BYTE $53,$04,$00    ; ..##..##....####..........##....................
0B0F  10 40 00           BYTE $10,$40,$00    ; ......##..........##............................
0B12  9A E0 80           BYTE $9A,$E0,$80    ; ##....####..##..######..........##..............
0B15  06 85 00           BYTE $06,$85,$00    ; ..........####..##........##..##................
0B18  25 DC 00           BYTE $25,$DC,$00    ; ....##....##..######..######....................
0B1B  63 F8 03           BYTE $63,$F8,$03    ; ..####......##############..................####
0B1E  33 30 06           BYTE $33,$30,$06    ; ....####....####....####..................####..
0B21  37 70 0C           BYTE $37,$70,$0C    ; ....####..######..######................####....
0B24  3E 60 1C           BYTE $3E,$60,$1C    ; ....##########....####................######....
0B27  1F E0 70           BYTE $1F,$E0,$70    ; ......################............######........
0B2A  1B C1 F0           BYTE $1B,$C1,$F0    ; ......####..########..........##########........
0B2D  19 E3 E0           BYTE $19,$E3,$E0    ; ......####....########......##########..........
0B30  19 FF E0           BYTE $19,$FF,$E0    ; ......####....########################..........
0B33  0F FF C0           BYTE $0F,$FF,$C0    ; ........############################............
0B36  0F FF C0           BYTE $0F,$FF,$C0    ; ........############################............
0B39  03 FF 00           BYTE $03,$FF,$00    ; ............####################................
0B3C  00 78 00           BYTE $00,$78,$00    ; ..................########......................
0B3F  00                 BYTE $00
                 ;________________________________________
                                             ; 2D
0B40  00 00 00           BYTE $00,$00,$00    ; ................................................
0B43  00 00 00           BYTE $00,$00,$00    ; ................................................
0B46  00 A8 00           BYTE $00,$A8,$00    ; ................OOOOOOOOOOOO....................
0B49  00 20 00           BYTE $00,$20,$00    ; ....................OOOO........................
0B4C  00 A8 00           BYTE $00,$A8,$00    ; ................OOOOOOOOOOOO....................
0B4F  00 30 00           BYTE $00,$30,$00    ; ....................####........................
0B52  00 FC 00           BYTE $00,$FC,$00    ; ................############....................
0B55  02 32 00           BYTE $02,$32,$00    ; ............OOOO....####....OOOO................
0B58  00 A8 00           BYTE $00,$A8,$00    ; ................OOOOOOOOOOOO....................
0B5B  02 22 00           BYTE $02,$22,$00    ; ............OOOO....OOOO....OOOO................
0B5E  00 A8 00           BYTE $00,$A8,$00    ; ................OOOOOOOOOOOO....................
0B61  02 22 00           BYTE $02,$22,$00    ; ............OOOO....OOOO....OOOO................
0B64  00 A8 00           BYTE $00,$A8,$00    ; ................OOOOOOOOOOOO....................
0B67  02 22 00           BYTE $02,$22,$00    ; ............OOOO....OOOO....OOOO................
0B6A  00 A8 00           BYTE $00,$A8,$00    ; ................OOOOOOOOOOOO....................
0B6D  02 22 00           BYTE $02,$22,$00    ; ............OOOO....OOOO....OOOO................
0B70  00 A8 00           BYTE $00,$A8,$00    ; ................OOOOOOOOOOOO....................
0B73  01 21 00           BYTE $01,$21,$00    ; ............++++....OOOO....++++................
0B76  00 54 00           BYTE $00,$54,$00    ; ................++++++++++++....................
0B79  00 10 00           BYTE $00,$10,$00    ; ....................++++........................
0B7C  01 55 00           BYTE $01,$55,$00    ; ............++++++++++++++++++++................
0B7F  00                 BYTE $00
                 ;________________________________________
                                             ; 2E
0B80  00 00 00           BYTE $00,$00,$00    ; ................................................
0B83  00 00 00           BYTE $00,$00,$00    ; ................................................
0B86  00 88 00           BYTE $00,$88,$00    ; ................OOOO....OOOO....................
0B89  02 02 00           BYTE $02,$02,$00    ; ............OOOO............OOOO................
0B8C  00 00 80           BYTE $00,$00,$80    ; ................................OOOO............
0B8F  02 32 00           BYTE $02,$32,$00    ; ............OOOO....####....OOOO................
0B92  08 0C 00           BYTE $08,$0C,$00    ; ........OOOO............####....................
0B95  02 02 20           BYTE $02,$02,$20    ; ............OOOO............OOOO....OOOO........
0B98  00 88 00           BYTE $00,$88,$00    ; ................OOOO....OOOO....................
0B9B  00 02 20           BYTE $00,$02,$20    ; ............................OOOO....OOOO........
0B9E  08 00 80           BYTE $08,$00,$80    ; ........OOOO....................OOOO............
0BA1  02 20 00           BYTE $02,$20,$00    ; ............OOOO....OOOO........................
0BA4  08 88 80           BYTE $08,$88,$80    ; ........OOOO....OOOO....OOOO....OOOO............
0BA7  00 02 20           BYTE $00,$02,$20    ; ............................OOOO....OOOO........
0BAA  08 00 00           BYTE $08,$00,$00    ; ........OOOO....................................
0BAD  02 22 20           BYTE $02,$22,$20    ; ............OOOO....OOOO....OOOO....OOOO........
0BB0  00 80 80           BYTE $00,$80,$80    ; ................OOOO............OOOO............
0BB3  01 21 00           BYTE $01,$21,$00    ; ............++++....OOOO....++++................
0BB6  04 00 40           BYTE $04,$00,$40    ; ........++++....................++++............
0BB9  00 10 20           BYTE $00,$10,$20    ; ....................++++............OOOO........
0BBC  04 40 40           BYTE $04,$40,$40    ; ........++++....++++............++++............
0BBF  00                 BYTE $00
                 ;________________________________________
                                             ; 2F
0BC0  00 00 00           BYTE $00,$00,$00    ; ................................................
0BC3  00 00 00           BYTE $00,$00,$00    ; ................................................
0BC6  00 00 00           BYTE $00,$00,$00    ; ................................................
0BC9  00 00 00           BYTE $00,$00,$00    ; ................................................
0BCC  00 00 00           BYTE $00,$00,$00    ; ................................................
0BCF  00 00 00           BYTE $00,$00,$00    ; ................................................
0BD2  00 5E 00           BYTE $00,$5E,$00    ; ................++++++++####OOOO................
0BD5  01 FF 80           BYTE $01,$FF,$80    ; ............++++################OOOO............
0BD8  07 FF E0           BYTE $07,$FF,$E0    ; ........++++########################OOOO........
0BDB  1E FF B8           BYTE $1E,$FF,$B8    ; ....++++####OOOO################OOOO####OOOO....
0BDE  18 FE 38           BYTE $18,$FE,$38    ; ....++++OOOO....############OOOO....####OOOO....
0BE1  60 38 0E           BYTE $60,$38,$0E    ; ++++OOOO............####OOOO............####OOOO
0BE4  61 38 4E           BYTE $61,$38,$4E    ; ++++OOOO....++++....####OOOO....++++....####OOOO
0BE7  E0 18 06           BYTE $E0,$18,$06    ; ####OOOO............++++OOOO............++++OOOO
0BEA  FC 7F 1E           BYTE $FC,$7F,$1E    ; ############....++++############....++++####OOOO
0BED  FF AA FE           BYTE $FF,$AA,$FE    ; ################OOOOOOOOOOOOOOOO############OOOO
0BF0  FE 00 FE           BYTE $FE,$00,$FE    ; ############OOOO................############OOOO
0BF3  F8 57 3E           BYTE $F8,$57,$3E    ; ########OOOO....++++++++++++####....########OOOO
0BF6  FD FE 1E           BYTE $FD,$FE,$1E    ; ############++++############OOOO....++++####OOOO
0BF9  FF FF FE           BYTE $FF,$FF,$FE    ; ############################################OOOO
0BFC  FF FF FE           BYTE $FF,$FF,$FE    ; ############################################OOOO
0BFF  3F                 BYTE $3F
                 ;________________________________________
                                             ; 30
0C00  00 7F 80           BYTE $00,$7F,$80    ; ..................################..............
0C03  00 F3 C0           BYTE $00,$F3,$C0    ; ................########....########............
0C06  00 E1 C0           BYTE $00,$E1,$C0    ; ................######........######............
0C09  00 E1 C0           BYTE $00,$E1,$C0    ; ................######........######............
0C0C  00 E1 C0           BYTE $00,$E1,$C0    ; ................######........######............
0C0F  00 F3 C0           BYTE $00,$F3,$C0    ; ................########....########............
0C12  00 7F 80           BYTE $00,$7F,$80    ; ..................################..............
0C15  00 1E 00           BYTE $00,$1E,$00    ; ......................########..................
0C18  00 1E 00           BYTE $00,$1E,$00    ; ......................########..................
0C1B  00 1E 00           BYTE $00,$1E,$00    ; ......................########..................
0C1E  00 1E 00           BYTE $00,$1E,$00    ; ......................########..................
0C21  00 1E 00           BYTE $00,$1E,$00    ; ......................########..................
0C24  00 1E 00           BYTE $00,$1E,$00    ; ......................########..................
0C27  03 FE 00           BYTE $03,$FE,$00    ; ............##################..................
0C2A  03 FE 00           BYTE $03,$FE,$00    ; ............##################..................
0C2D  00 7E 00           BYTE $00,$7E,$00    ; ..................############..................
0C30  00 7E 00           BYTE $00,$7E,$00    ; ..................############..................
0C33  03 FE 00           BYTE $03,$FE,$00    ; ............##################..................
0C36  03 FE 00           BYTE $03,$FE,$00    ; ............##################..................
0C39  00 1E 00           BYTE $00,$1E,$00    ; ......................########..................
0C3C  00 08 00           BYTE $00,$08,$00    ; ........................##......................
0C3F  00                 BYTE $00
                 ;________________________________________
                                             ; 31
0C40  00 20 00           BYTE $00,$20,$00    ; ....................OOOO........................
0C43  00 88 00           BYTE $00,$88,$00    ; ................OOOO....OOOO....................
0C46  00 88 00           BYTE $00,$88,$00    ; ................OOOO....OOOO....................
0C49  00 20 00           BYTE $00,$20,$00    ; ....................OOOO........................
0C4C  00 A8 00           BYTE $00,$A8,$00    ; ................OOOOOOOOOOOO....................
0C4F  02 AA 00           BYTE $02,$AA,$00    ; ............OOOOOOOOOOOOOOOOOOOO................
0C52  02 AA 00           BYTE $02,$AA,$00    ; ............OOOOOOOOOOOOOOOOOOOO................
0C55  02 AA 00           BYTE $02,$AA,$00    ; ............OOOOOOOOOOOOOOOOOOOO................
0C58  02 AA 00           BYTE $02,$AA,$00    ; ............OOOOOOOOOOOOOOOOOOOO................
0C5B  02 AA 00           BYTE $02,$AA,$00    ; ............OOOOOOOOOOOOOOOOOOOO................
0C5E  02 AA 00           BYTE $02,$AA,$00    ; ............OOOOOOOOOOOOOOOOOOOO................
0C61  02 AA 00           BYTE $02,$AA,$00    ; ............OOOOOOOOOOOOOOOOOOOO................
0C64  02 AA 00           BYTE $02,$AA,$00    ; ............OOOOOOOOOOOOOOOOOOOO................
0C67  0A AA 80           BYTE $0A,$AA,$80    ; ........OOOOOOOOOOOOOOOOOOOOOOOOOOOO............
0C6A  0A AA 80           BYTE $0A,$AA,$80    ; ........OOOOOOOOOOOOOOOOOOOOOOOOOOOO............
0C6D  2A AA A0           BYTE $2A,$AA,$A0    ; ....OOOOOOOOOOOOOOOOOOOOOOOOOOOOOOOOOOOO........
0C70  00 54 00           BYTE $00,$54,$00    ; ................++++++++++++....................
0C73  00 10 00           BYTE $00,$10,$00    ; ....................++++........................
0C76  00 00 00           BYTE $00,$00,$00    ; ................................................
0C79  00 00 00           BYTE $00,$00,$00    ; ................................................
0C7C  00 00 00           BYTE $00,$00,$00    ; ................................................
0C7F  00                 BYTE $00
                 ;________________________________________
                                             ; 32
0C80  00 02 00           BYTE $00,$02,$00    ; ............................OOOO................
0C83  00 08 00           BYTE $00,$08,$00    ; ........................OOOO....................
0C86  00 20 00           BYTE $00,$20,$00    ; ....................OOOO........................
0C89  00 22 A0           BYTE $00,$22,$A0    ; ....................OOOO....OOOOOOOOOOOO........
0C8C  0A 88 A8           BYTE $0A,$88,$A8    ; ........OOOOOOOOOOOO....OOOO....OOOOOOOOOOOO....
0C8F  2A 28 2A           BYTE $2A,$28,$2A    ; ....OOOOOOOOOOOO....OOOOOOOO........OOOOOOOOOOOO
0C92  A8 8A 00           BYTE $A8,$8A,$00    ; OOOOOOOOOOOO....OOOO....OOOOOOOO................
0C95  A2 08 80           BYTE $A2,$08,$80    ; OOOOOOOO....OOOO........OOOO....OOOO............
0C98  02 20 80           BYTE $02,$20,$80    ; ............OOOO....OOOO........OOOO............
0C9B  08 20 20           BYTE $08,$20,$20    ; ........OOOO........OOOO............OOOO........
0C9E  08 20 30           BYTE $08,$20,$30    ; ........OOOO........OOOO............####........
0CA1  30 20 FC           BYTE $30,$20,$FC    ; ....####............OOOO........############....
0CA4  FC 30 FC           BYTE $FC,$30,$FC    ; ############........####........############....
0CA7  FC FC FC           BYTE $FC,$FC,$FC    ; ############....############....############....
0CAA  FC FC FC           BYTE $FC,$FC,$FC    ; ############....############....############....
0CAD  FC FC 30           BYTE $FC,$FC,$30    ; ############....############........####........
0CB0  30 FC 00           BYTE $30,$FC,$00    ; ....####........############....................
0CB3  00 30 00           BYTE $00,$30,$00    ; ....................####........................
0CB6  00 00 00           BYTE $00,$00,$00    ; ................................................
0CB9  00 00 00           BYTE $00,$00,$00    ; ................................................
0CBC  00 00 00           BYTE $00,$00,$00    ; ................................................
0CBF  00                 BYTE $00
                 ;________________________________________
                                             ; 33
0CC0  03 FF 00           BYTE $03,$FF,$00    ; ............####################................
0CC3  3C FC F0           BYTE $3C,$FC,$F0    ; ....########....############....########........
0CC6  FF FF FC           BYTE $FF,$FF,$FC    ; ############################################....
0CC9  0F 57 C0           BYTE $0F,$57,$C0    ; ........########++++++++++++########............
0CCC  FF 57 FC           BYTE $FF,$57,$FC    ; ################++++++++++++################....
0CCF  FC FC FC           BYTE $FC,$FC,$FC    ; ############....############....############....
0CD2  F3 FF 3C           BYTE $F3,$FF,$3C    ; ########....####################....########....
0CD5  03 FF 00           BYTE $03,$FF,$00    ; ............####################................
0CD8  00 20 00           BYTE $00,$20,$00    ; ....................OOOO........................
0CDB  80 20 00           BYTE $80,$20,$00    ; OOOO................OOOO........................
0CDE  A8 20 0A           BYTE $A8,$20,$0A    ; OOOOOOOOOOOO........OOOO................OOOOOOOO
0CE1  A8 20 2A           BYTE $A8,$20,$2A    ; OOOOOOOOOOOO........OOOO............OOOOOOOOOOOO
0CE4  2A 20 AA           BYTE $2A,$20,$AA    ; ....OOOOOOOOOOOO....OOOO........OOOOOOOOOOOOOOOO
0CE7  2A A2 A8           BYTE $2A,$A2,$A8    ; ....OOOOOOOOOOOOOOOOOOOO....OOOOOOOOOOOOOOOO....
0CEA  02 AA 80           BYTE $02,$AA,$80    ; ............OOOOOOOOOOOOOOOOOOOOOOOO............
0CED  00 2A 00           BYTE $00,$2A,$00    ; ....................OOOOOOOOOOOO................
0CF0  00 20 00           BYTE $00,$20,$00    ; ....................OOOO........................
0CF3  00 20 00           BYTE $00,$20,$00    ; ....................OOOO........................
0CF6  00 20 00           BYTE $00,$20,$00    ; ....................OOOO........................
0CF9  00 20 00           BYTE $00,$20,$00    ; ....................OOOO........................
0CFC  00 00 00           BYTE $00,$00,$00    ; ................................................
0CFF  00                 BYTE $00
                 ;________________________________________
0D00  A9 37      L00030  LDA #$37            ; Select I/O at $D000-$DFFF
0D02  85 01              STA $01             ; INPUT/OUTPUT REGISTER
0D04  58                 CLI
0D05  A2 2D              LDX #$2D
0D07  A9 06              LDA #$06
0D09  9D 49 03   L00031  STA $0349,X
0D0C  CA                 DEX
0D0D  CA                 DEX
0D0E  CA                 DEX
0D0F  10 F8              BPL L00031
0D11  A9 00              LDA #$00
0D13  85 A3              STA $A3
0D15  85 AA              STA $AA
0D17  A9 8F              LDA #$8F
0D19  8D 18 D4           STA $D418           ; SELECT OUTPUT VOLUME
0D1C  A9 2A              LDA #$2A
0D1E  8D 0F D4           STA $D40F           ; FREQUENCY VOICE 3 - HI
0D21  A2 07              LDX #$07
0D23  BC C3 0E   L00032  LDY $0EC3,X
0D26  BD 00 40           LDA $4000,X         ; Control values for VIC. (See $0AF8 for details)
0D29  99 00 D0           STA $D000,Y         ; $D016=#$D8, $D018=#$1F, $D020=#$01, $D021=#$00, $D022=#$0C, $D023=#$01, $D025=#$01, $D026=#$0A
0D2C  CA                 DEX
0D2D  10 F4              BPL L00032
0D2F  A9 07              LDA #$07
0D31  8D 18 50           STA $5018           ; Sprite 0 Color
0D34  A9 01              LDA #$01
0D36  8D 20 50           STA $5020
0D39  A2 00              LDX #$00
0D3B  8E 28 50           STX $5028
0D3E  8E 30 50           STX $5030
0D41  20 9A 1A           JSR L00215
0D44  78                 SEI
0D45  A9 BD              LDA #$BD            ; IRQ routine at $15BD
0D47  8D 14 03           STA $0314           ; HARDWARE IRQ VECTOR - LO
0D4A  A9 15              LDA #$15
0D4C  8D 15 03           STA $0315           ; HARDWARE IRQ VECTOR - HI
0D4F  A9 FA              LDA #$FA            ; Next raster IRQ in line 250
0D51  8D 12 D0           STA $D012           ; VIC RASTER REGISTER
0D54  A9 81              LDA #$81
0D56  8D 1A D0           STA $D01A           ; VIC IRQ ENABLE/DISABLE
0D59  AD 11 D0           LDA $D011           ; VIC CONTROL REGISTER 1
0D5C  29 7F              AND #$7F            ; RAS-HI OFF
0D5E  8D 11 D0           STA $D011
0D61  A9 4C      L00033  LDA #$4C            ; Entry point for starting a new game
0D63  8D CA 15           STA $15CA           ; Change 15CA BIT $1B46 to 15CA JMP $1B46
0D66  58                 CLI
0D67  A2 0F              LDX #$0F
0D69  A9 FF              LDA #$FF            ; All sprites are still in room
0D6B  9D 00 60   L00034  STA $6000,X         ; Sprites still in room (not picked up or killed)
0D6E  CA                 DEX
0D6F  10 FA              BPL L00034
0D71  A9 09              LDA #$09            ; Initial room
0D73  85 02              STA $02             ; ROOM
0D75  A9 30              LDA #$30            ; Initial Hero X-POS
0D77  8D 98 50           STA $5098           ; Hero X-POS
0D7A  A9 B9              LDA #$B9            ; Initial Hero Y-POS
0D7C  8D A0 50           STA $50A0           ; Hero Y-POS
0D7F  A9 04              LDA #$04
0D81  85 B1              STA $B1
0D83  A9 00              LDA #$00
0D85  85 B0              STA $B0
0D87  85 B8              STA $B8             ; Initial KEYS
0D89  85 F7              STA $F7
0D8B  85 F8              STA $F8
0D8D  A9 06              LDA #$06
0D8F  85 06              STA $06             ; Initial LIVES = 6
0D91  20 A1 12   L00035  JSR L00083          ; Draw room
0D94  20 CB 0E           JSR L00053
0D97  AD 98 50           LDA $5098           ; Hero X-POS
0D9A  85 B4              STA $B4
0D9C  AD A0 50           LDA $50A0           ; Hero Y-POS
0D9F  85 B5              STA $B5
0DA1  A5 B0              LDA $B0
0DA3  85 B6              STA $B6
0DA5  A5 B1              LDA $B1
0DA7  85 B7              STA $B7
0DA9  A5 B4      L00036  LDA $B4
0DAB  8D 98 50           STA $5098           ; Hero X-POS
0DAE  A5 B5              LDA $B5
0DB0  8D A0 50           STA $50A0           ; Hero Y-POS
0DB3  A5 B6              LDA $B6
0DB5  85 B0              STA $B0
0DB7  A6 B7              LDX $B7
0DB9  86 B1              STX $B1
0DBB  20 50 19           JSR L00185
0DBE  20 50 0F           JSR L00062
0DC1  A2 07              LDX #$07
0DC3  A9 00      L00037  LDA #$00
0DC5  9D D8 50           STA $50D8,X
0DC8  9D C8 50           STA $50C8,X
0DCB  9D D0 50           STA $50D0,X
0DCE  BD 41 E0           LDA $E041,X
0DD1  9D F0 50           STA $50F0,X
0DD4  CA                 DEX
0DD5  10 EC              BPL L00037
0DD7  A9 2C              LDA #$2C
0DD9  8D CA 15           STA $15CA           ; Change 15CA JMP $1B46 to 15CA BIT $1B46
0DDC  20 E4 FF   L00038  JSR $FFE4           ; KERNAL get a character
0DDF  C9 85              CMP #$85            ; Was F1 pressed?
0DE1  D0 03              BNE L00039
0DE3  4C 61 0D           JMP L00033          ; Yes - start a new game
0DE6  06 B9      L00039  ASL $B9
0DE8  90 03              BCC L00040
0DEA  20 D7 0E           JSR L00054
0DED  AD CA 15   L00040  LDA $15CA           ; Is 15CA a JMP instruction?
0DF0  C9 4C              CMP #$4C
0DF2  D0 E8              BNE L00038          ; Branch if it is not a JMP instruction (but a BIT instruction)
0DF4  A6 B3              LDX $B3             ; ACTION
0DF6  F0 99              BEQ L00035
0DF8  CA                 DEX
0DF9  F0 4C              BEQ L00048
0DFB  CA                 DEX
0DFC  D0 19      L00041  BNE L00043
0DFE  A9 01              LDA #$01
0E00  85 A3              STA $A3
0E02  85 AA              STA $AA
0E04  A9 02              LDA #$02
0E06  85 04              STA $04
0E08  A9 2C              LDA #$2C
0E0A  8D F8 07           STA $07F8
0E0D  EE F8 07   L00042  INC $07F8
0E10  20 6E 0E           JSR L00051          ; Pause
0E13  C6 04              DEC $04
0E15  D0 F6              BNE L00042
0E17  A2 00      L00043  LDX #$00
0E19  20 9D 19           JSR L00191
0E1C  C6 06              DEC $06             ; Decrease LIVES
0E1E  20 D7 0E           JSR L00054
0E21  20 6B 0E           JSR L00050          ; Double pause
0E24  A5 06              LDA $06             ; LIVES
0E26  F0 03              BEQ L00044          ; Branch if LIVES is zero
0E28  4C A9 0D           JMP L00036
0E2B  A2 0C      L00044  LDX #$0C
0E2D  A0 0F              LDY #$0F
0E2F  18                 CLC
0E30  20 F0 FF           JSR $FFF0           ; KERNAL read/set XY cursor position
0E33  A9 79              LDA #$79            ; Point to address of 'GAME OVER' text
0E35  A0 0E              LDY #$0E
0E37  20 1E AB           JSR $AB1E           ; KERNAL print string form AY
0E3A  20 E4 FF   L00045  JSR $FFE4           ; KERNAL get a character
0E3D  D0 FB              BNE L00045          ; Wait until a key is pressed
0E3F  20 E4 FF   L00046  JSR $FFE4           ; KERNAL get a character
0E42  F0 FB              BEQ L00046          ; Wait until key is released
0E44  4C 61 0D   L00047  JMP L00033          ; Start a new game
0E47  A9 83      L00048  LDA #$83            ; Point to the address of 'CONGRATULATIONS, YOU HAVE FOUND THE PRINCESS' text
0E49  A0 0E              LDY #$0E
0E4B  20 1E AB           JSR $AB1E           ; KERNAL print string form AY
0E4E  A9 46              LDA #$46
0E50  8D 02 D0           STA $D002           ; SPRITE 1 X POS
0E53  A9 37              LDA #$37
0E55  8D 03 D0           STA $D003           ; SPRITE 1 Y POS
0E58  A9 02              LDA #$02            ; Show dragon sprite
0E5A  8D 15 D0           STA $D015           ; SPRITE DISPLAY
0E5D  20 E4 FF   L00049  JSR $FFE4           ; KERNAL get a character
0E60  C9 59              CMP #$59
0E62  F0 E0              BEQ L00047          ; Branch if 'Y' is pressed
0E64  C9 4E              CMP #$4E
0E66  D0 F5              BNE L00049          ; Branch if the pressed key is not 'N'
0E68  4C E2 FC           JMP $FCE2 
                 ;________________________________________
                 ;
                 ;    Double pause
                 ;
0E6B  20 6E 0E   L00050  JSR L00051          ; Pause
0E6E  A2 00      L00051  LDX #$00            ; Pause
0E70  A0 00              LDY #$00
0E72  CA         L00052  DEX
0E73  D0 FD              BNE L00052
0E75  88                 DEY
0E76  D0 FA              BNE L00052
0E78  60                 RTS
                 ;________________________________________
0E79  47                 BYTE $47            ; 71       G
0E7A  41                 BYTE $41            ; 65       A
0E7B  4D                 BYTE $4D            ; 77       M
0E7C  45                 BYTE $45            ; 69       E
0E7D  1D                 BYTE $1D            ; 29       [CURSOR RIGHT]
0E7E  4F                 BYTE $4F            ; 79       O
0E7F  56                 BYTE $56            ; 86       V
0E80  45                 BYTE $45            ; 69       E
0E81  52                 BYTE $52            ; 82       R
0E82  00                 BYTE $00            ; 0         
0E83  93                 BYTE $93            ; 147      [CLEAR SCREEN]
0E84  11                 BYTE $11            ; 17       [CURSOR DOWN]
0E85  11                 BYTE $11            ; 17       [CURSOR DOWN]
0E86  11                 BYTE $11            ; 17       [CURSOR DOWN]
0E87  11                 BYTE $11            ; 17       [CURSOR DOWN]
0E88  43                 BYTE $43            ; 67       C
0E89  4F                 BYTE $4F            ; 79       O
0E8A  4E                 BYTE $4E            ; 78       N
0E8B  47                 BYTE $47            ; 71       G
0E8C  52                 BYTE $52            ; 82       R
0E8D  41                 BYTE $41            ; 65       A
0E8E  54                 BYTE $54            ; 84       T
0E8F  55                 BYTE $55            ; 85       U
0E90  4C                 BYTE $4C            ; 76       L
0E91  41                 BYTE $41            ; 65       A
0E92  54                 BYTE $54            ; 84       T
0E93  49                 BYTE $49            ; 73       I
0E94  4F                 BYTE $4F            ; 79       O
0E95  4E                 BYTE $4E            ; 78       N
0E96  53                 BYTE $53            ; 83       S
0E97  2C                 BYTE $2C            ; 44       ,
0E98  0D                 BYTE $0D            ; 13       [RETURN]
0E99  59                 BYTE $59            ; 89       Y
0E9A  4F                 BYTE $4F            ; 79       O
0E9B  55                 BYTE $55            ; 85       U
0E9C  20                 BYTE $20            ; 32        
0E9D  46                 BYTE $46            ; 70       F
0E9E  4F                 BYTE $4F            ; 79       O
0E9F  55                 BYTE $55            ; 85       U
0EA0  4E                 BYTE $4E            ; 78       N
0EA1  44                 BYTE $44            ; 68       D
0EA2  20                 BYTE $20            ; 32        
0EA3  54                 BYTE $54            ; 84       T
0EA4  48                 BYTE $48            ; 72       H
0EA5  45                 BYTE $45            ; 69       E
0EA6  20                 BYTE $20            ; 32        
0EA7  50                 BYTE $50            ; 80       P
0EA8  52                 BYTE $52            ; 82       R
0EA9  49                 BYTE $49            ; 73       I
0EAA  4E                 BYTE $4E            ; 78       N
0EAB  43                 BYTE $43            ; 67       C
0EAC  45                 BYTE $45            ; 69       E
0EAD  53                 BYTE $53            ; 83       S
0EAE  53                 BYTE $53            ; 83       S
0EAF  2E                 BYTE $2E            ; 46       .
0EB0  0D                 BYTE $0D            ; 13       [RETURN]
0EB1  50                 BYTE $50            ; 80       P
0EB2  4C                 BYTE $4C            ; 76       L
0EB3  41                 BYTE $41            ; 65       A
0EB4  59                 BYTE $59            ; 89       Y
0EB5  20                 BYTE $20            ; 32        
0EB6  41                 BYTE $41            ; 65       A
0EB7  47                 BYTE $47            ; 71       G
0EB8  41                 BYTE $41            ; 65       A
0EB9  49                 BYTE $49            ; 73       I
0EBA  4E                 BYTE $4E            ; 78       N
0EBB  3F                 BYTE $3F            ; 63       ?
0EBC  20                 BYTE $20            ; 32        
0EBD  28                 BYTE $28            ; 40       (
0EBE  59                 BYTE $59            ; 89       Y
0EBF  2F                 BYTE $2F            ; 47       /
0EC0  4E                 BYTE $4E            ; 78       N
0EC1  29                 BYTE $29            ; 41       )
0EC2  00                 BYTE $00
                 ;________________________________________
0EC3  16                 BYTE $16
0EC4  18                 BYTE $18
0EC5  20                 BYTE $20            ; 32        
0EC6  21                 BYTE $21            ; 33       !
0EC7  22                 BYTE $22            ; 34       ''
0EC8  23                 BYTE $23            ; 35       #
0EC9  25                 BYTE $25
0ECA  26                 BYTE $26
                 ;________________________________________
0ECB  A0 05      L00053  LDY #$05
0ECD  20 2C 0F           JSR L00061          ; Set cursor position
0ED0  A9 32              LDA #$32            ; Point to 'SCORE, LIVES and KEYS' text
0ED2  A0 0F              LDY #$0F
0ED4  20 1E AB           JSR $AB1E           ; KERNAL print string form AY
0ED7  A5 F7      L00054  LDA $F7
0ED9  A4 F8              LDY $F8
0EDB  85 63              STA $63
0EDD  84 62              STY $62
0EDF  A2 90              LDX #$90
0EE1  38                 SEC
0EE2  20 49 BC           JSR $BC49 
0EE5  20 E2 BA           JSR $BAE2           ; KERNAL multiply float accu by 10
0EE8  20 DD BD           JSR $BDDD           ; KERNAL convert number in float accu to string
0EEB  A2 FF              LDX #$FF
0EED  E8         L00055  INX
0EEE  BD 02 01           LDA $0102,X
0EF1  D0 FA              BNE L00055
0EF3  F0 11              BEQ L00059
0EF5  A9 30      L00056  LDA #$30
0EF7  8D 00 01           STA $0100
0EFA  A0 05              LDY #$05
0EFC  B9 00 01   L00058  LDA $0100,Y
0EFF  99 01 01           STA $0101,Y
0F02  88                 DEY
0F03  10 F7              BPL L00058
0F05  E8                 INX
0F06  E0 04      L00059  CPX #$04
0F08  D0 EB              BNE L00056
0F0A  A0 0B              LDY #$0B
0F0C  20 2C 0F           JSR L00061          ; Set cursor position
0F0F  A9 01              LDA #$01
0F11  A8                 TAY
0F12  20 1E AB           JSR $AB1E           ; KERNAL print string form AY
0F15  A0 19              LDY #$19
0F17  20 2C 0F           JSR L00061          ; Set cursor position
0F1A  A5 06              LDA $06             ; LIVES
0F1C  20 26 0F           JSR L00060          ; Show value of LIVES on screen
0F1F  A0 22              LDY #$22
0F21  20 2C 0F           JSR L00061          ; Set cursor position
0F24  A5 B8              LDA $B8             ; Show value of KEYS on screen
0F26  18         L00060  CLC
0F27  69 30              ADC #$30
0F29  4C 16 E7           JMP $E716           ; put a character to screen
                 ;________________________________________
                 ;
                 ;    Set cursor position
                 ;
0F2C  A2 17      L00061  LDX #$17
0F2E  18                 CLC
0F2F  4C F0 FF           JMP $FFF0           ; KERNAL read/set XY cursor position
                 ;________________________________________
0F32  05                 BYTE $05            ; 5        [WHITE]
0F33  53                 BYTE $53            ; 83       S
0F34  43                 BYTE $43            ; 67       C
0F35  4F                 BYTE $4F            ; 79       O
0F36  52                 BYTE $52            ; 82       R
0F37  45                 BYTE $45            ; 69       E
0F38  20                 BYTE $20            ; 32        
0F39  1D                 BYTE $1D            ; 29       [CURSOR RIGHT]
0F3A  1D                 BYTE $1D            ; 29       [CURSOR RIGHT]
0F3B  1D                 BYTE $1D            ; 29       [CURSOR RIGHT]
0F3C  1D                 BYTE $1D            ; 29       [CURSOR RIGHT]
0F3D  1D                 BYTE $1D            ; 29       [CURSOR RIGHT]
0F3E  20                 BYTE $20            ; 32        
0F3F  20                 BYTE $20            ; 32        
0F40  20                 BYTE $20            ; 32        
0F41  4C                 BYTE $4C            ; 76       L
0F42  49                 BYTE $49            ; 73       I
0F43  56                 BYTE $56            ; 86       V
0F44  45                 BYTE $45            ; 69       E
0F45  53                 BYTE $53            ; 83       S
0F46  20                 BYTE $20            ; 32        
0F47  1D                 BYTE $1D            ; 29       [CURSOR RIGHT]
0F48  20                 BYTE $20            ; 32        
0F49  20                 BYTE $20            ; 32        
0F4A  20                 BYTE $20            ; 32        
0F4B  4B                 BYTE $4B            ; 75       K
0F4C  45                 BYTE $45            ; 69       E
0F4D  59                 BYTE $59            ; 89       Y
0F4E  53                 BYTE $53            ; 83       S
0F4F  00                 BYTE $00            ; 0         
                 ;________________________________________
0F50  A6 02      L00062  LDX $02             ; ROOM
0F52  BD 89 10           LDA $1089,X         ; LO byte of pointer to table of sprites in Room X
0F55  85 F9              STA $F9
0F57  BD 99 10           LDA $1099,X         ; HI byte of pointer to table of sprites in Room X
0F5A  85 FA              STA $FA
0F5C  A2 00              LDX #$00
0F5E  A0 00              LDY #$00
0F60  B1 F9      L00063  LDA ($F9),Y         ; Read byte from table of sprites in Room
0F62  D0 03              BNE L00064
0F64  4C E8 0F           JMP L00069
0F67  E8         L00064  INX
0F68  C8                 INY
0F69  8E 8D 0F           STX $0F8D           ; Backup X-reg.
0F6C  8C 8F 0F           STY $0F8F           ; Backup Y-reg.
0F6F  0A                 ASL
0F70  0A                 ASL
0F71  8D 76 0F           STA $0F76
0F74  0A                 ASL
0F75  69 00              ADC #$00            ; This value is changed in instruction $0F71
0F77  A8                 TAY                 ; Y is now 12 times the value read in instruction $0F60
0F78  A9 0C              LDA #$0C
0F7A  85 04              STA $04
0F7C  B9 F9 0F   L00065  LDA $0FF9,Y         ; First time the value #$32 is read from $1059
0F7F  9D 00 50           STA $5000,X         ; First time the value is stored in $5001
0F82  C8                 INY
0F83  8A                 TXA
0F84  18                 CLC
0F85  69 08              ADC #$08
0F87  AA                 TAX
0F88  C6 04              DEC $04
0F8A  D0 F0              BNE L00065
0F8C  A2 00              LDX #$00            ; This value is changed in instruction $0F69
0F8E  A0 00              LDY #$00            ; This value is changed in instruction $0F6C
0F90  B1 F9              LDA ($F9),Y         ; Read next byte from table of sprites in Room - First time it is #$18
0F92  9D 98 50           STA $5098,X
0F95  C8                 INY
0F96  B1 F9              LDA ($F9),Y         ; Read next byte from table of sprites in Room  - First time it is #$48
0F98  9D A0 50           STA $50A0,X
0F9B  C8                 INY
0F9C  B1 F9              LDA ($F9),Y         ; Read next byte from table of sprites in Room  - First time it is #$00
0F9E  C8                 INY
0F9F  48                 PHA
0FA0  29 F0              AND #$F0
0FA2  4A                 LSR
0FA3  4A                 LSR
0FA4  4A                 LSR
0FA5  4A                 LSR
0FA6  C9 08              CMP #$08
0FA8  90 02              BCC L00066
0FAA  09 F0              ORA #$F0
0FAC  9D 60 50   L00066  STA $5060,X
0FAF  68                 PLA
0FB0  29 0F              AND #$0F
0FB2  C9 08              CMP #$08
0FB4  90 02              BCC L00067
0FB6  09 F0              ORA #$F0
0FB8  9D 68 50   L00067  STA $5068,X
0FBB  B1 F9              LDA ($F9),Y
0FBD  C8                 INY
0FBE  9D 90 50           STA $5090,X
0FC1  8E DF 0F           STX $0FDF           ; Backup X-reg.
0FC4  8C E4 0F           STY $0FE4           ; Backup Y-reg.
0FC7  0A                 ASL
0FC8  0A                 ASL
0FC9  A8                 TAY
0FCA  A9 04              LDA #$04
0FCC  85 04              STA $04
0FCE  B9 49 12   L00068  LDA $1249,Y
0FD1  C8                 INY
0FD2  9D 70 50           STA $5070,X
0FD5  8A                 TXA
0FD6  18                 CLC
0FD7  69 08              ADC #$08
0FD9  AA                 TAX
0FDA  C6 04              DEC $04
0FDC  D0 F0              BNE L00068
0FDE  A2 00              LDX #$00            ; This value is changed in instruction $0FC1
0FE0  20 9A 1A           JSR L00215
0FE3  A0 00              LDY #$00            ; This value is changed in instruction $0FC4
0FE5  4C 60 0F           JMP L00063
0FE8  BD FD 0F   L00069  LDA $0FFD,X         ; Sum of sprite numbers in room
0FEB  A4 02              LDY $02             ; ROOM
0FED  39 00 60           AND $6000,Y         ; AND with sprites still in room (not picked up or killed)
0FF0  8D 15 D0           STA $D015           ; SPRITE DISPLAY
0FF3  20 82 1A   L00070  JSR L00214
0FF6  CA                 DEX
0FF7  10 FA              BPL L00070
0FF9  AD 1E D0           LDA $D01E           ; Clear SPRITE-SPRITE COLLISION
0FFC  60                 RTS
                 ;________________________________________
                 ;
                 ;    Sum of sprite numbers. Table used in instruction at $0FE8
                 ;
0FFD  01                 BYTE $01            ; 1 sprite
0FFE  03                 BYTE $03            ; 2 sprites
0FFF  07                 BYTE $07            ; 3 sprites
1000  0F                 BYTE $0F            ; 4 sprites
1001  1F                 BYTE $1F            ; 5 sprites
1002  3F                 BYTE $3F            ; 6 sprites
1003  7F                 BYTE $7F            ; 7 sprites
1004  FF                 BYTE $FF            ; 8 sprites
                 ;________________________________________
                 ;
                 ;    Characteristics for type 27 sprite (Dragon)
                 ;
1005  27                 BYTE $27            ; Type = SPRITE PTR
1006  55                 BYTE $55            ; Delay before changing to next sprite frame
1007  02                 BYTE $02            ; Number of frames in animation cycle
1008  05                 BYTE $05            ; Colour = GREEN
1009  01                 BYTE $01            ; Multicolor sprite
100A  00                 BYTE $00            ; No X-Expansion
100B  00                 BYTE $00            ; No Y-Expansion
100C  00                 BYTE $00            ; Can NOT be picked up, opened or killed
100D  00                 BYTE $00            ; ACTION = No action
100E  00                 BYTE $00            ; Sound Effect to play
100F  00                 BYTE $00            ; Number of points awarded
1010  00                 BYTE $00            ; Number of extra lives awarded
                 ;________________________________________
                 ;
                 ;    Characteristics for type 29 sprite (Princess)
                 ;
1011  29                 BYTE $29            ; Type = SPRITE PTR
1012  00                 BYTE $00            ; Delay before changing to next sprite frame
1013  01                 BYTE $01            ; Number of frames in animation cycle
1014  08                 BYTE $08            ; Colour = ORANGE
1015  01                 BYTE $01            ; Multicolor sprite
1016  00                 BYTE $00            ; No X-Expansion
1017  00                 BYTE $00            ; No Y-Expansion
1018  00                 BYTE $00            ; Can NOT be picked up, opened or killed
1019  07                 BYTE $07            ; ACTION = You found the princess
101A  00                 BYTE $00            ; Sound Effect to play
101B  00                 BYTE $00            ; Number of points awarded
101C  00                 BYTE $00            ; Number of extra lives awarded
                 ;________________________________________
                 ;
                 ;    Characteristics for type 2A sprite (Help text boble)
                 ;
101D  2A                 BYTE $2A            ; Type = SPRITE PTR
101E  80                 BYTE $80            ; Delay before changing to next sprite frame
101F  02                 BYTE $02            ; Number of frames in animation cycle
1020  03                 BYTE $03            ; Colour = CYAN
1021  00                 BYTE $00            ; Single colour sprite
1022  01                 BYTE $01            ; With X-Expansion
1023  00                 BYTE $00            ; No Y-Expansion
1024  00                 BYTE $00            ; Can NOT be picked up, opened or killed
1025  00                 BYTE $00            ; ACTION = No action
1026  00                 BYTE $00            ; Sound Effect to play
1027  00                 BYTE $00            ; Number of points awarded
1028  00                 BYTE $00            ; Number of extra lives awarded
                 ;________________________________________
                 ;
                 ;    Characteristics for type 2B sprite (Dragon breath - Blank phase of flashing cycle)
                 ;
1029  2B                 BYTE $2B            ; Type = SPRITE PTR
102A  55                 BYTE $55            ; Delay before changing to next sprite frame
102B  02                 BYTE $02            ; Number of frames in animation cycle
102C  07                 BYTE $07            ; Colour = YELLOW
102D  00                 BYTE $00            ; Single colour sprite
102E  01                 BYTE $01            ; With X-Expansion
102F  01                 BYTE $01            ; With Y-Expansion
1030  00                 BYTE $00            ; Can NOT be picked up, opened or killed
1031  02                 BYTE $02            ; ACTION = You are on fire!
1032  00                 BYTE $00            ; Sound Effect to play
1033  00                 BYTE $00            ; Number of points awarded
1034  00                 BYTE $00            ; Number of extra lives awarded
                 ;________________________________________
                 ;
                 ;    Characteristics for type 0D sprite (Door)
                 ;
1035  0D                 BYTE $0D            ; Type = SPRITE PTR
1036  00                 BYTE $00            ; Delay before changing to next sprite frame
1037  01                 BYTE $01            ; Number of frames in animation cycle
1038  07                 BYTE $07            ; Colour = YELLOW
1039  00                 BYTE $00            ; Single colour sprite
103A  01                 BYTE $01            ; With X-Expansion
103B  01                 BYTE $01            ; With Y-Expansion
103C  05                 BYTE $05            ; Can be picked up, opened or killed
103D  04                 BYTE $04            ; ACTION = Try to open door
103E  00                 BYTE $00            ; Sound Effect to play
103F  00                 BYTE $00            ; Number of points awarded
1040  00                 BYTE $00            ; Number of extra lives awarded
                 ;________________________________________
                 ;
                 ;    Characteristics for type 30 sprite (Key)
                 ;
1041  30                 BYTE $30            ; Type = SPRITE PTR
1042  00                 BYTE $00            ; Delay before changing to next sprite frame
1043  01                 BYTE $01            ; Number of frames in animation cycle
1044  04                 BYTE $04            ; Colour = PURPLE
1045  00                 BYTE $00            ; Single colour sprite
1046  00                 BYTE $00            ; No X-Expansion
1047  00                 BYTE $00            ; No Y-Expansion
1048  01                 BYTE $01            ; Can be picked up, opened or killed
1049  03                 BYTE $03            ; ACTION = You have picked up a key
104A  09                 BYTE $09            ; Sound Effect to play
104B  32                 BYTE $32            ; Number of points awarded
104C  00                 BYTE $00            ; Number of extra lives awarded
                 ;________________________________________
                 ;
                 ;    Characteristics for type 31 sprite (Bell)
                 ;
104D  31                 BYTE $31            ; Type = SPRITE PTR
104E  00                 BYTE $00            ; Delay before changing to next sprite frame
104F  01                 BYTE $01            ; Number of frames in animation cycle
1050  07                 BYTE $07            ; Colour = YELLOW
1051  01                 BYTE $01            ; Multicolor sprite
1052  00                 BYTE $00            ; No X-Expansion
1053  00                 BYTE $00            ; No Y-Expansion
1054  01                 BYTE $01            ; Can be picked up, opened or killed
1055  00                 BYTE $00            ; ACTION = No action
1056  0A                 BYTE $0A            ; Sound Effect to play
1057  14                 BYTE $14            ; Number of points awarded
1058  01                 BYTE $01            ; Number of extra lives awarded
                 ;________________________________________
                 ;
                 ;    Characteristics for type 32 sprite (Cherries)
                 ;
1059  32                 BYTE $32            ; Type = SPRITE PTR
105A  00                 BYTE $00            ; Delay before changing to next sprite frame
105B  01                 BYTE $01            ; Number of frames in animation cycle
105C  05                 BYTE $05            ; Colour = GREEN
105D  01                 BYTE $01            ; Multicolor sprite
105E  00                 BYTE $00            ; No X-Expansion
105F  00                 BYTE $00            ; No Y-Expansion
1060  01                 BYTE $01            ; Can be picked up, opened or killed
1061  00                 BYTE $00            ; ACTION = No action
1062  06                 BYTE $06            ; Sound Effect to play
1063  05                 BYTE $05            ; Number of points awarded
1064  00                 BYTE $00            ; Number of extra lives awarded
                 ;________________________________________
                 ;
                 ;    Characteristics for type 33 sprite (Flower)
                 ;
1065  33                 BYTE $33            ; Type = SPRITE PTR
1066  00                 BYTE $00            ; Delay before changing to next sprite frame
1067  01                 BYTE $01            ; Number of frames in animation cycle
1068  05                 BYTE $05            ; Colour = GREEN
1069  01                 BYTE $01            ; Multicolor sprite
106A  00                 BYTE $00            ; No X-Expansion
106B  00                 BYTE $00            ; No Y-Expansion
106C  01                 BYTE $01            ; Can be picked up, opened or killed
106D  00                 BYTE $00            ; ACTION = No action
106E  06                 BYTE $06            ; Sound Effect to play
106F  0A                 BYTE $0A            ; Number of points awarded
1070  00                 BYTE $00            ; Number of extra lives awarded
                 ;________________________________________
                 ;
                 ;    Characteristics for type 2F sprite (Pink Marshmallow)
                 ;
1071  2F                 BYTE $2F            ; Type = SPRITE PTR
1072  00                 BYTE $00            ; Delay before changing to next sprite frame
1073  01                 BYTE $01            ; Number of frames in animation cycle
1074  04                 BYTE $04            ; Colour = PURPLE
1075  01                 BYTE $01            ; Multicolor sprite
1076  00                 BYTE $00            ; No X-Expansion
1077  00                 BYTE $00            ; No Y-Expansion
1078  01                 BYTE $01            ; Can be picked up, opened or killed
1079  02                 BYTE $02            ; ACTION = You touched a Marshmallow
107A  00                 BYTE $00            ; Sound Effect to play
107B  00                 BYTE $00            ; Number of points awarded
107C  00                 BYTE $00            ; Number of extra lives awarded
                 ;________________________________________
                 ;
                 ;    Characteristics for type 2F sprite (Stationary immortal Pink Marshmallow)
                 ;
107D  2F                 BYTE $2F            ; Type = SPRITE PTR
107E  00                 BYTE $00            ; Delay before changing to next sprite frame
107F  01                 BYTE $01            ; Number of frames in animation cycle
1080  04                 BYTE $04            ; Colour = PURPLE
1081  01                 BYTE $01            ; Multicolor sprite
1082  00                 BYTE $00            ; No X-Expansion
1083  00                 BYTE $00            ; No Y-Expansion
1084  00                 BYTE $00            ; Can NOT be picked up, opened or killed
1085  02                 BYTE $02            ; ACTION = You touched a Marshmallow
1086  00                 BYTE $00            ; Sound Effect to play
1087  00                 BYTE $00            ; Number of points awarded
1088  00                 BYTE $00            ; Number of extra lives awarded
                 ;________________________________________
                 ;
                 ;    LO byte of pointer to table of sprites in Room (below table)
                 ;
1089  A9                 BYTE $A9            ; $10A9
108A  C8                 BYTE $C8            ; $10C8
108B  E7                 BYTE $E7            ; $10E7
108C  06                 BYTE $06            ; $1106
108D  1B                 BYTE $1B            ; $111B
108E  3F                 BYTE $3F            ; $113F
108F  45                 BYTE $45            ; $1145
1090  5A                 BYTE $5A            ; $115A
1091  7E                 BYTE $7E            ; $117E
1092  93                 BYTE $93            ; $1193
1093  B2                 BYTE $B2            ; $11B2
1094  C7                 BYTE $C7            ; $11C7
1095  CD                 BYTE $CD            ; $11CD
1096  F1                 BYTE $F1            ; $11F1
1097  01                 BYTE $01            ; $1201
1098  25                 BYTE $25            ; $1225
                 ;________________________________________
                 ;
                 ;    HI byte of pointer to table of sprites in Room (below table)
                 ;
1099  10                 BYTE $10            ; $10A9
109A  10                 BYTE $10            ; $10C8
109B  10                 BYTE $10            ; $10E7
109C  11                 BYTE $11            ; $1106
109D  11                 BYTE $11            ; $111B
109E  11                 BYTE $11            ; $113F
109F  11                 BYTE $11            ; $1145
10A0  11                 BYTE $11            ; $115A
10A1  11                 BYTE $11            ; $117E
10A2  11                 BYTE $11            ; $1193
10A3  11                 BYTE $11            ; $11B2
10A4  11                 BYTE $11            ; $11C7
10A5  11                 BYTE $11            ; $11CD
10A6  11                 BYTE $11            ; $11F1
10A7  12                 BYTE $12            ; $1201
10A8  12                 BYTE $12            ; $1225
                 ;________________________________________
                 ;
                 ;    Sprites in Room $00
                 ;
10A9  08                 BYTE $08            ; Pointer to characteristics for sprite = $0FF9+$0C*$08 = $1059
10AA  38                 BYTE $38            ; Initial X-POS
10AB  37                 BYTE $37            ; Initial Y-POS
10AC  00                 BYTE $00            ; 0         
10AD  00                 BYTE $00            ; 0         
10AE  07                 BYTE $07            ; Pointer to characteristics for sprite = $0FF9+$0C*$07 = $104D
10AF  5B                 BYTE $5B            ; Initial X-POS
10B0  36                 BYTE $36            ; Initial Y-POS
10B1  22                 BYTE $22
10B2  01                 BYTE $01
10B3  0A                 BYTE $0A            ; Pointer to characteristics for sprite = $0FF9+$0C*$0A = $1071
10B4  2C                 BYTE $2C            ; Initial X-POS
10B5  BE                 BYTE $BE            ; Initial Y-POS
10B6  11                 BYTE $11
10B7  11                 BYTE $11
10B8  0A                 BYTE $0A            ; Pointer to characteristics for sprite = $0FF9+$0C*$0A = $1071
10B9  2C                 BYTE $2C            ; Initial X-POS
10BA  91                 BYTE $91            ; Initial Y-POS
10BB  11                 BYTE $11            ; 17       q
10BC  12                 BYTE $12            ; 18       r
10BD  0A                 BYTE $0A            ; Pointer to characteristics for sprite = $0FF9+$0C*$0A = $1071
10BE  54                 BYTE $54            ; Initial X-POS
10BF  D2                 BYTE $D2            ; Initial Y-POS
10C0  1F                 BYTE $1F            ; 31       _
10C1  13                 BYTE $13            ; 19       s
10C2  0A                 BYTE $0A            ; Pointer to characteristics for sprite = $0FF9+$0C*$0A = $1071
10C3  54                 BYTE $54            ; Initial X-POS
10C4  A5                 BYTE $A5            ; Initial Y-POS
10C5  1F                 BYTE $1F            ; 31       _
10C6  14                 BYTE $14            ; 20       t
10C7  00                 BYTE $00            ; 0         
                 ;________________________________________
                 ;
                 ;    Sprites in Room $01
                 ;
10C8  09                 BYTE $09            ; Pointer to characteristics for sprite = $0FF9+$0C*$09 = $1065
10C9  46                 BYTE $46            ; Initial X-POS
10CA  82                 BYTE $82            ; Initial Y-POS
10CB  00                 BYTE $00            ; 0         
10CC  00                 BYTE $00            ; 0         
10CD  09                 BYTE $09            ; Pointer to characteristics for sprite = $0FF9+$0C*$09 = $1065
10CE  5A                 BYTE $5A            ; Initial X-POS
10CF  82                 BYTE $82            ; Initial Y-POS
10D0  00                 BYTE $00            ; 0         
10D1  00                 BYTE $00            ; 0         
10D2  09                 BYTE $09            ; Pointer to characteristics for sprite = $0FF9+$0C*$09 = $1065
10D3  6E                 BYTE $6E            ; Initial X-POS
10D4  82                 BYTE $82            ; Initial Y-POS
10D5  00                 BYTE $00            ; 0         
10D6  00                 BYTE $00            ; 0         
10D7  05                 BYTE $05            ; Pointer to characteristics for sprite = $0FF9+$0C*$05 = $1035
10D8  20                 BYTE $20            ; Initial X-POS
10D9  44                 BYTE $44            ; Initial Y-POS
10DA  00                 BYTE $00            ; 0         
10DB  00                 BYTE $00            ; 0         
10DC  05                 BYTE $05            ; Pointer to characteristics for sprite = $0FF9+$0C*$05 = $1035
10DD  20                 BYTE $20            ; Initial X-POS
10DE  7C                 BYTE $7C            ; Initial Y-POS
10DF  00                 BYTE $00            ; 0         
10E0  00                 BYTE $00            ; 0         
10E1  0B                 BYTE $0B            ; Pointer to characteristics for sprite = $0FF9+$0C*$0B = $107D
10E2  58                 BYTE $58            ; Initial X-POS
10E3  5A                 BYTE $5A            ; Initial Y-POS
10E4  00                 BYTE $00            ; 0         
10E5  00                 BYTE $00            ; 0         
10E6  00                 BYTE $00            ; 0         
                 ;________________________________________
                 ;
                 ;    Sprites in Room $02
                 ;
10E7  09                 BYTE $09            ; Pointer to characteristics for sprite = $0FF9+$0C*$09 = $1065
10E8  28                 BYTE $28            ; Initial X-POS
10E9  3B                 BYTE $3B            ; Initial Y-POS
10EA  00                 BYTE $00            ; 0         
10EB  00                 BYTE $00            ; 0         
10EC  09                 BYTE $09            ; Pointer to characteristics for sprite = $0FF9+$0C*$09 = $1065
10ED  38                 BYTE $38            ; Initial X-POS
10EE  3B                 BYTE $3B            ; Initial Y-POS
10EF  00                 BYTE $00            ; 0         
10F0  00                 BYTE $00            ; 0         
10F1  05                 BYTE $05            ; Pointer to characteristics for sprite = $0FF9+$0C*$05 = $1035
10F2  0C                 BYTE $0C            ; Initial X-POS
10F3  7C                 BYTE $7C            ; Initial Y-POS
10F4  00                 BYTE $00            ; 0         
10F5  00                 BYTE $00            ; 0         
10F6  05                 BYTE $05            ; Pointer to characteristics for sprite = $0FF9+$0C*$05 = $1035
10F7  A0                 BYTE $A0            ; Initial X-POS
10F8  7C                 BYTE $7C            ; Initial Y-POS
10F9  00                 BYTE $00            ; 0         
10FA  00                 BYTE $00            ; 0         
10FB  0A                 BYTE $0A            ; Pointer to characteristics for sprite = $0FF9+$0C*$0A = $1071
10FC  58                 BYTE $58            ; Initial X-POS
10FD  BD                 BYTE $BD            ; Initial Y-POS
10FE  0E                 BYTE $0E
10FF  02                 BYTE $02
1100  0A                 BYTE $0A            ; Pointer to characteristics for sprite = $0FF9+$0C*$0A = $1071
1101  58                 BYTE $58            ; Initial X-POS
1102  7D                 BYTE $7D            ; Initial Y-POS
1103  0E                 BYTE $0E            ; 14       n
1104  03                 BYTE $03            ; 3        c
1105  00                 BYTE $00            ; 0         
                 ;________________________________________
                 ;
                 ;    Sprites in Room $03
                 ;
1106  0A                 BYTE $0A            ; Pointer to characteristics for sprite = $0FF9+$0C*$0A = $1071
1107  34                 BYTE $34            ; Initial X-POS
1108  55                 BYTE $55            ; Initial Y-POS
1109  12                 BYTE $12            ; 18       r
110A  04                 BYTE $04            ; 4        d
110B  0A                 BYTE $0A            ; Pointer to characteristics for sprite = $0FF9+$0C*$0A = $1071
110C  58                 BYTE $58            ; Initial X-POS
110D  55                 BYTE $55            ; Initial Y-POS
110E  12                 BYTE $12
110F  05                 BYTE $05            ; 5        e
1110  0A                 BYTE $0A            ; Pointer to characteristics for sprite = $0FF9+$0C*$0A = $1071
1111  7C                 BYTE $7C            ; Initial X-POS
1112  55                 BYTE $55            ; Initial Y-POS
1113  12                 BYTE $12
1114  06                 BYTE $06            ; 6        f
1115  06                 BYTE $06            ; Pointer to characteristics for sprite = $0FF9+$0C*$06 = $1041
1116  92                 BYTE $92            ; Initial X-POS
1117  38                 BYTE $38            ; Initial Y-POS
1118  00                 BYTE $00            ; 0         
1119  00                 BYTE $00            ; 0         
111A  00                 BYTE $00            ; 0         
                 ;________________________________________
                 ;
                 ;    Sprites in Room $04
                 ;
111B  0A                 BYTE $0A            ; Pointer to characteristics for sprite = $0FF9+$0C*$0A = $1071
111C  55                 BYTE $55            ; Initial X-POS
111D  7D                 BYTE $7D            ; Initial Y-POS
111E  3E                 BYTE $3E
111F  07                 BYTE $07
1120  0A                 BYTE $0A            ; Pointer to characteristics for sprite = $0FF9+$0C*$0A = $1071
1121  55                 BYTE $55            ; Initial X-POS
1122  7D                 BYTE $7D            ; Initial Y-POS
1123  E3                 BYTE $E3            ; 227      GFX
1124  07                 BYTE $07            ; 7        g
1125  0A                 BYTE $0A            ; Pointer to characteristics for sprite = $0FF9+$0C*$0A = $1071
1126  55                 BYTE $55            ; Initial X-POS
1127  7D                 BYTE $7D            ; Initial Y-POS
1128  14                 BYTE $14            ; 20       t
1129  07                 BYTE $07            ; 7        g
112A  0A                 BYTE $0A            ; Pointer to characteristics for sprite = $0FF9+$0C*$0A = $1071
112B  55                 BYTE $55            ; Initial X-POS
112C  7D                 BYTE $7D            ; Initial Y-POS
112D  32                 BYTE $32            ; 50       2
112E  07                 BYTE $07            ; 7        g
112F  0A                 BYTE $0A            ; Pointer to characteristics for sprite = $0FF9+$0C*$0A = $1071
1130  55                 BYTE $55            ; Initial X-POS
1131  7D                 BYTE $7D            ; Initial Y-POS
1132  1C                 BYTE $1C            ; 28       
1133  07                 BYTE $07            ; 7        g
1134  0A                 BYTE $0A            ; Pointer to characteristics for sprite = $0FF9+$0C*$0A = $1071
1135  55                 BYTE $55            ; Initial X-POS
1136  7D                 BYTE $7D            ; Initial Y-POS
1137  DF                 BYTE $DF            ; 223      GFX
1138  07                 BYTE $07            ; 7        g
1139  0A                 BYTE $0A            ; Pointer to characteristics for sprite = $0FF9+$0C*$0A = $1071
113A  55                 BYTE $55            ; Initial X-POS
113B  7D                 BYTE $7D            ; Initial Y-POS
113C  FD                 BYTE $FD
113D  07                 BYTE $07
113E  00                 BYTE $00
                 ;________________________________________
                 ;
                 ;    Sprites in Room $05
                 ;
113F  06                 BYTE $06            ; Pointer to characteristics for sprite = $0FF9+$0C*$06 = $1041
1140  19                 BYTE $19            ; Initial X-POS
1141  38                 BYTE $38            ; Initial Y-POS
1142  00                 BYTE $00            ; 0         
1143  00                 BYTE $00            ; 0         
1144  00                 BYTE $00            ; 0         
                 ;________________________________________
                 ;
                 ;    Sprites in Room $06
                 ;
1145  08                 BYTE $08            ; Pointer to characteristics for sprite = $0FF9+$0C*$08 = $1059
1146  32                 BYTE $32            ; Initial X-POS
1147  70                 BYTE $70            ; Initial Y-POS
1148  00                 BYTE $00            ; 0         
1149  00                 BYTE $00            ; 0         
114A  08                 BYTE $08            ; Pointer to characteristics for sprite = $0FF9+$0C*$08 = $1059
114B  46                 BYTE $46            ; Initial X-POS
114C  70                 BYTE $70            ; Initial Y-POS
114D  00                 BYTE $00            ; 0         
114E  00                 BYTE $00            ; 0         
114F  05                 BYTE $05            ; Pointer to characteristics for sprite = $0FF9+$0C*$05 = $1035
1150  70                 BYTE $70            ; Initial X-POS
1151  94                 BYTE $94            ; Initial Y-POS
1152  00                 BYTE $00            ; 0         
1153  00                 BYTE $00            ; 0         
1154  0A                 BYTE $0A            ; Pointer to characteristics for sprite = $0FF9+$0C*$0A = $1071
1155  93                 BYTE $93            ; Initial X-POS
1156  45                 BYTE $45            ; Initial Y-POS
1157  C0                 BYTE $C0            ; 192      GFX
1158  0F                 BYTE $0F            ; 15       o
1159  00                 BYTE $00            ; 0         
                 ;________________________________________
                 ;
                 ;    Sprites in Room $07
                 ;
115A  06                 BYTE $06            ; Pointer to characteristics for sprite = $0FF9+$0C*$06 = $1041
115B  3D                 BYTE $3D            ; Initial X-POS
115C  5F                 BYTE $5F            ; Initial Y-POS
115D  00                 BYTE $00            ; 0         
115E  00                 BYTE $00            ; 0         
115F  06                 BYTE $06            ; Pointer to characteristics for sprite = $0FF9+$0C*$06 = $1041
1160  61                 BYTE $61            ; Initial X-POS
1161  5F                 BYTE $5F            ; Initial Y-POS
1162  00                 BYTE $00            ; 0         
1163  00                 BYTE $00            ; 0         
1164  06                 BYTE $06            ; Pointer to characteristics for sprite = $0FF9+$0C*$06 = $1041
1165  85                 BYTE $85            ; Initial X-POS
1166  5F                 BYTE $5F            ; Initial Y-POS
1167  00                 BYTE $00            ; 0         
1168  00                 BYTE $00            ; 0         
1169  0A                 BYTE $0A            ; Pointer to characteristics for sprite = $0FF9+$0C*$0A = $1071
116A  34                 BYTE $34            ; Initial X-POS
116B  C5                 BYTE $C5            ; Initial Y-POS
116C  0E                 BYTE $0E
116D  15                 BYTE $15
116E  0A                 BYTE $0A            ; Pointer to characteristics for sprite = $0FF9+$0C*$0A = $1071
116F  50                 BYTE $50            ; Initial X-POS
1170  AA                 BYTE $AA            ; Initial Y-POS
1171  02                 BYTE $02            ; 2        b
1172  15                 BYTE $15
1173  0A                 BYTE $0A            ; Pointer to characteristics for sprite = $0FF9+$0C*$0A = $1071
1174  6C                 BYTE $6C            ; Initial X-POS
1175  C5                 BYTE $C5            ; Initial Y-POS
1176  0E                 BYTE $0E
1177  15                 BYTE $15
1178  0A                 BYTE $0A            ; Pointer to characteristics for sprite = $0FF9+$0C*$0A = $1071
1179  88                 BYTE $88            ; Initial X-POS
117A  AA                 BYTE $AA            ; Initial Y-POS
117B  02                 BYTE $02            ; 2        b
117C  15                 BYTE $15
117D  00                 BYTE $00
                 ;________________________________________
                 ;
                 ;    Sprites in Room $08
                 ;
117E  01                 BYTE $01            ; Pointer to characteristics for sprite = $0FF9+$0C*$01 = $1005
117F  6F                 BYTE $6F            ; Initial X-POS
1180  42                 BYTE $42            ; Initial Y-POS
1181  00                 BYTE $00            ; 0         
1182  00                 BYTE $00            ; 0         
1183  02                 BYTE $02            ; Pointer to characteristics for sprite = $0FF9+$0C*$02 = $1011
1184  9B                 BYTE $9B            ; Initial X-POS
1185  75                 BYTE $75            ; Initial Y-POS
1186  00                 BYTE $00            ; 0         
1187  00                 BYTE $00            ; 0         
1188  03                 BYTE $03            ; Pointer to characteristics for sprite = $0FF9+$0C*$03 = $101D
1189  87                 BYTE $87            ; Initial X-POS
118A  66                 BYTE $66            ; Initial Y-POS
118B  00                 BYTE $00            ; 0         
118C  00                 BYTE $00            ; 0         
118D  04                 BYTE $04            ; Pointer to characteristics for sprite = $0FF9+$0C*$04 = $1029
118E  5B                 BYTE $5B            ; Initial X-POS
118F  40                 BYTE $40            ; Initial Y-POS
1190  00                 BYTE $00            ; 0         
1191  00                 BYTE $00            ; 0         
1192  00                 BYTE $00            ; 0         
                 ;________________________________________
                 ;
                 ;    Sprites in Room $09
                 ;
1193  08                 BYTE $08            ; Pointer to characteristics for sprite = $0FF9+$0C*$08 = $1059
1194  18                 BYTE $18            ; Initial X-POS
1195  48                 BYTE $48            ; Initial Y-POS
1196  00                 BYTE $00            ; 0         
1197  00                 BYTE $00            ; 0         
1198  08                 BYTE $08            ; Pointer to characteristics for sprite = $0FF9+$0C*$08 = $1059
1199  2C                 BYTE $2C            ; Initial X-POS
119A  48                 BYTE $48            ; Initial Y-POS
119B  00                 BYTE $00            ; 0         
119C  00                 BYTE $00            ; 0         
119D  08                 BYTE $08            ; Pointer to characteristics for sprite = $0FF9+$0C*$08 = $1059
119E  46                 BYTE $46            ; Initial X-POS
119F  B9                 BYTE $B9            ; Initial Y-POS
11A0  00                 BYTE $00            ; 0         
11A1  00                 BYTE $00            ; 0         
11A2  05                 BYTE $05            ; Pointer to characteristics for sprite = $0FF9+$0C*$05 = $1035
11A3  98                 BYTE $98            ; Initial X-POS
11A4  B4                 BYTE $B4            ; Initial Y-POS
11A5  00                 BYTE $00            ; 0         
11A6  00                 BYTE $00            ; 0         
11A7  0A                 BYTE $0A            ; Pointer to characteristics for sprite = $0FF9+$0C*$0A = $1071
11A8  70                 BYTE $70            ; Initial X-POS
11A9  65                 BYTE $65            ; Initial Y-POS
11AA  04                 BYTE $04            ; 4        d
11AB  08                 BYTE $08
11AC  0A                 BYTE $0A            ; Pointer to characteristics for sprite = $0FF9+$0C*$0A = $1071
11AD  18                 BYTE $18            ; Initial X-POS
11AE  8E                 BYTE $8E            ; Initial Y-POS (Goes between 7C and 8F)
11AF  2F                 BYTE $2F            ; 47       /
11B0  09                 BYTE $09            ; 9        i
11B1  00                 BYTE $00            ; 0         
                 ;________________________________________
                 ;
                 ;    Sprites in Room $0A
                 ;
11B2  09                 BYTE $09            ; Pointer to characteristics for sprite = $0FF9+$0C*$09 = $1065
11B3  54                 BYTE $54            ; Initial X-POS
11B4  50                 BYTE $50            ; Initial Y-POS
11B5  00                 BYTE $00            ; 0         
11B6  00                 BYTE $00            ; 0         
11B7  09                 BYTE $09            ; Pointer to characteristics for sprite = $0FF9+$0C*$09 = $1065
11B8  68                 BYTE $68            ; Initial X-POS
11B9  50                 BYTE $50            ; Initial Y-POS
11BA  00                 BYTE $00            ; 0         
11BB  00                 BYTE $00            ; 0         
11BC  09                 BYTE $09            ; Pointer to characteristics for sprite = $0FF9+$0C*$09 = $1065
11BD  7C                 BYTE $7C            ; Initial X-POS
11BE  50                 BYTE $50            ; Initial Y-POS
11BF  00                 BYTE $00            ; 0         
11C0  00                 BYTE $00            ; 0         
11C1  06                 BYTE $06            ; Pointer to characteristics for sprite = $0FF9+$0C*$06 = $1041
11C2  12                 BYTE $12            ; Initial X-POS
11C3  3C                 BYTE $3C            ; Initial Y-POS
11C4  00                 BYTE $00            ; 0         
11C5  00                 BYTE $00            ; 0         
11C6  00                 BYTE $00            ; 0         
                 ;________________________________________
                 ;
                 ;    Sprites in Room $0B
                 ;
11C7  0B                 BYTE $0B            ; Pointer to characteristics for sprite = $0FF9+$0C*$0B = $107D
11C8  54                 BYTE $54            ; Initial X-POS
11C9  C5                 BYTE $C5            ; Initial Y-POS
11CA  00                 BYTE $00            ; 0         
11CB  00                 BYTE $00            ; 0         
11CC  00                 BYTE $00            ; 0         
                 ;________________________________________
                 ;
                 ;    Sprites in Room $0C
                 ;
11CD  07                 BYTE $07            ; Pointer to characteristics for sprite = $0FF9+$0C*$07 = $104D
11CE  4E                 BYTE $4E            ; Initial X-POS
11CF  6E                 BYTE $6E            ; Initial Y-POS
11D0  C4                 BYTE $C4
11D1  10                 BYTE $10
11D2  07                 BYTE $07            ; Pointer to characteristics for sprite = $0FF9+$0C*$07 = $104D
11D3  58                 BYTE $58            ; Initial X-POS
11D4  64                 BYTE $64            ; Initial Y-POS
11D5  C4                 BYTE $C4            ; 196      D
11D6  10                 BYTE $10            ; 16       p
11D7  07                 BYTE $07            ; Pointer to characteristics for sprite = $0FF9+$0C*$07 = $104D
11D8  62                 BYTE $62            ; Initial X-POS
11D9  5A                 BYTE $5A            ; Initial Y-POS
11DA  C4                 BYTE $C4            ; 196      D
11DB  10                 BYTE $10            ; 16       p
11DC  07                 BYTE $07            ; Pointer to characteristics for sprite = $0FF9+$0C*$07 = $104D
11DD  6C                 BYTE $6C            ; Initial X-POS
11DE  50                 BYTE $50            ; Initial Y-POS
11DF  C4                 BYTE $C4
11E0  10                 BYTE $10
11E1  07                 BYTE $07            ; Pointer to characteristics for sprite = $0FF9+$0C*$07 = $104D
11E2  76                 BYTE $76            ; Initial X-POS
11E3  46                 BYTE $46            ; Initial Y-POS
11E4  C4                 BYTE $C4            ; 196      D
11E5  10                 BYTE $10            ; 16       p
11E6  07                 BYTE $07            ; Pointer to characteristics for sprite = $0FF9+$0C*$07 = $104D
11E7  80                 BYTE $80            ; Initial X-POS
11E8  3C                 BYTE $3C            ; Initial Y-POS
11E9  C4                 BYTE $C4            ; 196      D
11EA  10                 BYTE $10            ; 16       p
11EB  07                 BYTE $07            ; Pointer to characteristics for sprite = $0FF9+$0C*$07 = $104D
11EC  8A                 BYTE $8A            ; Initial X-POS
11ED  32                 BYTE $32            ; Initial Y-POS
11EE  C4                 BYTE $C4            ; 196      D
11EF  10                 BYTE $10            ; 16       p
11F0  00                 BYTE $00            ; 0         
                 ;________________________________________
                 ;
                 ;    Sprites in Room $0D
                 ;
11F1  0A                 BYTE $0A            ; Pointer to characteristics for sprite = $0FF9+$0C*$0A = $1071
11F2  60                 BYTE $60            ; Initial X-POS
11F3  AD                 BYTE $AD            ; Initial Y-POS
11F4  D0                 BYTE $D0
11F5  80                 BYTE $80
11F6  0A                 BYTE $0A            ; Pointer to characteristics for sprite = $0FF9+$0C*$0A = $1071
11F7  4C                 BYTE $4C            ; Initial X-POS
11F8  6D                 BYTE $6D            ; Initial Y-POS
11F9  30                 BYTE $30
11FA  80                 BYTE $80            ; 128       
11FB  0A                 BYTE $0A            ; Pointer to characteristics for sprite = $0FF9+$0C*$0A = $1071
11FC  88                 BYTE $88            ; Initial X-POS
11FD  4D                 BYTE $4D            ; Initial Y-POS
11FE  D0                 BYTE $D0            ; 208      P
11FF  80                 BYTE $80            ; 128       
1200  00                 BYTE $00            ; 0         
                 ;________________________________________
                 ;
                 ;    Sprites in Room $0E
                 ;
1201  0A                 BYTE $0A            ; Pointer to characteristics for sprite = $0FF9+$0C*$0A = $1071
1202  4C                 BYTE $4C            ; Initial X-POS
1203  72                 BYTE $72            ; Initial Y-POS
1204  C4                 BYTE $C4
1205  0E                 BYTE $0E
1206  0A                 BYTE $0A            ; Pointer to characteristics for sprite = $0FF9+$0C*$0A = $1071
1207  58                 BYTE $58            ; Initial X-POS
1208  66                 BYTE $66            ; Initial Y-POS
1209  C4                 BYTE $C4
120A  0E                 BYTE $0E            ; 14       n
120B  0A                 BYTE $0A            ; Pointer to characteristics for sprite = $0FF9+$0C*$0A = $1071
120C  64                 BYTE $64            ; Initial X-POS
120D  5A                 BYTE $5A            ; Initial Y-POS
120E  C4                 BYTE $C4            ; 196      D
120F  0E                 BYTE $0E            ; 14       n
1210  0A                 BYTE $0A            ; Pointer to characteristics for sprite = $0FF9+$0C*$0A = $1071
1211  70                 BYTE $70            ; Initial X-POS
1212  4E                 BYTE $4E            ; Initial Y-POS
1213  C4                 BYTE $C4
1214  0E                 BYTE $0E
1215  0A                 BYTE $0A            ; Pointer to characteristics for sprite = $0FF9+$0C*$0A = $1071
1216  7C                 BYTE $7C            ; Initial X-POS
1217  42                 BYTE $42            ; Initial Y-POS
1218  C4                 BYTE $C4
1219  0E                 BYTE $0E
121A  0A                 BYTE $0A            ; Pointer to characteristics for sprite = $0FF9+$0C*$0A = $1071
121B  88                 BYTE $88            ; Initial X-POS
121C  36                 BYTE $36            ; Initial Y-POS
121D  C4                 BYTE $C4
121E  0E                 BYTE $0E
121F  05                 BYTE $05            ; Pointer to characteristics for sprite = $0FF9+$0C*$05 = $1035
1220  18                 BYTE $18            ; Initial X-POS
1221  B4                 BYTE $B4            ; Initial Y-POS
1222  00                 BYTE $00            ; 0         
1223  00                 BYTE $00            ; 0         
1224  00                 BYTE $00            ; 0         
                 ;________________________________________
                 ;
                 ;    Sprites in Room $0F
                 ;
1225  0A                 BYTE $0A            ; Pointer to characteristics for sprite = $0FF9+$0C*$0A = $1071
1226  9C                 BYTE $9C            ; Initial X-POS
1227  C5                 BYTE $C5            ; Initial Y-POS
1228  30                 BYTE $30            ; 48       0
1229  80                 BYTE $80            ; 128       
122A  0A                 BYTE $0A            ; Pointer to characteristics for sprite = $0FF9+$0C*$0A = $1071
122B  9C                 BYTE $9C            ; Initial X-POS
122C  45                 BYTE $45            ; Initial Y-POS
122D  D0                 BYTE $D0            ; 208      P
122E  80                 BYTE $80            ; 128       
122F  0A                 BYTE $0A            ; Pointer to characteristics for sprite = $0FF9+$0C*$0A = $1071
1230  24                 BYTE $24            ; Initial X-POS
1231  C5                 BYTE $C5            ; Initial Y-POS
1232  30                 BYTE $30            ; 48       0
1233  80                 BYTE $80            ; 128       
1234  0A                 BYTE $0A            ; Pointer to characteristics for sprite = $0FF9+$0C*$0A = $1071
1235  74                 BYTE $74            ; Initial X-POS
1236  85                 BYTE $85            ; Initial Y-POS
1237  D0                 BYTE $D0            ; 208      P
1238  80                 BYTE $80            ; 128       
1239  0A                 BYTE $0A            ; Pointer to characteristics for sprite = $0FF9+$0C*$0A = $1071
123A  4C                 BYTE $4C            ; Initial X-POS
123B  85                 BYTE $85            ; Initial Y-POS
123C  30                 BYTE $30
123D  80                 BYTE $80            ; 128       
123E  0A                 BYTE $0A            ; Pointer to characteristics for sprite = $0FF9+$0C*$0A = $1071
123F  60                 BYTE $60            ; Initial X-POS
1240  C5                 BYTE $C5            ; Initial Y-POS
1241  D0                 BYTE $D0            ; 208      P
1242  80                 BYTE $80            ; 128       
1243  06                 BYTE $06            ; Pointer to characteristics for sprite = $0FF9+$0C*$06 = $1041
1244  9C                 BYTE $9C            ; Initial X-POS
1245  AD                 BYTE $AD            ; Initial Y-POS
1246  00                 BYTE $00            ; 0         
1247  00                 BYTE $00            ; 0         
1248  00                 BYTE $00            ; 0         
                 ;________________________________________
1249  2D                 BYTE $2D            ; Stored to $5071, $5072, $5073, $5074 (for Room $09)
124A  D2                 BYTE $D2            ; Stored to $5079, $507A, $507B, $507C (for Room $09)
124B  0C                 BYTE $0C            ; Stored to $5081, $5082, $5083, $5084 (for Room $09)
124C  A0                 BYTE $A0            ; Stored to $5089, $508A, $508B, $508C (for Room $09)
124D  36                 BYTE $36            ; Stored to $5072 (for Room $00)
124E  64                 BYTE $64            ; Stored to $507A (for Room $00)
124F  5B                 BYTE $5B            ; Stored to $5082 (for Room $00)
1250  9E                 BYTE $9E            ; Stored to $508A (for Room $00)
1251  A5                 BYTE $A5            ; Stored to $5075 (for Room $02)
1252  BD                 BYTE $BD            ; Stored to $507D (for Room $02)
1253  00                 BYTE $00            ; Stored to $5085 (for Room $02)
1254  FF                 BYTE $FF            ; Stored to $508D (for Room $02)
1255  65                 BYTE $65            ; Stored to $5076 (for Room $02)
1256  7D                 BYTE $7D            ; Stored to $507E (for Room $02)
1257  00                 BYTE $00            ; Stored to $5086 (for Room $02)
1258  FF                 BYTE $FF            ; Stored to $508E (for Room $02)
1259  3D                 BYTE $3D            ; Stored to $5071 (for Room $03)
125A  C5                 BYTE $C5            ; Stored to $5079 (for Room $03)
125B  25                 BYTE $25            ; Stored to $5081 (for Room $03)
125C  43                 BYTE $43            ; Stored to $5089 (for Room $03)
125D  3D                 BYTE $3D            ; Stored to $5072 (for Room $03)
125E  C5                 BYTE $C5            ; Stored to $507A (for Room $03)
125F  49                 BYTE $49            ; Stored to $5082 (for Room $03)
1260  67                 BYTE $67            ; Stored to $508A (for Room $03)
1261  3D                 BYTE $3D            ; Stored to $5073 (for Room $03)
1262  C5                 BYTE $C5            ; Stored to $507B (for Room $03)
1263  6D                 BYTE $6D            ; Stored to $5083 (for Room $03)
1264  8B                 BYTE $8B            ; Stored to $508B (for Room $03)
1265  34                 BYTE $34            ; Stored to $5071, $5072, $5073, $5074, $5075, $5076, $5077 (for Room $04)
1266  C6                 BYTE $C6            ; 
1267  0E                 BYTE $0E            ; 
1268  9C                 BYTE $9C            ; 
1269  32                 BYTE $32            ; Minimum Y-POS for sprite type 2F in Room 09
126A  65                 BYTE $65            ; Maximum Y-POS for sprite type 2F in Room 09
126B  00                 BYTE $00            ; 0         
126C  FF                 BYTE $FF            ; 255      GFX
126D  7D                 BYTE $7D            ; 125      GFX
126E  8E                 BYTE $8E            ; 142      n
126F  18                 BYTE $18            ; 24       x
1270  7B                 BYTE $7B            ; 123      GFX
1271  6C                 BYTE $6C
1272  87                 BYTE $87
1273  34                 BYTE $34
1274  80                 BYTE $80            ; 128       
1275  AA                 BYTE $AA
1276  C0                 BYTE $C0            ; 192      GFX
1277  00                 BYTE $00            ; 0         
1278  FF                 BYTE $FF            ; 255      GFX
1279  4E                 BYTE $4E            ; 78       N
127A  69                 BYTE $69            ; 105      GFX
127B  34                 BYTE $34            ; 52       4
127C  80                 BYTE $80            ; 128       
127D  80                 BYTE $80            ; 128       
127E  9B                 BYTE $9B            ; 155      [
127F  34                 BYTE $34            ; 52       4
1280  80                 BYTE $80            ; 128       
1281  36                 BYTE $36
1282  85                 BYTE $85
1283  20                 BYTE $20            ; 32        
1284  88                 BYTE $88            ; 136      h
1285  00                 BYTE $00            ; 0         
1286  FF                 BYTE $FF            ; 255      GFX
1287  19                 BYTE $19
1288  93                 BYTE $93
1289  32                 BYTE $32
128A  90                 BYTE $90            ; 144      p
128B  12                 BYTE $12            ; 18       r
128C  87                 BYTE $87            ; 135      g
128D  BE                 BYTE $BE            ; 190      >
128E  D2                 BYTE $D2            ; 210      R
128F  2C                 BYTE $2C            ; 44       ,
1290  64                 BYTE $64            ; 100      GFX
1291  91                 BYTE $91
1292  A5                 BYTE $A5
1293  2C                 BYTE $2C            ; 44       ,
1294  64                 BYTE $64            ; 100      GFX
1295  BE                 BYTE $BE            ; 190      >
1296  D2                 BYTE $D2            ; 210      R
1297  54                 BYTE $54            ; 84       T
1298  8C                 BYTE $8C            ; 140      l
1299  91                 BYTE $91            ; 145      q
129A  A5                 BYTE $A5            ; 165      %
129B  54                 BYTE $54            ; 84       T
129C  8C                 BYTE $8C            ; 140      l
129D  AA                 BYTE $AA            ; 170      *
129E  C5                 BYTE $C5            ; 197      E
129F  00                 BYTE $00            ; 0         
12A0  FF                 BYTE $FF            ; 255      GFX
                 ;________________________________________
                 ;
                 ;    Draw room
                 ;
12A1  A9 0D      L00083  LDA #$0D
12A3  8D 86 02           STA $0286           ; CHARACTER COLOR CODE
12A6  20 44 E5           JSR $E544 
12A9  A6 02              LDX $02             ; ROOM
12AB  BD 5B 13           LDA $135B,X         ; Set ($FD) to start of room data for room in $02
12AE  85 FD              STA $FD
12B0  BD 6B 13           LDA $136B,X
12B3  85 FE              STA $FE
12B5  A0 FF              LDY #$FF
12B7  A9 03              LDA #$03            ; There are 3 types of room data (bricks, moving sidewalks and ladders)
12B9  85 03              STA $03
12BB  C6 03      L00085  DEC $03
12BD  30 24              BMI L00087          ; Branch if end of room data is reached
12BF  A6 03              LDX $03             ; Set JSR address for 12DC based on $03
12C1  BD E4 12           LDA $12E4,X
12C4  8D DD 12           STA $12DD
12C7  BD E7 12           LDA $12E7,X
12CA  8D DE 12           STA $12DE
12CD  C8         L00086  INY
12CE  B1 FD              LDA ($FD),Y         ; Read next byte of room data
12D0  F0 E9              BEQ L00085          ; If first byte of room data pair is #$00 then change JSR address
12D2  85 FC              STA $FC
12D4  C8                 INY
12D5  B1 FD              LDA ($FD),Y         ; Read next byte of room data
12D7  85 FB              STA $FB
12D9  8C E0 12           STY $12E0           ; Save second byte of room data pair
12DC  20 FF FF           JSR $FFFF           ; This address is changed in $12C4 and $12CA
12DF  A0 FF              LDY #$FF            ; This value is changed in $12D9
12E1  D0 EA              BNE L00086          ; Read next pair of room data
12E3  60         L00087  RTS
                 ;________________________________________
                 ;
                 ;    JSR addresses for 12DC
                 ;
12E4  1B                 BYTE $1B            ; $131B
12E5  F6                 BYTE $F6            ; $12F6
12E6  EA                 BYTE $EA            ; $12EA
12E7  13                 BYTE $13            ; $131B
12E8  12                 BYTE $12            ; $12F6
12E9  12                 BYTE $12            ; $12EA
                 ;________________________________________
12EA  A9 01              LDA #$01            ; Move one character right when drawing
12EC  24 FC              BIT $FC
12EE  10 02              BPL L00088
12F0  A9 28              LDA #$28            ; Move one screen line down when drawing
12F2  A2 F9      L00088  LDX #$F9            ; Brick character CHAR CODE
12F4  D0 09              BNE L00089
12F6  A9 01              LDA #$01
12F8  A2 FA              LDX #$FA            ; Left moving sidewalk CHAR CODE
12FA  24 FC              BIT $FC
12FC  10 01              BPL L00089
12FE  E8                 INX                 ; Right moving sidewalk CHAR CODE
12FF  85 04      L00089  STA $04
1301  86 05              STX $05             ; CHAR CODE
1303  20 46 13           JSR L00096
1306  A0 00              LDY #$00
1308  A5 05      L00090  LDA $05             ; CHAR CODE
130A  91 F9              STA ($F9),Y         ; Write to screen
130C  A5 F9              LDA $F9             ; Calculate the next screen address
130E  18                 CLC
130F  65 04              ADC $04
1311  85 F9              STA $F9
1313  90 02              BCC L00091
1315  E6 FA              INC $FA
1317  CA         L00091  DEX
1318  D0 EE              BNE L00090
131A  60                 RTS
                 ;________________________________________
131B  20 46 13           JSR L00096
131E  24 FC              BIT $FC
1320  30 08              BMI L00092          ; Branch if there if no top of ladder
1322  A0 01              LDY #$01            ; To draw top of ladder in the center above the other ladder rows
1324  A9 FE              LDA #$FE            ; Top of ladder CHAR CODE
1326  91 F9              STA ($F9),Y         ; Write to screen
1328  D0 0A              BNE L00094          ; Unconditional jump (Branch is always taken)
132A  A0 02      L00092  LDY #$02            ; Draw one row of 3 ladder characters
132C  B9 43 13   L00093  LDA $1343,Y         ; Ladder character
132F  91 F9              STA ($F9),Y         ; Write to screen
1331  88                 DEY
1332  10 F8              BPL L00093
1334  A5 F9      L00094  LDA $F9             ; Calculate the next screen address
1336  18                 CLC
1337  69 28              ADC #$28
1339  85 F9              STA $F9
133B  90 02              BCC L00095
133D  E6 FA              INC $FA
133F  CA         L00095  DEX
1340  D0 E8              BNE L00092
1342  60                 RTS
                 ;________________________________________
                 ;
                 ;    Characters defining part of ladder
                 ;
1343  FC                 BYTE $FC            ; 252      GFX
1344  FF                 BYTE $FF            ; 255      GFX
1345  FD                 BYTE $FD            ; 253      GFX
                 ;________________________________________
1346  A5 FB      L00096  LDA $FB             ; Second byte of room data pair
1348  85 F9              STA $F9             ; LO byte of screen address
134A  A5 FC              LDA $FC             ; First byte of room data pair
134C  29 03              AND #$03
134E  18                 CLC
134F  69 04              ADC #$04
1351  85 FA              STA $FA             ; HI byte of screen address
1353  A5 FC              LDA $FC             ; First byte of room data pair
1355  29 7C              AND #$7C            ; = %01111100
1357  4A                 LSR                 ; = %0 0 b6 b5 b4 b3 b2 0
1358  4A                 LSR                 ; = %0 0 0  b6 b5 b4 b3 b2
1359  AA                 TAX                 ; Set X to loop count
135A  60                 RTS
                 ;________________________________________
                 ;
                 ;    LO byte of pointer to room data
                 ;
135B  7B                 BYTE $7B            ; Room 00 = $137B
135C  92                 BYTE $92            ; Room 01 = $1392
135D  B3                 BYTE $B3            ; Room 02 = $13B3
135E  DA                 BYTE $DA            ; Room 03 = $13DA
135F  EF                 BYTE $EF            ; Room 04 = $13EF
1360  32                 BYTE $32            ; Room 05 = $1432
1361  5B                 BYTE $5B            ; Room 06 = $145B
1362  76                 BYTE $76            ; Room 07 = $1476
1363  A5                 BYTE $A5            ; Room 08 = $14A5
1364  C4                 BYTE $C4            ; Room 09 = $14C4
1365  DD                 BYTE $DD            ; Room 0A = $14DD
1366  F2                 BYTE $F2            ; Room 0B = $14F2
1367  35                 BYTE $35            ; Room 0C = $1535
1368  50                 BYTE $50            ; Room 0D = $1550
1369  6F                 BYTE $6F            ; Room 0E = $156F
136A  86                 BYTE $86            ; Room 0F = $1586
                 ;________________________________________
                 ;
                 ;    HI byte of pointer to room data
                 ;
136B  13                 BYTE $13            ; Room 00 = $137B
136C  13                 BYTE $13            ; Room 01 = $1392
136D  13                 BYTE $13            ; Room 02 = $13B3
136E  13                 BYTE $13            ; Room 03 = $13DA
136F  13                 BYTE $13            ; Room 04 = $13EF
1370  14                 BYTE $14            ; Room 05 = $1432
1371  14                 BYTE $14            ; Room 06 = $145B
1372  14                 BYTE $14            ; Room 07 = $1476
1373  14                 BYTE $14            ; Room 08 = $14A5
1374  14                 BYTE $14            ; Room 09 = $14C4
1375  14                 BYTE $14            ; Room 0A = $14DD
1376  14                 BYTE $14            ; Room 0B = $14F2
1377  15                 BYTE $15            ; Room 0C = $1535
1378  15                 BYTE $15            ; Room 0D = $1550
1379  15                 BYTE $15            ; Room 0E = $156F
137A  15                 BYTE $15            ; Room 0F = $1586
                 ;________________________________________
                 ;
                 ;    Room data for room 00
                 ;
                 ;    The rooms are connected like this (You start in room 09):
                 ;
                 ;        0C 0D 0E 0F
                 ;        08 09 0A 0B
                 ;        04 05 06 07
                 ;        00 01 02 03
                 ;
                 ;
                 ;
137B  48                 BYTE $48
137C  A1                 BYTE $A1            ; LO byte of screen address
137D  5D                 BYTE $5D
137E  78                 BYTE $78            ; LO byte of screen address
137F  16                 BYTE $16            ; 22       v
1380  53                 BYTE $53            ; LO byte of screen address
1381  53                 BYTE $53            ; 83       S
1382  4D                 BYTE $4D            ; LO byte of screen address
1383  3B                 BYTE $3B            ; 59       ;
1384  61                 BYTE $61            ; LO byte of screen address
1385  00                 BYTE $00            ; Signal to change JSR address to $12F6 in $12DC
1386  00                 BYTE $00            ; Signal to change JSR address to $131B in $12DC
1387  90                 BYTE $90            ; 144      p
1388  01                 BYTE $01            ; LO byte of screen address
1389  44                 BYTE $44            ; 68       D
138A  A5                 BYTE $A5            ; LO byte of screen address
138B  0C                 BYTE $0C
138C  B0                 BYTE $B0            ; LO byte of screen address
138D  0D                 BYTE $0D
138E  8C                 BYTE $8C            ; LO byte of screen address
138F  1E                 BYTE $1E            ; 30       ^
1390  54                 BYTE $54            ; LO byte of screen address
1391  00                 BYTE $00            ; 0         
                 ;________________________________________
                 ;
                 ;    Room data for room 01
                 ;
1392  08                 BYTE $08            ; 8        h
1393  00                 BYTE $00            ; LO byte of screen address
1394  40                 BYTE $40
1395  05                 BYTE $05            ; LO byte of screen address
1396  4C                 BYTE $4C
1397  15                 BYTE $15            ; LO byte of screen address
1398  A0                 BYTE $A0            ; 160       
1399  00                 BYTE $00            ; LO byte of screen address
139A  8C                 BYTE $8C            ; 140      l
139B  06                 BYTE $06            ; LO byte of screen address
139C  A0                 BYTE $A0            ; 160       
139D  27                 BYTE $27            ; LO byte of screen address
139E  35                 BYTE $35
139F  18                 BYTE $18            ; LO byte of screen address
13A0  31                 BYTE $31
13A1  34                 BYTE $34            ; LO byte of screen address
13A2  8D                 BYTE $8D
13A3  1E                 BYTE $1E            ; LO byte of screen address
13A4  52                 BYTE $52
13A5  30                 BYTE $30            ; LO byte of screen address
13A6  52                 BYTE $52            ; 82       R
13A7  44                 BYTE $44            ; LO byte of screen address
13A8  00                 BYTE $00            ; Signal to change JSR address to $12F6 in $12DC
13A9  15                 BYTE $15
13AA  25                 BYTE $25            ; LO byte of screen address
13AB  95                 BYTE $95            ; 149      u
13AC  2F                 BYTE $2F            ; LO byte of screen address
13AD  00                 BYTE $00            ; Signal to change JSR address to $131B in $12DC
13AE  9C                 BYTE $9C            ; 156      
13AF  02                 BYTE $02            ; LO byte of screen address
13B0  1D                 BYTE $1D            ; 29       ]
13B1  3A                 BYTE $3A            ; LO byte of screen address
13B2  00                 BYTE $00            ; 0         
                 ;________________________________________
                 ;
                 ;    Room data for room 02
                 ;
13B3  7C                 BYTE $7C            ; 124      GFX
13B4  CD                 BYTE $CD            ; LO byte of screen address
13B5  09                 BYTE $09            ; 9        i
13B6  40                 BYTE $40            ; LO byte of screen address
13B7  89                 BYTE $89            ; 137      i
13B8  41                 BYTE $41            ; LO byte of screen address
13B9  09                 BYTE $09
13BA  66                 BYTE $66            ; LO byte of screen address
13BB  89                 BYTE $89
13BC  66                 BYTE $66            ; LO byte of screen address
13BD  3D                 BYTE $3D            ; 61       =
13BE  75                 BYTE $75            ; LO byte of screen address
13BF  12                 BYTE $12
13C0  30                 BYTE $30            ; LO byte of screen address
13C1  16                 BYTE $16
13C2  19                 BYTE $19            ; LO byte of screen address
13C3  0E                 BYTE $0E
13C4  11                 BYTE $11            ; LO byte of screen address
13C5  1E                 BYTE $1E
13C6  51                 BYTE $51            ; LO byte of screen address
13C7  26                 BYTE $26
13C8  B5                 BYTE $B5            ; LO byte of screen address
13C9  5F                 BYTE $5F
13CA  4D                 BYTE $4D            ; LO byte of screen address
13CB  00                 BYTE $00            ; Signal to change JSR address to $12F6 in $12DC
13CC  00                 BYTE $00            ; Signal to change JSR address to $131B in $12DC
13CD  94                 BYTE $94
13CE  13                 BYTE $13            ; LO byte of screen address
13CF  24                 BYTE $24
13D0  E9                 BYTE $E9            ; LO byte of screen address
13D1  40                 BYTE $40
13D2  CD                 BYTE $CD            ; LO byte of screen address
13D3  31                 BYTE $31            ; 49       1
13D4  81                 BYTE $81            ; LO byte of screen address
13D5  21                 BYTE $21            ; 33       !
13D6  75                 BYTE $75            ; LO byte of screen address
13D7  12                 BYTE $12            ; 18       r
13D8  1B                 BYTE $1B            ; LO byte of screen address
13D9  00                 BYTE $00            ; 0         
                 ;________________________________________
                 ;
                 ;    Room data for room 03
                 ;
13DA  12                 BYTE $12            ; 18       r
13DB  30                 BYTE $30            ; LO byte of screen address
13DC  33                 BYTE $33
13DD  49                 BYTE $49            ; LO byte of screen address
13DE  30                 BYTE $30
13DF  AA                 BYTE $AA            ; LO byte of screen address
13E0  33                 BYTE $33            ; 51       3
13E1  5B                 BYTE $5B            ; LO byte of screen address
13E2  20                 BYTE $20            ; 32        
13E3  BC                 BYTE $BC            ; LO byte of screen address
13E4  00                 BYTE $00            ; Signal to change JSR address to $12F6 in $12DC
13E5  00                 BYTE $00            ; Signal to change JSR address to $131B in $12DC
13E6  1E                 BYTE $1E
13E7  31                 BYTE $31            ; LO byte of screen address
13E8  44                 BYTE $44
13E9  AA                 BYTE $AA            ; LO byte of screen address
13EA  44                 BYTE $44            ; 68       D
13EB  B3                 BYTE $B3            ; LO byte of screen address
13EC  44                 BYTE $44            ; 68       D
13ED  BC                 BYTE $BC            ; LO byte of screen address
13EE  00                 BYTE $00            ; 0         
                 ;________________________________________
                 ;
                 ;    Room data for room 04
                 ;
13EF  50                 BYTE $50            ; 80       P
13F0  00                 BYTE $00            ; LO byte of screen address
13F1  50                 BYTE $50
13F2  14                 BYTE $14            ; LO byte of screen address
13F3  50                 BYTE $50            ; 80       P
13F4  C8                 BYTE $C8            ; LO byte of screen address
13F5  50                 BYTE $50
13F6  DC                 BYTE $DC            ; LO byte of screen address
13F7  51                 BYTE $51
13F8  68                 BYTE $68            ; LO byte of screen address
13F9  51                 BYTE $51            ; 81       Q
13FA  7C                 BYTE $7C            ; LO byte of screen address
13FB  52                 BYTE $52            ; 82       R
13FC  08                 BYTE $08            ; LO byte of screen address
13FD  52                 BYTE $52            ; 82       R
13FE  1C                 BYTE $1C            ; LO byte of screen address
13FF  52                 BYTE $52            ; 82       R
1400  A8                 BYTE $A8            ; LO byte of screen address
1401  52                 BYTE $52            ; 82       R
1402  BC                 BYTE $BC            ; LO byte of screen address
1403  53                 BYTE $53            ; 83       S
1404  48                 BYTE $48            ; LO byte of screen address
1405  53                 BYTE $53            ; 83       S
1406  5C                 BYTE $5C            ; LO byte of screen address
1407  D8                 BYTE $D8            ; 216      X
1408  00                 BYTE $00            ; LO byte of screen address
1409  D8                 BYTE $D8            ; 216      X
140A  27                 BYTE $27            ; LO byte of screen address
140B  00                 BYTE $00            ; Signal to change JSR address to $12F6 in $12DC
140C  00                 BYTE $00            ; Signal to change JSR address to $131B in $12DC
140D  94                 BYTE $94            ; 148      t
140E  05                 BYTE $05            ; LO byte of screen address
140F  07                 BYTE $07            ; 7        g
1410  49                 BYTE $49            ; LO byte of screen address
1411  10                 BYTE $10
1412  C9                 BYTE $C9            ; LO byte of screen address
1413  10                 BYTE $10            ; 16       p
1414  D3                 BYTE $D3            ; LO byte of screen address
1415  10                 BYTE $10
1416  DD                 BYTE $DD            ; LO byte of screen address
1417  10                 BYTE $10
1418  E7                 BYTE $E7            ; LO byte of screen address
1419  11                 BYTE $11
141A  6E                 BYTE $6E            ; LO byte of screen address
141B  11                 BYTE $11
141C  78                 BYTE $78            ; LO byte of screen address
141D  11                 BYTE $11
141E  82                 BYTE $82            ; LO byte of screen address
141F  11                 BYTE $11            ; 17       q
1420  8C                 BYTE $8C            ; LO byte of screen address
1421  12                 BYTE $12            ; 18       r
1422  09                 BYTE $09            ; LO byte of screen address
1423  12                 BYTE $12            ; 18       r
1424  13                 BYTE $13            ; LO byte of screen address
1425  12                 BYTE $12            ; 18       r
1426  1D                 BYTE $1D            ; LO byte of screen address
1427  12                 BYTE $12            ; 18       r
1428  27                 BYTE $27            ; LO byte of screen address
1429  12                 BYTE $12            ; 18       r
142A  AE                 BYTE $AE            ; LO byte of screen address
142B  12                 BYTE $12            ; 18       r
142C  B8                 BYTE $B8            ; LO byte of screen address
142D  12                 BYTE $12            ; 18       r
142E  C2                 BYTE $C2            ; LO byte of screen address
142F  12                 BYTE $12            ; 18       r
1430  CC                 BYTE $CC            ; LO byte of screen address
1431  00                 BYTE $00
                 ;________________________________________
                 ;
                 ;    Room data for room 05
                 ;
1432  14                 BYTE $14
1433  CA                 BYTE $CA
1434  09                 BYTE $09
1435  00                 BYTE $00
1436  05                 BYTE $05
1437  1F                 BYTE $1F
1438  09                 BYTE $09
1439  21                 BYTE $21
143A  11                 BYTE $11
143B  2D                 BYTE $2D
143C  05                 BYTE $05
143D  70                 BYTE $70
143E  05                 BYTE $05
143F  84                 BYTE $84
1440  09                 BYTE $09
1441  C1                 BYTE $C1
1442  0D                 BYTE $0D            ; 13       m
1443  CE                 BYTE $CE            ; 206      N
1444  0A                 BYTE $0A            ; 10       j
1445  13                 BYTE $13            ; 19       s
1446  0E                 BYTE $0E
1447  23                 BYTE $23
1448  0E                 BYTE $0E
1449  69                 BYTE $69
144A  0A                 BYTE $0A
144B  70                 BYTE $70            ; 112      GFX
144C  0A                 BYTE $0A            ; 10       j
144D  7C                 BYTE $7C            ; 124      GFX
144E  0E                 BYTE $0E
144F  C5                 BYTE $C5
1450  0F                 BYTE $0F
1451  10                 BYTE $10
1452  33                 BYTE $33
1453  49                 BYTE $49            ; 73       I
1454  0F                 BYTE $0F            ; 15       o
1455  5A                 BYTE $5A            ; 90       Z
1456  00                 BYTE $00            ; 0         
1457  00                 BYTE $00            ; 0         
1458  07                 BYTE $07            ; 7        g
1459  4A                 BYTE $4A            ; 74       J
145A  00                 BYTE $00            ; 0         
                 ;________________________________________
                 ;
                 ;    Room data for room 06
                 ;
145B  50                 BYTE $50
145C  CB                 BYTE $CB
145D  38                 BYTE $38            ; 56       8
145E  DF                 BYTE $DF            ; 223      GFX
145F  5D                 BYTE $5D            ; 93       GFX
1460  C0                 BYTE $C0            ; 192      GFX
1461  1A                 BYTE $1A            ; 26       z
1462  52                 BYTE $52            ; 82       R
1463  3E                 BYTE $3E
1464  AB                 BYTE $AB
1465  22                 BYTE $22
1466  BF                 BYTE $BF            ; 191      ?
1467  89                 BYTE $89            ; 137      i
1468  D2                 BYTE $D2            ; 210      R
1469  00                 BYTE $00            ; 0         
146A  00                 BYTE $00            ; 0         
146B  94                 BYTE $94
146C  13                 BYTE $13
146D  30                 BYTE $30
146E  CB                 BYTE $CB
146F  24                 BYTE $24
1470  EA                 BYTE $EA
1471  2D                 BYTE $2D            ; 45       -
1472  CB                 BYTE $CB            ; 203      K
1473  19                 BYTE $19            ; 25       y
1474  D4                 BYTE $D4            ; 212      T
1475  00                 BYTE $00            ; 0         
                 ;________________________________________
                 ;
                 ;    Room data for room 07
                 ;
1476  52                 BYTE $52            ; 82       R
1477  30                 BYTE $30            ; 48       0
1478  3E                 BYTE $3E            ; 62       >
1479  44                 BYTE $44            ; 68       D
147A  50                 BYTE $50
147B  A1                 BYTE $A1
147C  38                 BYTE $38
147D  B5                 BYTE $B5            ; 181      5
147E  71                 BYTE $71            ; 113      GFX
147F  6F                 BYTE $6F            ; 111      GFX
1480  0F                 BYTE $0F            ; 15       o
1481  6C                 BYTE $6C
1482  C4                 BYTE $C4
1483  A4                 BYTE $A4
1484  98                 BYTE $98            ; 152      x
1485  A7                 BYTE $A7            ; 167      '
1486  98                 BYTE $98
1487  B0                 BYTE $B0
1488  98                 BYTE $98
1489  B9                 BYTE $B9            ; 185      9
148A  98                 BYTE $98            ; 152      x
148B  C2                 BYTE $C2            ; 194      B
148C  00                 BYTE $00            ; 0         
148D  D3                 BYTE $D3            ; 211      S
148E  4C                 BYTE $4C
148F  B3                 BYTE $B3
1490  60                 BYTE $60
1491  00                 BYTE $00            ; 0         
1492  0C                 BYTE $0C            ; 12       l
1493  A8                 BYTE $A8            ; 168      (
1494  0C                 BYTE $0C            ; 12       l
1495  B1                 BYTE $B1
1496  0C                 BYTE $0C
1497  BA                 BYTE $BA
1498  0D                 BYTE $0D
1499  75                 BYTE $75
149A  0D                 BYTE $0D
149B  7E                 BYTE $7E
149C  0D                 BYTE $0D
149D  87                 BYTE $87
149E  1E                 BYTE $1E
149F  35                 BYTE $35
14A0  D4                 BYTE $D4
14A1  24                 BYTE $24
14A2  28                 BYTE $28
14A3  A1                 BYTE $A1            ; 161      !
14A4  00                 BYTE $00            ; 0         
                 ;________________________________________
                 ;
                 ;    Room data for room 08
                 ;
14A5  0C                 BYTE $0C            ; 12       l
14A6  00                 BYTE $00            ; 0         
14A7  D8                 BYTE $D8            ; 216      X
14A8  03                 BYTE $03            ; 3        c
14A9  0F                 BYTE $0F            ; 15       o
14AA  48                 BYTE $48
14AB  D8                 BYTE $D8
14AC  09                 BYTE $09
14AD  74                 BYTE $74
14AE  0A                 BYTE $0A            ; 10       j
14AF  7B                 BYTE $7B            ; 123      GFX
14B0  52                 BYTE $52            ; 82       R
14B1  1D                 BYTE $1D            ; 29       ]
14B2  C2                 BYTE $C2            ; 194      B
14B3  B0                 BYTE $B0            ; 176      0
14B4  27                 BYTE $27            ; 39       '
14B5  25                 BYTE $25
14B6  D6                 BYTE $D6
14B7  0D                 BYTE $0D            ; 13       m
14B8  2D                 BYTE $2D            ; 45       -
14B9  05                 BYTE $05            ; 5        e
14BA  7A                 BYTE $7A            ; 122      GFX
14BB  09                 BYTE $09            ; 9        i
14BC  84                 BYTE $84            ; 132      d
14BD  00                 BYTE $00            ; 0         
14BE  00                 BYTE $00            ; 0         
14BF  D8                 BYTE $D8
14C0  05                 BYTE $05            ; 5        e
14C1  29                 BYTE $29            ; 41       )
14C2  C3                 BYTE $C3            ; 195      C
14C3  00                 BYTE $00            ; 0         
                 ;________________________________________
                 ;
                 ;    Room data for room 09
                 ;
14C4  55                 BYTE $55            ; 01010101 (HI byte of screen address = %100 AND bits 0-1 = %101 = $05) (Loop = bits 2-6 = %10101 = $15)
14C5  1B                 BYTE $1B            ; LO byte of screen address
14C6  2D                 BYTE $2D            ; 00101101 (HI byte of screen address = %100 AND bits 0-1 = %101 = $05) (Loop = %01011 = $0B)
14C7  35                 BYTE $35            ; LO byte of screen address
14C8  72                 BYTE $72            ; 01110010 (HI byte of screen address = %100 AND bits 0-1 = %110 = $06) (Loop = %11100 = $1C)
14C9  33                 BYTE $33            ; LO byte of screen address
14CA  12                 BYTE $12            ; 00010010 (HI byte of screen address = %100 AND bits 0-1 = %110 = $06) (Loop = %00100 = $04)
14CB  54                 BYTE $54            ; LO byte of screen address
14CC  8E                 BYTE $8E            ; 10001110 (vertical) (HI byte of screen address = %100 AND bits 0-1 = %110 = $06) (Loop = %00011 = $03)
14CD  54                 BYTE $54            ; LO byte of screen address
14CE  7F                 BYTE $7F            ; 01111111 (HI byte of screen address = %100 AND bits 0-1 = %111 = $07) (Loop = %11111 = $1F)
14CF  48                 BYTE $48            ; LO byte of screen address
14D0  27                 BYTE $27            ; 00100111 (HI byte of screen address = %100 AND bits 0-1 = %111 = $07) (Loop = %01001 = $09)
14D1  67                 BYTE $67            ; LO byte of screen address
14D2  9A                 BYTE $9A            ; 10011010 (vertical) (HI byte of screen address = %100 AND bits 0-1 = %110 = $06) (Loop = %00110 = $06)
14D3  60                 BYTE $60            ; LO byte of screen address
14D4  00                 BYTE $00            ; Signal to change JSR address to $12F6 in $12DC
14D5  00                 BYTE $00            ; Signal to change JSR address to $131B in $12DC
14D6  1E                 BYTE $1E            ; 00011110 (top of ladder) (HI byte of screen address = %100 AND bits 0-1 = %110 = $06) (Loop = bits 2-6 = %00111 = $07)
14D7  34                 BYTE $34            ; LO byte of screen address
14D8  39                 BYTE $39            ; 00111001 (top of ladder) HI byte of screen address = %100 AND bits 0-1 = %101 = $05) (Loop = %01110 = $0E)
14D9  38                 BYTE $38            ; LO byte of screen address
14DA  A4                 BYTE $A4            ; 10100100 (HI byte of screen address = %100 AND bits 0-1 = %100 = $04) (Loop = %01001 = $09)
14DB  19                 BYTE $19            ; LO byte of screen address
14DC  00                 BYTE $00            ; End of room data for room 09
                 ;________________________________________
                 ;
                 ;    Room data for room 0A
                 ;
14DD  15                 BYTE $15
14DE  18                 BYTE $18
14DF  65                 BYTE $65
14E0  24                 BYTE $24
14E1  26                 BYTE $26
14E2  30                 BYTE $30
14E3  36                 BYTE $36            ; 54       6
14E4  4B                 BYTE $4B            ; 75       K
14E5  7F                 BYTE $7F            ; 127      GFX
14E6  48                 BYTE $48            ; 72       H
14E7  00                 BYTE $00            ; 0         
14E8  00                 BYTE $00            ; 0         
14E9  B8                 BYTE $B8
14EA  06                 BYTE $06
14EB  39                 BYTE $39
14EC  24                 BYTE $24            ; 36       $
14ED  16                 BYTE $16            ; 22       v
14EE  4B                 BYTE $4B            ; 75       K
14EF  07                 BYTE $07            ; 7        g
14F0  5B                 BYTE $5B            ; 91       GFX
14F1  00                 BYTE $00            ; 0         
                 ;________________________________________
                 ;
                 ;    Room data for room 0B
                 ;
14F2  32                 BYTE $32            ; 50       2
14F3  30                 BYTE $30
14F4  5F                 BYTE $5F
14F5  50                 BYTE $50
14F6  2E                 BYTE $2E
14F7  4C                 BYTE $4C
14F8  00                 BYTE $00
14F9  AC                 BYTE $AC
14FA  CC                 BYTE $CC            ; 204      L
14FB  04                 BYTE $04            ; 4        d
14FC  D8                 BYTE $D8            ; 216      X
14FD  04                 BYTE $04            ; 4        d
14FE  DA                 BYTE $DA            ; 218      Z
14FF  84                 BYTE $84
1500  DC                 BYTE $DC
1501  84                 BYTE $84
1502  DE                 BYTE $DE
1503  2C                 BYTE $2C            ; 44       ,
1504  E0                 BYTE $E0            ; 224      SPACE
1505  85                 BYTE $85            ; 133      e
1506  27                 BYTE $27            ; 39       '
1507  85                 BYTE $85
1508  C7                 BYTE $C7
1509  86                 BYTE $86            ; 134      f
150A  67                 BYTE $67            ; 103      GFX
150B  87                 BYTE $87            ; 135      g
150C  07                 BYTE $07            ; 7        g
150D  8F                 BYTE $8F            ; 143      o
150E  57                 BYTE $57            ; 87       W
150F  05                 BYTE $05
1510  78                 BYTE $78
1511  06                 BYTE $06
1512  18                 BYTE $18
1513  06                 BYTE $06
1514  B8                 BYTE $B8
1515  05                 BYTE $05
1516  29                 BYTE $29
1517  05                 BYTE $05            ; 5        e
1518  2D                 BYTE $2D            ; 45       -
1519  0F                 BYTE $0F            ; 15       o
151A  5D                 BYTE $5D
151B  85                 BYTE $85
151C  7E                 BYTE $7E
151D  86                 BYTE $86
151E  1E                 BYTE $1E
151F  86                 BYTE $86
1520  BE                 BYTE $BE
1521  05                 BYTE $05
1522  2F                 BYTE $2F
1523  05                 BYTE $05
1524  CF                 BYTE $CF
1525  06                 BYTE $06            ; 6        f
1526  6F                 BYTE $6F            ; 111      GFX
1527  07                 BYTE $07            ; 7        g
1528  0F                 BYTE $0F            ; 15       o
1529  00                 BYTE $00            ; 0         
152A  24                 BYTE $24
152B  CC                 BYTE $CC
152C  24                 BYTE $24
152D  E8                 BYTE $E8
152E  1E                 BYTE $1E
152F  38                 BYTE $38
1530  1E                 BYTE $1E
1531  4C                 BYTE $4C
1532  22                 BYTE $22
1533  54                 BYTE $54
1534  00                 BYTE $00            ; 0         
                 ;________________________________________
                 ;
                 ;    Room data for room 0C
                 ;
1535  1A                 BYTE $1A            ; 26       z
1536  52                 BYTE $52            ; 82       R
1537  53                 BYTE $53            ; 83       S
1538  22                 BYTE $22            ; 34       ''
1539  43                 BYTE $43            ; 67       C
153A  36                 BYTE $36
153B  00                 BYTE $00
153C  0E                 BYTE $0E
153D  32                 BYTE $32
153E  8E                 BYTE $8E
153F  35                 BYTE $35            ; 53       5
1540  0E                 BYTE $0E            ; 14       n
1541  3C                 BYTE $3C            ; 60       <
1542  8E                 BYTE $8E
1543  3F                 BYTE $3F
1544  0E                 BYTE $0E
1545  46                 BYTE $46
1546  8E                 BYTE $8E
1547  49                 BYTE $49
1548  0A                 BYTE $0A
1549  50                 BYTE $50            ; 80       P
154A  00                 BYTE $00            ; 0         
154B  0B                 BYTE $0B            ; 11       k
154C  25                 BYTE $25            ; 37       %
154D  1A                 BYTE $1A            ; 26       z
154E  53                 BYTE $53            ; 83       S
154F  00                 BYTE $00            ; 0         
                 ;________________________________________
                 ;
                 ;    Room data for room 0D
                 ;
1550  1A                 BYTE $1A            ; 26       z
1551  30                 BYTE $30            ; 48       0
1552  7C                 BYTE $7C            ; 124      GFX
1553  F3                 BYTE $F3            ; 243      GFX
1554  21                 BYTE $21
1555  93                 BYTE $93
1556  49                 BYTE $49            ; 73       I
1557  A0                 BYTE $A0            ; 160       
1558  4A                 BYTE $4A            ; 74       J
1559  3C                 BYTE $3C            ; 60       <
155A  16                 BYTE $16
155B  53                 BYTE $53
155C  56                 BYTE $56
155D  D3                 BYTE $D3
155E  16                 BYTE $16            ; 22       v
155F  ED                 BYTE $ED            ; 237      GFX
1560  00                 BYTE $00            ; 0         
1561  00                 BYTE $00            ; 0         
1562  10                 BYTE $10
1563  F3                 BYTE $F3
1564  20                 BYTE $20            ; 32        
1565  FC                 BYTE $FC            ; 252      GFX
1566  0D                 BYTE $0D            ; 13       m
1567  0F                 BYTE $0F            ; 15       o
1568  21                 BYTE $21            ; 33       !
1569  AF                 BYTE $AF            ; 175      /
156A  12                 BYTE $12            ; 18       r
156B  33                 BYTE $33            ; 51       3
156C  22                 BYTE $22            ; 34       ''
156D  49                 BYTE $49
156E  00                 BYTE $00
                 ;________________________________________
                 ;
                 ;    Room data for room 0E
                 ;
156F  16                 BYTE $16
1570  30                 BYTE $30
1571  0A                 BYTE $0A            ; 10       j
1572  0C                 BYTE $0C            ; 12       l
1573  92                 BYTE $92            ; 146      r
1574  0C                 BYTE $0C            ; 12       l
1575  27                 BYTE $27            ; 39       '
1576  49                 BYTE $49
1577  0E                 BYTE $0E
1578  2D                 BYTE $2D            ; 45       -
1579  00                 BYTE $00            ; 0         
157A  26                 BYTE $26            ; 38       &
157B  0F                 BYTE $0F            ; 15       o
157C  26                 BYTE $26
157D  19                 BYTE $19
157E  26                 BYTE $26            ; 38       &
157F  23                 BYTE $23            ; 35       #
1580  00                 BYTE $00            ; 0         
1581  07                 BYTE $07            ; 7        g
1582  4E                 BYTE $4E            ; 78       N
1583  1E                 BYTE $1E            ; 30       ^
1584  31                 BYTE $31            ; 49       1
1585  00                 BYTE $00            ; 0         
                 ;________________________________________
                 ;
                 ;    Room data for room 0F
                 ;
1586  4C                 BYTE $4C
1587  C9                 BYTE $C9
1588  38                 BYTE $38
1589  E1                 BYTE $E1
158A  11                 BYTE $11
158B  69                 BYTE $69            ; 105      GFX
158C  4D                 BYTE $4D            ; 77       M
158D  72                 BYTE $72            ; 114      GFX
158E  21                 BYTE $21            ; 33       !
158F  87                 BYTE $87            ; 135      g
1590  52                 BYTE $52            ; 82       R
1591  08                 BYTE $08            ; 8        h
1592  3A                 BYTE $3A            ; 58       :
1593  21                 BYTE $21
1594  3A                 BYTE $3A
1595  A9                 BYTE $A9
1596  3E                 BYTE $3E
1597  BC                 BYTE $BC            ; 188      <
1598  63                 BYTE $63            ; 99       GFX
1599  49                 BYTE $49            ; 73       I
159A  27                 BYTE $27            ; 39       '
159B  66                 BYTE $66            ; 102      GFX
159C  00                 BYTE $00            ; 0         
159D  00                 BYTE $00            ; 0         
159E  1C                 BYTE $1C            ; 28       
159F  CE                 BYTE $CE
15A0  10                 BYTE $10
15A1  D8                 BYTE $D8
15A2  10                 BYTE $10
15A3  E2                 BYTE $E2
15A4  10                 BYTE $10
15A5  EC                 BYTE $EC
15A6  11                 BYTE $11
15A7  69                 BYTE $69
15A8  11                 BYTE $11
15A9  73                 BYTE $73
15AA  1D                 BYTE $1D            ; 29       ]
15AB  7D                 BYTE $7D            ; 125      GFX
15AC  11                 BYTE $11            ; 17       q
15AD  87                 BYTE $87            ; 135      g
15AE  12                 BYTE $12            ; 18       r
15AF  0E                 BYTE $0E            ; 14       n
15B0  22                 BYTE $22            ; 34       ''
15B1  18                 BYTE $18            ; 24       x
15B2  12                 BYTE $12            ; 18       r
15B3  22                 BYTE $22            ; 34       ''
15B4  0E                 BYTE $0E            ; 14       n
15B5  A9                 BYTE $A9            ; 169      )
15B6  12                 BYTE $12            ; 18       r
15B7  B3                 BYTE $B3            ; 179      3
15B8  0E                 BYTE $0E            ; 14       n
15B9  BD                 BYTE $BD            ; 189      =
15BA  12                 BYTE $12            ; 18       r
15BB  C7                 BYTE $C7            ; 199      G
15BC  00                 BYTE $00            ; 0         
                 ;________________________________________
                 ;
                 ;    IRQ routine
                 ;
15BD  AD 19 D0           LDA $D019           ; VIC INTERRUPT FLAGS
15C0  8D 19 D0           STA $D019           ; VIC INTERRUPT FLAGS
15C3  29 01              AND #$01
15C5  D0 03              BNE L00120
15C7  4C 7E EA           JMP $EA7E           ; Terminate interrupt (Not VIC IRQ)
15CA  2C 46 1B   L00120  BIT $1B46           ; This is sometimes changed to JMP $1B46
15CD  A2 01              LDX #$01
15CF  BD 90 50   L00121  LDA $5090,X         ; Reads $5090+$05 = $5095
15D2  10 70              BPL L00131
15D4  BD 98 50           LDA $5098,X
15D7  29 03              AND #$03
15D9  D0 69              BNE L00131
15DB  BD A0 50           LDA $50A0,X
15DE  38                 SEC
15DF  E9 05              SBC #$05
15E1  29 07              AND #$07
15E3  D0 5F              BNE L00131
15E5  BD D8 50           LDA $50D8,X
15E8  4A                 LSR
15E9  B0 27              BCS L00125
15EB  20 F4 1A           JSR L00227
15EE  C9 FE              CMP #$FE            ; Top of ladder
15F0  B0 52              BCS L00131
15F2  20 4C 16           JSR L00132
15F5  30 09              BMI L00122
15F7  20 E0 1A           JSR L00222
15FA  B0 10              BCS L00124
15FC  A0 03              LDY #$03
15FE  D0 07              BNE L00123
1600  20 DD 1A   L00122  JSR L00221
1603  B0 07              BCS L00124
1605  A0 FD              LDY #$FD
1607  A9 00      L00123  LDA #$00
1609  4C 3E 16           JMP L00130
160C  20 3C 1A   L00124  JSR L00205
160F  4C 44 16           JMP L00131
1612  20 4C 16   L00125  JSR L00132
1615  30 1C              BMI L00128
1617  20 F9 1A           JSR L00228
161A  C9 FE              CMP #$FE            ; Top of ladder
161C  D0 05              BNE L00126
161E  A9 03              LDA #$03
1620  4C 3C 16           JMP L00129
1623  20 CB 1A   L00126  JSR L00218
1626  90 05              BCC L00127
1628  20 D8 1A           JSR L00220
162B  90 17              BCC L00131
162D  20 26 1A   L00127  JSR L00204
1630  4C 44 16           JMP L00131
1633  20 FC 1A   L00128  JSR L00229
1636  C9 FE              CMP #$FE
1638  90 E9              BCC L00126
163A  A9 FD              LDA #$FD
163C  A0 00      L00129  LDY #$00
163E  20 78 19   L00130  JSR L00187
1641  FE D8 50           INC $50D8,X
1644  E8         L00131  INX
1645  E0 08              CPX #$08
1647  F0 0D              BEQ L00133
1649  4C CF 15           JMP L00121
164C  BC F0 50   L00132  LDY $50F0,X
164F  FE F0 50           INC $50F0,X
1652  B9 00 A0           LDA $A000,Y
1655  60                 RTS
1656  A5 B2      L00133  LDA $B2
1658  F0 04              BEQ L00134
165A  C6 B2              DEC $B2
165C  D0 38              BNE L00137
165E  A9 02      L00134  LDA #$02
1660  85 B2              STA $B2
1662  A2 07              LDX #$07
1664  BD D8 3F   L00135  LDA $3FD8,X         ; Roll Right Moving Sidewalk character
1667  4A                 LSR
1668  7E D8 3F           ROR $3FD8,X
166B  BD D8 3F           LDA $3FD8,X
166E  4A                 LSR
166F  7E D8 3F           ROR $3FD8,X
1672  BD D0 3F           LDA $3FD0,X         ; Roll Left Moving Sidewalk character
1675  0A                 ASL
1676  3E D0 3F           ROL $3FD0,X
1679  BD D0 3F           LDA $3FD0,X
167C  0A                 ASL
167D  3E D0 3F           ROL $3FD0,X
1680  CA                 DEX
1681  10 E1              BPL L00135
1683  A2 00              LDX #$00
1685  20 F9 1A           JSR L00228
1688  C9 FB              CMP #$FB            ; Right Moving Sidewalk
168A  D0 03              BNE L00136
168C  EE 98 50           INC $5098           ; Hero X-POS
168F  C9 FA      L00136  CMP #$FA            ; Left Moving Sidewalk
1691  D0 03              BNE L00137
1693  CE 98 50           DEC $5098           ; Hero X-POS
1696  AD 1E D0   L00137  LDA $D01E           ; SPRITE-SPRITE COLLISION
1699  2D 15 D0           AND $D015           ; AND with visible sprites
169C  4A                 LSR
169D  90 5D              BCC L00147          ; Branch if Hero was not involved in collision
169F  A2 08              LDX #$08
16A1  0A         L00138  ASL
16A2  90 22              BCC L00141
16A4  BD 98 50           LDA $5098,X
16A7  38                 SEC
16A8  ED 98 50           SBC $5098           ; Hero X-POS
16AB  B0 04              BCS L00139
16AD  49 FF              EOR #$FF
16AF  69 01              ADC #$01
16B1  C9 30      L00139  CMP #$30
16B3  B0 11              BCS L00141
16B5  BD A0 50           LDA $50A0,X
16B8  38                 SEC
16B9  ED A0 50           SBC $50A0           ; Hero Y-POS
16BC  B0 04              BCS L00140
16BE  49 FF              EOR #$FF
16C0  69 01              ADC #$01
16C2  C9 2A      L00140  CMP #$2A
16C4  90 05              BCC L00142
16C6  CA         L00141  DEX
16C7  D0 D8              BNE L00138
16C9  F0 31              BEQ L00147
16CB  BD 58 50   L00142  LDA $5058,X
16CE  F0 0C              BEQ L00143
16D0  18                 CLC
16D1  65 06              ADC $06             ; LIVES
16D3  C9 0A              CMP #$0A
16D5  B0 05              BCS L00143
16D7  85 06              STA $06             ; LIVES
16D9  38                 SEC
16DA  66 B9              ROR $B9
16DC  BD 50 50   L00143  LDA $5050,X
16DF  F0 03              BEQ L00144
16E1  20 BE 1A           JSR L00216
16E4  BD 48 50   L00144  LDA $5048,X         ; Reads $504C (originally from 104A) when picking up key in room $0A
                                             ; Reads $504B (originally from 1062) when picking up cherries in room $09
16E7  F0 02              BEQ L00145
16E9  85 A3              STA $A3             ; Save Sound Effect Number
16EB  BD 38 50   L00145  LDA $5038,X
16EE  20 97 19           JSR L00190
16F1  BD 40 50           LDA $5040,X
16F4  A2 00              LDX #$00
16F6  20 97 19           JSR L00190
16F9  4C 82 17   L00146  JMP L00157
16FC  24 B0      L00147  BIT $B0
16FE  30 F9              BMI L00146
1700  A2 00              LDX #$00
1702  20 F9 1A           JSR L00228
1705  C9 20              CMP #$20            ; Is Hero standing on solid ground?
1707  D0 12              BNE L00149
1709  A0 00              LDY #$00
170B  A9 0F              LDA #$0F
170D  A2 00              LDX #$00
170F  20 78 19           JSR L00187
1712  A9 04              LDA #$04
1714  F0 02              BEQ L00148
1716  85 AA              STA $AA
1718  4C 7E 17   L00148  JMP L00156
171B  AD 00 DC   L00149  LDA $DC00           ; JOYSTICK PORT A
171E  0A                 ASL
171F  0A                 ASL
1720  0A                 ASL
1721  0A                 ASL
1722  A2 04              LDX #$04
1724  0A         L00150  ASL
1725  90 03              BCC L00151          ; Branch if RIGHT, LEFT, DOWN or UP is pressed on joystick
1727  CA                 DEX
1728  D0 FA              BNE L00150
172A  E4 B1      L00151  CPX $B1
172C  8E 60 17           STX $1760           ; X = 0 (No direction), 1 (UP), 2 (DOWN), 3 (LEFT) or 4 (RIGHT)
172F  F0 35              BEQ L00155
1731  8A                 TXA
1732  F0 2B              BEQ L00154          ; Branch if RIGHT, LEFT, DOWN or UP is not pressed on joystick
1734  E0 01              CPX #$01            ; Is UP pressed on joystick?
1736  D0 10              BNE L00152          ; No - branch
1738  A2 00              LDX #$00
173A  20 FC 1A           JSR L00229
173D  C9 FE              CMP #$FE
173F  90 25              BCC L00155
1741  A9 01              LDA #$01
1743  85 B0              STA $B0
1745  4C 5F 17           JMP L00154
1748  E0 02      L00152  CPX #$02            ; Is DOWN pressed on joystick?
174A  D0 0F              BNE L00153          ; No - branch
174C  A2 00              LDX #$00
174E  20 F9 1A           JSR L00228
1751  C9 FE              CMP #$FE
1753  90 11              BCC L00155
1755  A9 01              LDA #$01
1757  85 B0              STA $B0
1759  D0 04              BNE L00154
175B  A5 B0      L00153  LDA $B0
175D  D0 07              BNE L00155
175F  A9 00      L00154  LDA #$00            ; This value is changed in $172C
1761  85 B1              STA $B1
1763  20 50 19           JSR L00185
1766  AD 00 DC   L00155  LDA $DC00           ; JOYSTICK PORT A
1769  29 10              AND #$10
176B  D0 15              BNE L00157          ; Branch if FIRE is not pressed on joystick
176D  A5 B0              LDA $B0
176F  D0 11              BNE L00157
1771  A9 F3              LDA #$F3
1773  A2 00              LDX #$00
1775  20 0E 1A           JSR L00202
1778  A9 03              LDA #$03
177A  F0 02              BEQ L00156
177C  85 AA              STA $AA
177E  A9 80      L00156  LDA #$80
1780  85 B0              STA $B0
1782  A2 07      L00157  LDX #$07
1784  BD 10 50   L00158  LDA $5010,X
1787  C9 02              CMP #$02
1789  90 29              BCC L00161
178B  BD A8 50           LDA $50A8,X
178E  F0 05              BEQ L00159
1790  DE A8 50           DEC $50A8,X
1793  D0 1F              BNE L00161
1795  BD 08 50   L00159  LDA $5008,X
1798  9D A8 50           STA $50A8,X
179B  DE B0 50           DEC $50B0,X         ; Decrease animation frame count
179E  F0 06              BEQ L00160          ; Branch if no more frames
17A0  FE F8 07           INC $07F8,X         ; Next frame in sprite animation cycle
17A3  4C B4 17           JMP L00161
17A6  20 52 1A   L00160  JSR L00206
17A9  8A                 TXA
17AA  D0 08              BNE L00161
17AC  A5 B0              LDA $B0
17AE  D0 04              BNE L00161
17B0  A9 02              LDA #$02
17B2  85 AA              STA $AA
17B4  8A         L00161  TXA
17B5  D0 05              BNE L00162
17B7  20 CB 1A           JSR L00218
17BA  90 13              BCC L00163
17BC  BD C8 50   L00162  LDA $50C8,X
17BF  18                 CLC
17C0  7D B8 50           ADC $50B8,X
17C3  9D C8 50           STA $50C8,X
17C6  BD 98 50           LDA $5098,X
17C9  7D E0 50           ADC $50E0,X
17CC  9D 98 50           STA $5098,X
17CF  BD D0 50   L00163  LDA $50D0,X
17D2  18                 CLC
17D3  7D C0 50           ADC $50C0,X
17D6  9D D0 50           STA $50D0,X
17D9  BD A0 50           LDA $50A0,X
17DC  7D E8 50           ADC $50E8,X
17DF  9D A0 50           STA $50A0,X         ; Calculate new sprite Y-POS
17E2  8A                 TXA
17E3  F0 30              BEQ L00167
17E5  BD 88 50           LDA $5088,X
17E8  DD 98 50           CMP $5098,X
17EB  90 0A              BCC L00164
17ED  BD 80 50           LDA $5080,X
17F0  DD 98 50           CMP $5098,X
17F3  F0 08              BEQ L00165
17F5  90 06              BCC L00165
17F7  9D 98 50   L00164  STA $5098,X
17FA  20 26 1A           JSR L00204
17FD  BD 78 50   L00165  LDA $5078,X
1800  DD A0 50           CMP $50A0,X
1803  90 0A              BCC L00166
1805  BD 70 50           LDA $5070,X
1808  DD A0 50           CMP $50A0,X
180B  F0 08              BEQ L00167
180D  90 06              BCC L00167
180F  9D A0 50   L00166  STA $50A0,X
1812  20 3C 1A           JSR L00205
1815  20 82 1A   L00167  JSR L00214
1818  CA                 DEX
1819  30 03              BMI L00168
181B  4C 84 17           JMP L00158
181E  24 B0      L00168  BIT $B0
1820  10 4E              BPL L00171
1822  AD C0 50           LDA $50C0
1825  18                 CLC
1826  69 48              ADC #$48
1828  8D C0 50           STA $50C0
182B  AD E8 50           LDA $50E8
182E  69 00              ADC #$00
1830  8D E8 50           STA $50E8
1833  30 3B              BMI L00171
1835  A2 00              LDX #$00
1837  20 F9 1A           JSR L00228
183A  C9 FE              CMP #$FE
183C  F0 08              BEQ L00169
183E  C9 FC              CMP #$FC
1840  B0 2E              BCS L00171
1842  C9 20              CMP #$20
1844  F0 2A              BEQ L00171          ; If changed to '1844  EA EA' Hero will hang in air when jumping up
1846  AD E8 50   L00169  LDA $50E8
1849  C9 05              CMP #$05
184B  90 06              BCC L00170
184D  20 B8 19           JSR L00194
1850  4C 46 1B           JMP L00232          ; Play Sound Effect
1853  A9 00      L00170  LDA #$00
1855  85 B0              STA $B0
1857  85 B1              STA $B1
1859  20 50 19           JSR L00185
185C  AD A0 50           LDA $50A0           ; Hero Y-POS
185F  18                 CLC
1860  69 03              ADC #$03
1862  29 F8              AND #$F8
1864  38                 SEC
1865  E9 03              SBC #$03
1867  8D A0 50           STA $50A0           ; Hero Y-POS
186A  A9 05              LDA #$05
186C  F0 02              BEQ L00171
186E  85 AA              STA $AA
1870  A5 B0      L00171  LDA $B0
1872  C9 01              CMP #$01
1874  D0 35              BNE L00174
1876  A2 00              LDX #$00
1878  A5 B1              LDA $B1
187A  C9 01              CMP #$01
187C  F0 0E              BEQ L00172
187E  C9 02              CMP #$02
1880  D0 29              BNE L00174
1882  20 F9 1A           JSR L00228
1885  C9 FE              CMP #$FE
1887  B0 22              BCS L00174
1889  4C 93 18           JMP L00173
188C  20 FC 1A   L00172  JSR L00229
188F  C9 FE              CMP #$FE
1891  B0 18              BCS L00174
1893  A9 00      L00173  LDA #$00
1895  85 B0              STA $B0
1897  85 B1              STA $B1
1899  20 50 19           JSR L00185
189C  AD 43 19           LDA $1943
189F  8D 00 50           STA $5000
18A2  8D F8 07           STA $07F8
18A5  A9 05              LDA #$05
18A7  F0 02              BEQ L00174
18A9  85 AA              STA $AA
18AB  A9 0A      L00174  LDA #$0A
18AD  CD 98 50           CMP $5098           ; Hero X-POS
18B0  90 0C              BCC L00175
18B2  F0 0A              BEQ L00175
18B4  A4 B0              LDY $B0
18B6  30 5F              BMI L00181
18B8  C6 02              DEC $02             ; Decrease ROOM (by going left)
18BA  A9 A3              LDA #$A3
18BC  D0 0F              BNE L00176
18BE  A9 A3      L00175  LDA #$A3
18C0  CD 98 50           CMP $5098           ; Hero X-POS
18C3  B0 0D              BCS L00177
18C5  A4 B0              LDY $B0
18C7  30 4E              BMI L00181
18C9  E6 02              INC $02             ; Increase ROOM (by going right)
18CB  A9 0A              LDA #$0A
18CD  8D 98 50   L00176  STA $5098           ; Hero X-POS
18D0  D0 37              BNE L00180
18D2  A9 2D      L00177  LDA #$2D
18D4  CD A0 50           CMP $50A0           ; Hero Y-POS
18D7  90 19              BCC L00179
18D9  F0 17              BEQ L00179
18DB  A4 B0              LDY $B0
18DD  10 05              BPL L00178
18DF  8D A0 50           STA $50A0           ; Hero Y-POS
18E2  30 40              BMI L00182
18E4  A5 02      L00178  LDA $02             ; ROOM
18E6  18                 CLC
18E7  69 04              ADC #$04
18E9  85 02              STA $02             ; Increase ROOM (by going up)
18EB  A9 CB              LDA #$CB
18ED  8D A0 50           STA $50A0           ; Hero Y-POS
18F0  D0 17              BNE L00180
18F2  A9 CB      L00179  LDA #$CB
18F4  CD A0 50           CMP $50A0           ; Hero Y-POS
18F7  B0 33              BCS L00183
18F9  A4 B0              LDY $B0
18FB  30 32              BMI L00184
18FD  A5 02              LDA $02             ; ROOM
18FF  38                 SEC
1900  E9 04              SBC #$04
1902  85 02              STA $02             ; Decrease ROOM (by going down)
1904  A9 2D              LDA #$2D
1906  8D A0 50           STA $50A0           ; Hero Y-POS
1909  A9 4C      L00180  LDA #$4C
190B  8D CA 15           STA $15CA           ; Change 15CA BIT $1B46 to 15CA JMP $1B46
190E  A9 00              LDA #$00
1910  85 B3              STA $B3             ; Save ACTION
1912  8D 15 D0           STA $D015           ; SPRITE DISPLAY
1915  F0 15              BEQ L00183
1917  8D 98 50   L00181  STA $5098           ; Hero X-POS
191A  A9 00              LDA #$00
191C  8D E0 50           STA $50E0
191F  8D B8 50           STA $50B8
1922  F0 08              BEQ L00183
1924  A9 00      L00182  LDA #$00
1926  8D E8 50           STA $50E8
1929  8D C0 50           STA $50C0
192C  4C 46 1B   L00183  JMP L00232          ; Play Sound Effect
192F  A2 00      L00184  LDX #$00
1931  20 9D 19           JSR L00191
1934  A9 03              LDA #$03
1936  85 B3              STA $B3             ; Save ACTION
1938  A9 4C              LDA #$4C
193A  8D CA 15           STA $15CA           ; Change 15CA BIT $1B46 to 15CA JMP $1B46
193D  D0                 BNE L00183          ; Unconditional jump (Branch is always taken)
                 ;________________________________________
193F  00                 BYTE $00            ; 0         
1940  25                 BYTE $25            ; Start frame climbing up?/down?
1941  25                 BYTE $25            ; Start frame climbing up?/down?
1942  23                 BYTE $23            ; Start frame walking left
1943  21                 BYTE $21            ; Start frame walking right
1944  01                 BYTE $01            ; 1        a
1945  02                 BYTE $02            ; 2        b
1946  02                 BYTE $02            ; 2        b
1947  02                 BYTE $02            ; 2        b
1948  02                 BYTE $02            ; Walking right cycle is 2 frames long
1949  00                 BYTE $00            ; 0         
194A  00                 BYTE $00            ; 0         
194B  00                 BYTE $00            ; 0         
194C  FC                 BYTE $FC            ; 252      GFX
194D  04                 BYTE $04            ; 4        d
194E  00                 BYTE $00            ; 0         
194F  00                 BYTE $00            ; 0         
                 ;________________________________________
1950  A6 B1      L00185  LDX $B1             ; Animation number
1952  BD 3F 19           LDA $193F,X
1955  F0 06              BEQ L00186
1957  8D 00 50           STA $5000
195A  8D F8 07           STA $07F8           ; Start walking frame ???
195D  BD 44 19   L00186  LDA $1944,X
1960  8D 10 50           STA $5010
1963  8D B0 50           STA $50B0           ; Save animation length
1966  A9 04              LDA #$04
1968  8D 08 50           STA $5008
196B  A9 00              LDA #$00
196D  8D A8 50           STA $50A8
1970  BC 49 19           LDY $1949,X
1973  BD 4B 19           LDA $194B,X
1976  A2 00              LDX #$00
1978  20 0E 1A   L00187  JSR L00202
197B  98                 TYA
197C  20 8A 19           JSR L00188
197F  9D E0 50           STA $50E0,X
1982  A5 A9              LDA $A9
1984  29 C0              AND #$C0
1986  9D B8 50           STA $50B8,X
1989  60                 RTS
                 ;________________________________________
198A  18         L00188  CLC
198B  69 80              ADC #$80
198D  4A                 LSR
198E  66 A9              ROR $A9
1990  4A                 LSR
1991  66 A9              ROR $A9
1993  38                 SEC
1994  E9 20              SBC #$20
1996  60         L00189  RTS
                 ;________________________________________
1997  A8         L00190  TAY
1998  F0 FC              BEQ L00189          ; Exit if ACTION is $00
199A  88                 DEY
199B  D0 18              BNE L00193          ; Branch if ACTION is greater than $01
199D  AD 15 D0   L00191  LDA $D015           ; SPRITE DISPLAY
19A0  3D 3E 1B           AND $1B3E,X
19A3  8D 15 D0           STA $D015           ; SPRITE DISPLAY
19A6  8A                 TXA
19A7  F0 0B              BEQ L00192
19A9  A4 02              LDY $02             ; ROOM
19AB  B9 00 60           LDA $6000,Y         ; Sprites still in room (not picked up or killed)
19AE  3D 3E 1B           AND $1B3E,X
19B1  99 00 60           STA $6000,Y         ; Sprites still in room (not picked up or killed)
19B4  60         L00192  RTS
19B5  88         L00193  DEY
19B6  D0 0A              BNE L00195          ; Branch if ACTION is greater than $02
19B8  A9 4C      L00194  LDA #$4C            ; Here ACTION is $02 (You touched a Marshmallow)
19BA  8D CA 15           STA $15CA           ; Change 15CA BIT $1B46 to 15CA JMP $1B46
19BD  A9 02              LDA #$02
19BF  85 B3              STA $B3             ; Save ACTION
19C1  60                 RTS
19C2  88         L00195  DEY
19C3  D0 0C              BNE L00197          ; Branch if ACTION is greater than $03
19C5  A5 B8              LDA $B8             ; KEYS (Here ACTION is $03 - You picked up a key)
19C7  C9 0A              CMP #$0A
19C9  B0 05              BCS L00196          ; If KEYS = 9 then don't increase KEYS
19CB  E6 B8              INC $B8             ; Increase KEYS
19CD  38                 SEC
19CE  66 B9              ROR $B9
19D0  60         L00196  RTS
19D1  88         L00197  DEY
19D2  D0 13              BNE L00199          ; Branch if ACTION is greater than $04
19D4  A5 B8              LDA $B8             ; KEYS (Here ACTION is $04 - Try to open door)
19D6  F0 0A              BEQ L00198          ; If KEYS = 0 then do LDA #$07 instruction
19D8  C6 B8              DEC $B8             ; DECREASE KEYS
19DA  A9 64              LDA #$64
19DC  20 BE 1A           JSR L00216
19DF  A9 08              LDA #$08
19E1  2C                 BYTE $2C            ; BIT $07A9
19E2  A9         L00198  BYTE $A9            ; LDA #$07
19E3  07                 BYTE $07
19E4  85 A3              STA $A3             ; $A3 will be #$07 or #$08
19E6  60                 RTS
19E7  88         L00199  DEY
19E8  D0 1F              BNE L00201          ; Branch if ACTION is greater than $05
19EA  A5 B8              LDA $B8             ; KEYS
19EC  D0 AF              BNE L00191
19EE  A9 00              LDA #$00
19F0  8D B8 50           STA $50B8
19F3  8D E0 50           STA $50E0
19F6  A9 05              LDA #$05
19F8  BC 98 50           LDY $5098,X
19FB  CC 98 50           CPY $5098           ; Hero X-POS
19FE  90 02              BCC L00200
1A00  A9 FA              LDA #$FA
1A02  7D 98 50   L00200  ADC $5098,X
1A05  8D 98 50           STA $5098           ; Hero X-POS
1A08  60                 RTS
1A09  88         L00201  DEY
1A0A  D0 10              BNE L00203          ; Branch if ACTION is greater than $06
1A0C  A9 E9              LDA #$E9
1A0E  20 8A 19   L00202  JSR L00188
1A11  9D E8 50           STA $50E8,X
1A14  A5 A9              LDA $A9
1A16  29 C0              AND #$C0
1A18  9D C0 50           STA $50C0,X
1A1B  60                 RTS
1A1C  A9 01      L00203  LDA #$01
1A1E  85 B3              STA $B3             ; Save ACTION
1A20  A9 4C              LDA #$4C
1A22  8D CA 15           STA $15CA           ; Change 15CA BIT $1B46 to 15CA JMP $1B46
1A25  60                 RTS
                 ;________________________________________
1A26  BD B8 50   L00204  LDA $50B8,X
1A29  49 FF              EOR #$FF
1A2B  18                 CLC
1A2C  69 01              ADC #$01
1A2E  9D B8 50           STA $50B8,X
1A31  BD E0 50           LDA $50E0,X
1A34  49 FF              EOR #$FF
1A36  69 00              ADC #$00
1A38  9D E0 50           STA $50E0,X
1A3B  60                 RTS
                 ;________________________________________
1A3C  BD C0 50   L00205  LDA $50C0,X
1A3F  49 FF              EOR #$FF
1A41  18                 CLC
1A42  69 01              ADC #$01
1A44  9D C0 50           STA $50C0,X
1A47  BD E8 50           LDA $50E8,X
1A4A  49 FF              EOR #$FF
1A4C  69 00              ADC #$00
1A4E  9D E8 50           STA $50E8,X
1A51  60                 RTS
                 ;________________________________________
1A52  BD 00 50   L00206  LDA $5000,X
1A55  9D F8 07           STA $07F8,X         ; First frame in sprite animation cycle
1A58  BD 08 50           LDA $5008,X
1A5B  9D A8 50           STA $50A8,X
1A5E  BD 10 50           LDA $5010,X
1A61  D0 02              BNE L00207
1A63  A9 01              LDA #$01
1A65  9D B0 50   L00207  STA $50B0,X
1A68  60                 RTS
                 ;________________________________________
1A69  A0 1C      L00208  LDY #$1C            ; Sprite Multicolor Mode register
1A6B  2C                 BYTE $2C            ; BIT $1DA0
1A6C  A0         L00209  BYTE $A0            ; LDY #$1D
1A6D  1D                 BYTE $1D            ; Sprite X-Expand register
1A6E  4A         L00210  LSR
1A6F  B9 00 D0   L00211  LDA $D000,Y
1A72  3D 3E 1B           AND $1B3E,X
1A75  90 03              BCC L00212
1A77  1D 36 1B           ORA $1B36,X
1A7A  99 00 D0   L00212  STA $D000,Y
1A7D  60                 RTS
                 ;________________________________________
1A7E  A0 17      L00213  LDY #$17
1A80  D0 EC              BNE L00210
1A82  8A         L00214  TXA
1A83  0A                 ASL
1A84  A8                 TAY
1A85  BD C8 50           LDA $50C8,X
1A88  0A                 ASL
1A89  BD 98 50           LDA $5098,X
1A8C  2A                 ROL
1A8D  99 00 D0           STA $D000,Y
1A90  BD A0 50           LDA $50A0,X         ; X = Sprite number
1A93  99 01 D0           STA $D001,Y
1A96  A0 10              LDY #$10
1A98  D0 D5              BNE L00211          ; Unconditional jump (Branch is always taken)
                 ;________________________________________
1A9A  BC 60 50   L00215  LDY $5060,X         ; Reads $5060+$05 = $5065
1A9D  BD 68 50           LDA $5068,X         ; Reads $5068+$05 = $506D
1AA0  20 78 19           JSR L00187
1AA3  20 52 1A           JSR L00206
1AA6  BD 18 50           LDA $5018,X         ; Probably color
1AA9  9D 27 D0           STA $D027,X
1AAC  BD 20 50           LDA $5020,X
1AAF  20 69 1A           JSR L00208
1AB2  BD 28 50           LDA $5028,X
1AB5  20 6C 1A           JSR L00209
1AB8  BD 30 50           LDA $5030,X
1ABB  4C 7E 1A           JMP L00213
                 ;________________________________________
1ABE  18         L00216  CLC
1ABF  65 F7              ADC $F7
1AC1  85 F7              STA $F7
1AC3  90 02              BCC L00217
1AC5  E6 F8              INC $F8
1AC7  38         L00217  SEC
1AC8  66 B9              ROR $B9
1ACA  60                 RTS
                 ;________________________________________
1ACB  A9 0A      L00218  LDA #$0A
1ACD  BC E0 50           LDY $50E0,X
1AD0  30 02              BMI L00219
1AD2  A9 04              LDA #$04
1AD4  A0 1E      L00219  LDY #$1E
1AD6  D0 0C              BNE L00223
1AD8  BC E0 50   L00220  LDY $50E0,X
1ADB  10 03              BPL L00222
1ADD  A9 0E      L00221  LDA #$0E
1ADF  2C                 BYTE $2C            ; BIT $00A9
1AE0  A9         L00222  BYTE $A9            ; LDA #$00
1AE1  00                 BYTE $00
1AE2  A0 1D              LDY #$1D
1AE4  20 00 1B   L00223  JSR L00230
1AE7  C9 20              CMP #$20            ; Is Hero standing on solid ground?
1AE9  F0 06      L00224  BEQ L00225
1AEB  C9 FE              CMP #$FE            ; Top of ladder
1AED  F0 03              BEQ L00226
1AEF  C9 FC              CMP #$FC            ; Left side of ladder
1AF1  60         L00225  RTS
1AF2  18         L00226  CLC
1AF3  60                 RTS
                 ;________________________________________
1AF4  BD E8 50   L00227  LDA $50E8,X
1AF7  30 03              BMI L00229
1AF9  A0 1D      L00228  LDY #$1D
1AFB  2C                 BYTE $2C            ; BIT $1EA0
1AFC  A0         L00229  BYTE $A0            ; LDY #$1E
1AFD  1E                 BYTE $1E
1AFE  A9 07              LDA #$07
1B00  8D 0B 1B   L00230  STA $1B0B           ; Also called from instruction at $1AE4
1B03  8C 19 1B           STY $1B19
1B06  BD 98 50           LDA $5098,X         ; = Hero X-POS if X-reg. is #$00
1B09  38                 SEC
1B0A  E9 00              SBC #$00            ; This value is changed in instruction at $1B00
1B0C  4A                 LSR                 ; Divide by 2
1B0D  4A                 LSR                 ; Divide by 2
1B0E  A8                 TAY                 ; Y-reg. = (Hero X-POS - 7) / 4  (If X-reg. was #$00)
1B0F  A9 01              LDA #$01
1B11  8D 34 1B           STA $1B34
1B14  BD A0 50           LDA $50A0,X         ; = Hero Y-POS if X-reg. is #$00
1B17  38                 SEC
1B18  E9 00              SBC #$00            ; This value is changed in instruction at $1B03
1B1A  29 F8              AND #$F8
1B1C  8D 33 1B           STA $1B33
1B1F  0A                 ASL
1B20  2E 34 1B           ROL $1B34
1B23  0A                 ASL
1B24  2E 34 1B           ROL $1B34
1B27  6D 33 1B           ADC $1B33
1B2A  8D 33 1B           STA $1B33
1B2D  90 03              BCC L00231
1B2F  EE 34 1B           INC $1B34
1B32  B9 FF FF   L00231  LDA $FFFF,Y         ; This address is changed in $1B11, $1B1C, $1B20, $1B24 and $1B2A and $1B2F
1B35  60                 RTS
                 ;________________________________________
1B36  01                 BYTE $01            ; 1        a
1B37  02                 BYTE $02            ; 2        b
1B38  04                 BYTE $04            ; 4        d
1B39  08                 BYTE $08
1B3A  10                 BYTE $10
1B3B  20                 BYTE $20
1B3C  40                 BYTE $40            ; 64       GFX
1B3D  80                 BYTE $80            ; 128       
1B3E  FE                 BYTE $FE            ; 254      GFX
1B3F  FD                 BYTE $FD            ; 253      GFX
1B40  FB                 BYTE $FB            ; 251      GFX
1B41  F7                 BYTE $F7            ; 247      GFX
1B42  EF                 BYTE $EF            ; 239      GFX
1B43  DF                 BYTE $DF            ; 223      GFX
1B44  BF                 BYTE $BF            ; 191      ?
1B45  7F                 BYTE $7F            ; 127      GFX
                 ;________________________________________
                 ;
                 ;    Play Sound Effect
                 ;
1B46  A2         L00232  LDX #$0D
1B48  BD         L00233  LDA $50F8,X
1B4B  9D                 STA $D400,X         ; Update SID Voice 1 and Voice 2 registers with precalculated values
1B4E  CA                 DEX
1B4F  10 F7              BPL L00233
1B51  A2 07              LDX #$07
1B53  B4 A3      L00234  LDY $A3,X           ; Is there a predetermined Sound Effect?
1B55  F0 40              BEQ L00237          ; No, then branch
1B57  88                 DEY
1B58  98                 TYA
1B59  8D 60 1B           STA $1B60
1B5C  0A         L00235  ASL
1B5D  0A                 ASL
1B5E  0A                 ASL
1B5F  69 00              ADC #$00            ; This value is changed in instruction $1B59
1B61  A8                 TAY                 ; Y now holds 9 times the value in $A3,X
1B62  A9 00              LDA #$00
1B64  95 A3              STA $A3,X
1B66  9D 05 D4           STA $D405,X
1B69  9D 06 D4           STA $D406,X
1B6C  BD FC 50           LDA $50FC,X
1B6F  29 FE              AND #$FE
1B71  9D 04 D4           STA $D404,X
1B74  A9 07              LDA #$07
1B76  85 A6              STA $A6
1B78  8E 88 1B           STX $1B88
1B7B  B9 C3 1B   L00236  LDA $1BC3,Y
1B7E  9D F8 50           STA $50F8,X         ; Save parameters for predetermined Sound Effect
1B81  C8                 INY
1B82  E8                 INX
1B83  C6 A6              DEC $A6
1B85  D0 F4              BNE L00236
1B87  A2 00              LDX #$00            ; This value is changed in instruction $1B78
1B89  B9 C3 1B           LDA $1BC3,Y
1B8C  95 A5              STA $A5,X           ; Save parameter for predetermined Sound Effect
1B8E  C8                 INY
1B8F  B9 C3 1B           LDA $1BC3,Y
1B92  95 A4              STA $A4,X           ; Save parameter for predetermined Sound Effect
1B94  4C B9 1B           JMP L00239
1B97  D6 A4      L00237  DEC $A4,X
1B99  D0 08              BNE L00238
1B9B  BD FC 50           LDA $50FC,X         ; Voice #1 control register
1B9E  29 FE              AND #$FE            ; Turn off oscillator
1BA0  9D FC 50           STA $50FC,X         ; Voice #1 control register
1BA3  BD F9 50   L00238  LDA $50F9,X         ; Voice #1 Frequency HI byte
1BA6  18                 CLC
1BA7  75 A5              ADC $A5,X
1BA9  9D F9 50           STA $50F9,X         ; Voice #1 Frequency HI byte
1BAC  6A                 ROR
1BAD  55 A5              EOR $A5,X
1BAF  10 08              BPL L00239
1BB1  A9 00              LDA #$00
1BB3  9D 06 D4           STA $D406,X
1BB6  9D FE 50           STA $50FE,X
1BB9  8A         L00239  TXA
1BBA  F0 04              BEQ L00240
1BBC  A2 00              LDX #$00
1BBE  F0 93              BEQ L00234
1BC0  4C 31 EA   L00240  JMP $EA31
                 ;________________________________________
                 ;
                 ;    You are killed Sound Effect
                 ;
1BC3  00                 BYTE $00            ; Voice 2 Frequency LO byte
1BC4  02                 BYTE $02            ; Voice 2 Frequency HI byte
1BC5  00                 BYTE $00            ; Voice 2 Pulse Width LO byte
1BC6  08                 BYTE $08            ; Voice 2 Pulse Width HI byte
1BC7  81                 BYTE $81            ; Voice 2 Control Register
1BC8  00                 BYTE $00            ; Voice 2 Attack and Decay
1BC9  FA                 BYTE $FA            ; Voice 2 Sustain and Release
1BCA  00                 BYTE $00            ; Amount to increase Frequency by
1BCB  05                 BYTE $05            ; Duration of each Frequency
                 ;________________________________________
                 ;
                 ;    Walking Sound Effect
                 ;
1BCC  00                 BYTE $00            ; Voice 2 Frequency LO byte
1BCD  11                 BYTE $11            ; Voice 2 Frequency HI byte
1BCE  00                 BYTE $00            ; Voice 2 Pulse Width LO byte
1BCF  08                 BYTE $08            ; Voice 2 Pulse Width HI byte
1BD0  81                 BYTE $81            ; Voice 2 Control Register
1BD1  20                 BYTE $20            ; Voice 2 Attack and Decay
1BD2  65                 BYTE $65            ; Voice 2 Sustain and Release
1BD3  00                 BYTE $00            ; Amount to increase Frequency by
1BD4  02                 BYTE $02            ; Duration of each Frequency
                 ;________________________________________
                 ;
                 ;    Jumping Sound Effect
                 ;
1BD5  00                 BYTE $00            ; Voice 2 Frequency LO byte
1BD6  08                 BYTE $08            ; Voice 2 Frequency HI byte
1BD7  00                 BYTE $00            ; Voice 2 Pulse Width LO byte
1BD8  08                 BYTE $08            ; Voice 2 Pulse Width HI byte
1BD9  41                 BYTE $41            ; Voice 2 Control Register
1BDA  00                 BYTE $00            ; Voice 2 Attack and Decay
1BDB  FF                 BYTE $FF            ; Voice 2 Sustain and Release
1BDC  06                 BYTE $06            ; Amount to increase Frequency by
1BDD  03                 BYTE $03            ; Duration of each Frequency
                 ;________________________________________
                 ;
                 ;    Fall Sound Effect
                 ;
1BDE  00                 BYTE $00            ; Voice 2 Frequency LO byte
1BDF  86                 BYTE $86            ; Voice 2 Frequency HI byte
1BE0  00                 BYTE $00            ; Voice 2 Pulse Width LO byte
1BE1  08                 BYTE $08            ; Voice 2 Pulse Width HI byte
1BE2  41                 BYTE $41            ; Voice 2 Control Register
1BE3  00                 BYTE $00            ; Voice 2 Attack and Decay
1BE4  FF                 BYTE $FF            ; Voice 2 Sustain and Release
1BE5  FC                 BYTE $FC            ; Amount to increase Frequency by
1BE6  03                 BYTE $03            ; Duration of each Frequency
                 ;________________________________________
                 ;
                 ;    Landing Sound Effect
                 ;
1BE7  00                 BYTE $00            ; Voice 2 Frequency LO byte
1BE8  8E                 BYTE $8E            ; Voice 2 Frequency HI byte
1BE9  00                 BYTE $00            ; Voice 2 Pulse Width LO byte
1BEA  08                 BYTE $08            ; Voice 2 Pulse Width HI byte
1BEB  81                 BYTE $81            ; Voice 2 Control Register
1BEC  00                 BYTE $00            ; Voice 2 Attack and Decay
1BED  F5                 BYTE $F5            ; Voice 2 Sustain and Release
1BEE  00                 BYTE $00            ; Amount to increase Frequency by
1BEF  02                 BYTE $02            ; Duration of each Frequency
                 ;________________________________________
                 ;
                 ;    Cherries/Flower pick up Sound Effect
                 ;
1BF0  00                 BYTE $00            ; Voice 1 Frequency LO byte
1BF1  C0                 BYTE $C0            ; Voice 1 Frequency HI byte
1BF2  00                 BYTE $00            ; Voice 1 Pulse Width LO byte
1BF3  08                 BYTE $08            ; Voice 1 Pulse Width HI byte
1BF4  41                 BYTE $41            ; Voice 1 Control Register
1BF5  00                 BYTE $00            ; Voice 1 Attack and Decay
1BF6  F3                 BYTE $F3            ; Voice 1 Sustain and Release
1BF7  F2                 BYTE $F2            ; Amount to increase Frequency by
1BF8  0D                 BYTE $0D            ; Duration of each Frequency
                 ;________________________________________
                 ;
                 ;    You can't open door Sound Effect
                 ;
1BF9  00                 BYTE $00            ; Voice 1 Frequency LO byte
1BFA  03                 BYTE $03            ; Voice 1 Frequency HI byte
1BFB  00                 BYTE $00            ; Voice 1 Pulse Width LO byte
1BFC  08                 BYTE $08            ; Voice 1 Pulse Width HI byte
1BFD  21                 BYTE $21            ; Voice 1 Control Register
1BFE  10                 BYTE $10            ; Voice 1 Attack and Decay
1BFF  F3                 BYTE $F3            ; Voice 1 Sustain and Release
1C00  00                 BYTE $00            ; Amount to increase Frequency by
1C01  10                 BYTE $10            ; Duration of each Frequency
                 ;________________________________________
                 ;
                 ;    Open door Sound Effect
                 ;
1C02  00                 BYTE $00            ; Voice 1 Frequency LO byte
1C03  30                 BYTE $30            ; Voice 1 Frequency HI byte
1C04  00                 BYTE $00            ; Voice 1 Pulse Width LO byte
1C05  08                 BYTE $08            ; Voice 1 Pulse Width HI byte
1C06  41                 BYTE $41            ; Voice 1 Control Register
1C07  02                 BYTE $02            ; Voice 1 Attack and Decay
1C08  FA                 BYTE $FA            ; Voice 1 Sustain and Release
1C09  00                 BYTE $00            ; Amount to increase Frequency by
1C0A  06                 BYTE $06            ; Duration of each Frequency
                 ;________________________________________
                 ;
                 ;    Key pick up Sound Effect
                 ;
1C0B  00                 BYTE $00            ; Voice 1 Frequency LO byte
1C0C  09                 BYTE $09            ; Voice 1 Frequency HI byte
1C0D  00                 BYTE $00            ; Voice 1 Pulse Width LO byte
1C0E  08                 BYTE $08            ; Voice 1 Pulse Width HI byte
1C0F  21                 BYTE $21            ; Voice 1 Control Register
1C10  00                 BYTE $00            ; Voice 1 Attack and Decay
1C11  F9                 BYTE $F9            ; Voice 1 Sustain and Release
1C12  00                 BYTE $00            ; Amount to increase Frequency by
1C13  14                 BYTE $14            ; Duration of each Frequency
                 ;________________________________________
                 ;
                 ;    Bell Sound Effect
                 ;
1C14  00                 BYTE $00            ; Voice 1 Frequency LO byte
1C15  0A                 BYTE $0A            ; Voice 1 Frequency HI byte
1C16  00                 BYTE $00            ; Voice 1 Pulse Width LO byte
1C17  08                 BYTE $08            ; Voice 1 Pulse Width HI byte
1C18  15                 BYTE $15            ; Voice 1 Control Register
1C19  00                 BYTE $00            ; Voice 1 Attack and Decay
1C1A  FC                 BYTE $FC            ; Voice 1 Sustain and Release
1C1B  00                 BYTE $00            ; Amount to increase Frequency by
1C1C  01                 BYTE $01            ; Duration of each Frequency
                 ;________________________________________
1C1D  00                 BYTE $00            ; 0         
1C1E  00                 BYTE $00            ; 0         
1C1F  00                 BYTE $00            ; 0         
1C20  00                 BYTE $00            ; 0         
