                 *= $0C00

0C00  A9 93      L00001  LDA #$93
0C02  20 D2 FF           JSR $FFD2           ; Clear screen via CHROUT
0C05  AD 18 D0           LDA $D018           ; VIC MEMORY CONTROL REGISTER
0C08  29 F0              AND #$F0
0C0A  09 04              ORA #$04            ; Chars at $1000 (Default)
0C0C  8D 18 D0           STA $D018           ; VIC MEMORY CONTROL REGISTER
0C0F  AD 16 D0           LDA $D016           ; VIC CONTROL REGISTER 2
0C12  29 EF              AND #$EF            ; MCM OFF
0C14  8D 16 D0           STA $D016
0C17  A9 29              LDA #$29
0C19  85 4E              STA $4E
0C1B  A9 04              LDA #$04
0C1D  85 4F              STA $4F
0C1F  A9 01              LDA #$01
0C21  20 87 95           JSR L01417          ; Set Color RAM and Background Color to BLACK
0C24  A2 00              LDX #$00
0C26  A0 00      L00005  LDY #$00
0C28  BD 00 0D   L00006  LDA $0D00,X
0C2B  91 4E              STA ($4E),Y         ; Show End text on screen
0C2D  E8                 INX
0C2E  D0 03              BNE L00007
0C30  4C 46 0C           JMP L00010
0C33  C8         L00007  INY
0C34  C0 11              CPY #$11
0C36  D0 F0              BNE L00006
0C38  18                 CLC
0C39  A5 4E              LDA $4E
0C3B  69 28              ADC #$28
0C3D  85 4E              STA $4E
0C3F  90 02              BCC L00009
0C41  E6 4F              INC $4F
0C43  4C 26 0C   L00009  JMP L00005
0C46  F8         L00010  SED                 ; Calculate score
0C47  18                 CLC
0C48  AD F8 9F           LDA $9FF8
0C4B  69 25              ADC #$25
0C4D  E5 1F              SBC $1F
0C4F  E5 09              SBC $09             ; 2 * No. of tombstones
0C51  ED F9 9F           SBC $9FF9           ; 2 * Initial no. of lives
0C54  8D F8 9F           STA $9FF8
0C57  18                 CLC
0C58  AD F8 9F           LDA $9FF8
0C5B  29 0F              AND #$0F
0C5D  69 30              ADC #$30
0C5F  8D 1A 05           STA $051A           ; Show score digit
0C62  A9 07              LDA #$07            ; YELLOW
0C64  8D 1A D9           STA $D91A           ; Colour of digit
0C67  AD F8 9F           LDA $9FF8
0C6A  4A                 LSR
0C6B  4A                 LSR
0C6C  4A                 LSR
0C6D  4A                 LSR
0C6E  F0 0B              BEQ L00011
0C70  18                 CLC
0C71  69 30              ADC #$30
0C73  8D 19 05           STA $0519           ; Show score digit
0C76  A9 07              LDA #$07            ; YELLOW
0C78  8D 19 D9           STA $D919           ; Colour of digit
0C7B  D8         L00011  CLD
0C7C  A2 0E              LDX #$0E
0C7E  A9 07              LDA #$07            ; YELLOW
0C80  9D 1B D9   L00012  STA $D91B,X         ; Colour of digits
0C83  CA                 DEX
0C84  10 FA              BPL L00012
0C86  AD 00 DC   L00013  LDA $DC00           ; JOYSTICK PORT A
0C89  29 1F              AND #$1F
0C8B  49 1F              EOR #$1F
0C8D  C9 10              CMP #$10
0C8F  D0 F5              BNE L00013          ; Wait until only FIRE is pressed
0C91  AD 18 D0           LDA $D018           ; VIC MEMORY CONTROL REGISTER
0C94  29 F0              AND #$F0
0C96  09 0E              ORA #$0E            ; Chars at $3800
0C98  8D 18 D0           STA $D018           ; VIC MEMORY CONTROL REGISTER
0C9B  AD 16 D0           LDA $D016           ; VIC CONTROL REGISTER 2
0C9E  09 10              ORA #$10            ; MCM ON
0CA0  8D 16 D0           STA $D016
0CA3  4C BA 0F           JMP L00069
                 ;________________________________________
0CA6  FF                 BYT $FF             ; 255      GFX
0CA7  02                 BYT $02             ; 2        b
0CA8  FF                 BYT $FF             ; 255      GFX
0CA9  FF                 BYT $FF             ; 255      GFX
0CAA  FF                 BYT $FF             ; 255      GFX
0CAB  EF                 BYT $EF             ; 239      GFX
0CAC  FF                 BYT $FF             ; 255      GFX
0CAD  FF                 BYT $FF             ; 255      GFX
0CAE  FF                 BYT $FF             ; 255      GFX
0CAF  FF                 BYT $FF             ; 255      GFX
0CB0  00                 BYT $00             ; 0         
0CB1  FF                 BYT $FF             ; 255      GFX
0CB2  FF                 BYT $FF             ; 255      GFX
0CB3  EF                 BYT $EF             ; 239      GFX
0CB4  FF                 BYT $FF             ; 255      GFX
0CB5  FF                 BYT $FF             ; 255      GFX
0CB6  FF                 BYT $FF             ; 255      GFX
0CB7  FF                 BYT $FF             ; 255      GFX
0CB8  00                 BYT $00             ; 0         
0CB9  FF                 BYT $FF             ; 255      GFX
0CBA  FF                 BYT $FF             ; 255      GFX
0CBB  00                 BYT $00             ; 0         
0CBC  00                 BYT $00             ; 0         
0CBD  FF                 BYT $FF             ; 255      GFX
0CBE  FF                 BYT $FF             ; 255      GFX
0CBF  FF                 BYT $FF             ; 255      GFX
0CC0  FF                 BYT $FF             ; 255      GFX
0CC1  FF                 BYT $FF             ; 255      GFX
0CC2  FF                 BYT $FF             ; 255      GFX
0CC3  FF                 BYT $FF             ; 255      GFX
0CC4  FF                 BYT $FF             ; 255      GFX
0CC5  FF                 BYT $FF             ; 255      GFX
0CC6  FF                 BYT $FF             ; 255      GFX
0CC7  FF                 BYT $FF             ; 255      GFX
0CC8  FF                 BYT $FF             ; 255      GFX
0CC9  FF                 BYT $FF             ; 255      GFX
0CCA  FF                 BYT $FF             ; 255      GFX
0CCB  FF                 BYT $FF             ; 255      GFX
0CCC  FF                 BYT $FF             ; 255      GFX
0CCD  FF                 BYT $FF             ; 255      GFX
0CCE  FF                 BYT $FF             ; 255      GFX
0CCF  FF                 BYT $FF             ; 255      GFX
0CD0  FF                 BYT $FF             ; 255      GFX
0CD1  55                 BYT $55             ; 85       U
0CD2  FF                 BYT $FF             ; 255      GFX
0CD3  FF                 BYT $FF             ; 255      GFX
0CD4  FF                 BYT $FF             ; 255      GFX
0CD5  FF                 BYT $FF             ; 255      GFX
0CD6  FF                 BYT $FF             ; 255      GFX
0CD7  FF                 BYT $FF             ; 255      GFX
0CD8  FF                 BYT $FF             ; 255      GFX
0CD9  FF                 BYT $FF             ; 255      GFX
0CDA  5F                 BYT $5F             ; 95       GFX
0CDB  FF                 BYT $FF             ; 255      GFX
0CDC  FF                 BYT $FF             ; 255      GFX
0CDD  FF                 BYT $FF             ; 255      GFX
0CDE  FF                 BYT $FF             ; 255      GFX
0CDF  FF                 BYT $FF             ; 255      GFX
0CE0  FF                 BYT $FF             ; 255      GFX
0CE1  FF                 BYT $FF             ; 255      GFX
0CE2  FF                 BYT $FF             ; 255      GFX
0CE3  FF                 BYT $FF             ; 255      GFX
0CE4  FF                 BYT $FF             ; 255      GFX
0CE5  FF                 BYT $FF             ; 255      GFX
0CE6  FF                 BYT $FF             ; 255      GFX
0CE7  FF                 BYT $FF             ; 255      GFX
0CE8  FF                 BYT $FF             ; 255      GFX
0CE9  EF                 BYT $EF             ; 239      GFX
0CEA  FF                 BYT $FF             ; 255      GFX
0CEB  FF                 BYT $FF             ; 255      GFX
0CEC  FF                 BYT $FF             ; 255      GFX
0CED  FF                 BYT $FF             ; 255      GFX
0CEE  FF                 BYT $FF             ; 255      GFX
0CEF  00                 BYT $00             ; 0         
0CF0  FF                 BYT $FF             ; 255      GFX
0CF1  AA                 BYT $AA             ; 170      *
0CF2  FF                 BYT $FF             ; 255      GFX
0CF3  FF                 BYT $FF             ; 255      GFX
0CF4  FF                 BYT $FF             ; 255      GFX
0CF5  FF                 BYT $FF             ; 255      GFX
0CF6  FF                 BYT $FF             ; 255      GFX
0CF7  FF                 BYT $FF             ; 255      GFX
0CF8  70                 BYT $70             ; 112      GFX
0CF9  FB                 BYT $FB             ; 251      GFX
0CFA  FF                 BYT $FF             ; 255      GFX
0CFB  FF                 BYT $FF             ; 255      GFX
0CFC  00                 BYT $00             ; 0         
0CFD  00                 BYT $00             ; 0         
0CFE  FF                 BYT $FF             ; 255      GFX
0CFF  00                 BYT $00             ; 0         
                 ;________________________________________
0D00  09                 BYT $09             ; 9        i
0D01  2C                 BYT $2C             ; 44       ,
0D02  0B                 BYT $0B             ; 11       k
0D03  08                 BYT $08             ; 8        h
0D04  01                 BYT $01             ; 1        a
0D05  06                 BYT $06             ; 6        f
0D06  0B                 BYT $0B             ; 11       k
0D07  01                 BYT $01             ; 1        a
0D08  2C                 BYT $2C             ; 44       ,
0D09  02                 BYT $02             ; 2        b
0D0A  0F                 BYT $0F             ; 15       o
0D0B  17                 BYT $17             ; 23       w
0D0C  20                 BYT $20             ; 32        
0D0D  20                 BYT $20             ; 32        
0D0E  20                 BYT $20             ; 32        
0D0F  20                 BYT $20             ; 32        
0D10  20                 BYT $20             ; 32        
0D11  14                 BYT $14             ; 20       t
0D12  0F                 BYT $0F             ; 15       o
0D13  20                 BYT $20             ; 32        
0D14  19                 BYT $19             ; 25       y
0D15  0F                 BYT $0F             ; 15       o
0D16  15                 BYT $15             ; 21       u
0D17  12                 BYT $12             ; 18       r
0D18  20                 BYT $20             ; 32        
0D19  03                 BYT $03             ; 3        c
0D1A  0F                 BYT $0F             ; 15       o
0D1B  15                 BYT $15             ; 21       u
0D1C  12                 BYT $12             ; 18       r
0D1D  01                 BYT $01             ; 1        a
0D1E  07                 BYT $07             ; 7        g
0D1F  05                 BYT $05             ; 5        e
0D20  2E                 BYT $2E             ; 46       .
0D21  20                 BYT $20             ; 32        
0D22  19                 BYT $19             ; 25       y
0D23  0F                 BYT $0F             ; 15       o
0D24  15                 BYT $15             ; 21       u
0D25  20                 BYT $20             ; 32        
0D26  08                 BYT $08             ; 8        h
0D27  01                 BYT $01             ; 1        a
0D28  16                 BYT $16             ; 22       v
0D29  05                 BYT $05             ; 5        e
0D2A  20                 BYT $20             ; 32        
0D2B  16                 BYT $16             ; 22       v
0D2C  09                 BYT $09             ; 9        i
0D2D  0F                 BYT $0F             ; 15       o
0D2E  0C                 BYT $0C             ; 12       l
0D2F  01                 BYT $01             ; 1        a
0D30  14                 BYT $14             ; 20       t
0D31  05                 BYT $05             ; 5        e
0D32  04                 BYT $04             ; 4        d
0D33  0D                 BYT $0D             ; 13       m
0D34  19                 BYT $19             ; 25       y
0D35  20                 BYT $20             ; 32        
0D36  13                 BYT $13             ; 19       s
0D37  01                 BYT $01             ; 1        a
0D38  03                 BYT $03             ; 3        c
0D39  12                 BYT $12             ; 18       r
0D3A  05                 BYT $05             ; 5        e
0D3B  04                 BYT $04             ; 4        d
0D3C  20                 BYT $20             ; 32        
0D3D  14                 BYT $14             ; 20       t
0D3E  0F                 BYT $0F             ; 15       o
0D3F  0D                 BYT $0D             ; 13       m
0D40  02                 BYT $02             ; 2        b
0D41  20                 BYT $20             ; 32        
0D42  20                 BYT $20             ; 32        
0D43  20                 BYT $20             ; 32        
0D44  01                 BYT $01             ; 1        a
0D45  0E                 BYT $0E             ; 14       n
0D46  04                 BYT $04             ; 4        d
0D47  20                 BYT $20             ; 32        
0D48  13                 BYT $13             ; 19       s
0D49  15                 BYT $15             ; 21       u
0D4A  12                 BYT $12             ; 18       r
0D4B  16                 BYT $16             ; 22       v
0D4C  09                 BYT $09             ; 9        i
0D4D  16                 BYT $16             ; 22       v
0D4E  05                 BYT $05             ; 5        e
0D4F  04                 BYT $04             ; 4        d
0D50  2E                 BYT $2E             ; 46       .
0D51  20                 BYT $20             ; 32        
0D52  20                 BYT $20             ; 32        
0D53  20                 BYT $20             ; 32        
0D54  20                 BYT $20             ; 32        
0D55  01                 BYT $01             ; 1        a
0D56  0E                 BYT $0E             ; 14       n
0D57  04                 BYT $04             ; 4        d
0D58  20                 BYT $20             ; 32        
0D59  19                 BYT $19             ; 25       y
0D5A  0F                 BYT $0F             ; 15       o
0D5B  15                 BYT $15             ; 21       u
0D5C  20                 BYT $20             ; 32        
0D5D  01                 BYT $01             ; 1        a
0D5E  0C                 BYT $0C             ; 12       l
0D5F  13                 BYT $13             ; 19       s
0D60  0F                 BYT $0F             ; 15       o
0D61  20                 BYT $20             ; 32        
0D62  17                 BYT $17             ; 23       w
0D63  0F                 BYT $0F             ; 15       o
0D64  0E                 BYT $0E             ; 14       n
0D65  20                 BYT $20             ; 32        
0D66  20                 BYT $20             ; 32        
0D67  30                 BYT $30             ; 48       0
0D68  30                 BYT $30             ; 48       0
0D69  30                 BYT $30             ; 48       0
0D6A  30                 BYT $30             ; 48       0
0D6B  30                 BYT $30             ; 48       0
0D6C  30                 BYT $30             ; 48       0
0D6D  30                 BYT $30             ; 48       0
0D6E  20                 BYT $20             ; 32        
0D6F  04                 BYT $04             ; 4        d
0D70  12                 BYT $12             ; 18       r
0D71  01                 BYT $01             ; 1        a
0D72  03                 BYT $03             ; 3        c
0D73  0D                 BYT $0D             ; 13       m
0D74  01                 BYT $01             ; 1        a
0D75  13                 BYT $13             ; 19       s
0D76  2E                 BYT $2E             ; 46       .
0D77  02                 BYT $02             ; 2        b
0D78  15                 BYT $15             ; 21       u
0D79  14                 BYT $14             ; 20       t
0D7A  20                 BYT $20             ; 32        
0D7B  02                 BYT $02             ; 2        b
0D7C  05                 BYT $05             ; 5        e
0D7D  20                 BYT $20             ; 32        
0D7E  17                 BYT $17             ; 23       w
0D7F  01                 BYT $01             ; 1        a
0D80  12                 BYT $12             ; 18       r
0D81  0E                 BYT $0E             ; 14       n
0D82  05                 BYT $05             ; 5        e
0D83  04                 BYT $04             ; 4        d
0D84  3A                 BYT $3A             ; 58       :
0D85  20                 BYT $20             ; 32        
0D86  20                 BYT $20             ; 32        
0D87  20                 BYT $20             ; 32        
0D88  04                 BYT $04             ; 4        d
0D89  0F                 BYT $0F             ; 15       o
0D8A  20                 BYT $20             ; 32        
0D8B  0E                 BYT $0E             ; 14       n
0D8C  0F                 BYT $0F             ; 15       o
0D8D  14                 BYT $14             ; 20       t
0D8E  20                 BYT $20             ; 32        
0D8F  14                 BYT $14             ; 20       t
0D90  12                 BYT $12             ; 18       r
0D91  19                 BYT $19             ; 25       y
0D92  20                 BYT $20             ; 32        
0D93  01                 BYT $01             ; 1        a
0D94  07                 BYT $07             ; 7        g
0D95  01                 BYT $01             ; 1        a
0D96  09                 BYT $09             ; 9        i
0D97  0E                 BYT $0E             ; 14       n
0D98  20                 BYT $20             ; 32        
0D99  15                 BYT $15             ; 21       u
0D9A  0E                 BYT $0E             ; 14       n
0D9B  0C                 BYT $0C             ; 12       l
0D9C  05                 BYT $05             ; 5        e
0D9D  13                 BYT $13             ; 19       s
0D9E  13                 BYT $13             ; 19       s
0D9F  20                 BYT $20             ; 32        
0DA0  19                 BYT $19             ; 25       y
0DA1  0F                 BYT $0F             ; 15       o
0DA2  15                 BYT $15             ; 21       u
0DA3  20                 BYT $20             ; 32        
0DA4  17                 BYT $17             ; 23       w
0DA5  09                 BYT $09             ; 9        i
0DA6  13                 BYT $13             ; 19       s
0DA7  08                 BYT $08             ; 8        h
0DA8  20                 BYT $20             ; 32        
0DA9  20                 BYT $20             ; 32        
0DAA  14                 BYT $14             ; 20       t
0DAB  0F                 BYT $0F             ; 15       o
0DAC  20                 BYT $20             ; 32        
0DAD  17                 BYT $17             ; 23       w
0DAE  09                 BYT $09             ; 9        i
0DAF  0E                 BYT $0E             ; 14       n
0DB0  20                 BYT $20             ; 32        
0DB1  12                 BYT $12             ; 18       r
0DB2  05                 BYT $05             ; 5        e
0DB3  01                 BYT $01             ; 1        a
0DB4  0C                 BYT $0C             ; 12       l
0DB5  0C                 BYT $0C             ; 12       l
0DB6  19                 BYT $19             ; 25       y
0DB7  20                 BYT $20             ; 32        
0DB8  02                 BYT $02             ; 2        b
0DB9  09                 BYT $09             ; 9        i
0DBA  07                 BYT $07             ; 7        g
0DBB  02                 BYT $02             ; 2        b
0DBC  15                 BYT $15             ; 21       u
0DBD  03                 BYT $03             ; 3        c
0DBE  0B                 BYT $0B             ; 11       k
0DBF  13                 BYT $13             ; 19       s
0DC0  2E                 BYT $2E             ; 46       .
0DC1  20                 BYT $20             ; 32        
0DC2  20                 BYT $20             ; 32        
0DC3  20                 BYT $20             ; 32        
0DC4  20                 BYT $20             ; 32        
0DC5  20                 BYT $20             ; 32        
0DC6  20                 BYT $20             ; 32        
0DC7  20                 BYT $20             ; 32        
0DC8  20                 BYT $20             ; 32        
0DC9  20                 BYT $20             ; 32        
0DCA  20                 BYT $20             ; 32        
0DCB  20                 BYT $20             ; 32        
0DCC  10                 BYT $10             ; 16       p
0DCD  12                 BYT $12             ; 18       r
0DCE  05                 BYT $05             ; 5        e
0DCF  13                 BYT $13             ; 19       s
0DD0  13                 BYT $13             ; 19       s
0DD1  20                 BYT $20             ; 32        
0DD2  14                 BYT $14             ; 20       t
0DD3  08                 BYT $08             ; 8        h
0DD4  05                 BYT $05             ; 5        e
0DD5  20                 BYT $20             ; 32        
0DD6  06                 BYT $06             ; 6        f
0DD7  09                 BYT $09             ; 9        i
0DD8  12                 BYT $12             ; 18       r
0DD9  05                 BYT $05             ; 5        e
0DDA  20                 BYT $20             ; 32        
0DDB  20                 BYT $20             ; 32        
0DDC  20                 BYT $20             ; 32        
0DDD  02                 BYT $02             ; 2        b
0DDE  16                 BYT $16             ; 22       v
0DDF  14                 BYT $14             ; 20       t
0DE0  14                 BYT $14             ; 20       t
0DE1  0F                 BYT $0F             ; 15       o
0DE2  0E                 BYT $0E             ; 14       n
0DE3  2D                 BYT $2D             ; 45       -
0DE4  20                 BYT $20             ; 32        
0DE5  20                 BYT $20             ; 32        
0DE6  20                 BYT $20             ; 32        
0DE7  20                 BYT $20             ; 32        
0DE8  20                 BYT $20             ; 32        
0DE9  20                 BYT $20             ; 32        
0DEA  20                 BYT $20             ; 32        
0DEB  20                 BYT $20             ; 32        
0DEC  20                 BYT $20             ; 32        
0DED  20                 BYT $20             ; 32        
0DEE  09                 BYT $09             ; 9        i
0DEF  06                 BYT $06             ; 6        f
0DF0  20                 BYT $20             ; 32        
0DF1  19                 BYT $19             ; 25       y
0DF2  0F                 BYT $0F             ; 15       o
0DF3  15                 BYT $15             ; 21       u
0DF4  20                 BYT $20             ; 32        
0DF5  04                 BYT $04             ; 4        d
0DF6  01                 BYT $01             ; 1        a
0DF7  12                 BYT $12             ; 18       r
0DF8  05                 BYT $05             ; 5        e
0DF9  21                 BYT $21             ; 33       !
0DFA  20                 BYT $20             ; 32        
0DFB  20                 BYT $20             ; 32        
0DFC  20                 BYT $20             ; 32        
0DFD  20                 BYT $20             ; 32        
0DFE  20                 BYT $20             ; 32        
0DFF  20                 BYT $20             ; 32        
                 ;________________________________________
0E00  AD 00 D0   L00022  LDA $D000           ; SPRITE 0 X POS
0E03  C9 A6              CMP #$A6
0E05  F0 12              BEQ L00026          ; Branch if $D000 = 166
0E07  90 06              BCC L00025          ; Branch if $D000 < 166
0E09  20 55 15   L00023  JSR L00191          ; Move man left 1 pixel
0E0C  4C 19 0E   L00024  JMP L00026
0E0F  AD 10 D0   L00025  LDA $D010
0E12  29 01              AND #$01            ; IF NOT BIT 0 OFF
0E14  D0 F3              BNE L00023
0E16  20 88 15           JSR L00195          ; Move man right 1 pixel
0E19  AD 01 D0   L00026  LDA $D001           ; SPRITE 0 Y POS
0E1C  C9 70              CMP #$70
0E1E  F0 6A              BEQ L00035          ; Branch if $D001 = 112
0E20  90 0C              BCC L00027          ; Branch if $D001 < 112
0E22  CE 01 D0           DEC $D001           ; SPRITE 0 Y POS
0E25  CE 03 D0           DEC $D003           ; SPRITE 1 Y POS
0E28  CE 05 D0           DEC $D005           ; SPRITE 2 Y POS
0E2B  4C 37 0E           JMP L00028
0E2E  EE 01 D0   L00027  INC $D001           ; SPRITE 0 Y POS
0E31  EE 03 D0           INC $D003           ; SPRITE 1 Y POS
0E34  EE 05 D0           INC $D005           ; SPRITE 2 Y POS
0E37  20 90 0E   L00028  JSR L00036
0E3A  4C 00 0E           JMP L00022
0E3D  A9 07      L00029  LDA #$07
0E3F  8D 1B D0           STA $D01B           ; SPRITE-BACKGROUND PRIORITY
0E42  AD 2A 05   L00030  LDA $052A
0E45  C9 C8              CMP #$C8
0E47  D0 0D              BNE L00032
0E49  A9 D1              LDA #$D1
0E4B  8D 2A 05           STA $052A
0E4E  A9 D2              LDA #$D2
0E50  8D 2B 05           STA $052B
0E53  4C 60 0E           JMP L00033
0E56  A9 C8      L00032  LDA #$C8
0E58  8D 2A 05           STA $052A
0E5B  A9 C9              LDA #$C9
0E5D  8D 2B 05           STA $052B
0E60  CE 01 D0   L00033  DEC $D001           ; SPRITE 0 Y POS
0E63  CE 03 D0           DEC $D003           ; SPRITE 1 Y POS
0E66  CE 05 D0           DEC $D005           ; SPRITE 2 Y POS
0E69  20 96 0E           JSR L00037
0E6C  AD 01 D0           LDA $D001           ; SPRITE 0 Y POS
0E6F  C9 3E              CMP #$3E
0E71  B0 CF              BCS L00030
0E73  A9 C8              LDA #$C8
0E75  8D 2A 05           STA $052A
0E78  A9 C9              LDA #$C9
0E7A  8D 2B 05           STA $052B
0E7D  A9 00              LDA #$00
0E7F  8D 15 D0           STA $D015           ; SPRITE DISPLAY
0E82  A9 10              LDA #$10
0E84  20 B2 91           JSR L01348
0E87  4C 50 95           JMP L01413
0E8A  4C 9C 0E   L00035  JMP L00038
                 ;________________________________________
0E8D  00                 BYT $00
0E8E  00                 BYT $00
0E8F  00                 BYT $00
                 ;________________________________________
0E90  20 80 97   L00036  JSR L01459
0E93  4C 80 9F           JMP L01565          ; Pause
                 ;________________________________________
0E96  20 80 97   L00037  JSR L01459
0E99  4C 95 9F           JMP L01569
                 ;________________________________________
0E9C  AD 00 D0   L00038  LDA $D000           ; SPRITE 0 X POS
0E9F  C9 A6              CMP #$A6
0EA1  F0 9A              BEQ L00029
0EA3  4C 00 0E           JMP L00022
                 ;________________________________________
0EA6  FF                 BYT $FF             ; 255      GFX
0EA7  FF                 BYT $FF             ; 255      GFX
0EA8  FF                 BYT $FF             ; 255      GFX
0EA9  FF                 BYT $FF             ; 255      GFX
0EAA  FF                 BYT $FF             ; 255      GFX
0EAB  FF                 BYT $FF             ; 255      GFX
0EAC  FF                 BYT $FF             ; 255      GFX
0EAD  FF                 BYT $FF             ; 255      GFX
0EAE  FF                 BYT $FF             ; 255      GFX
0EAF  FF                 BYT $FF             ; 255      GFX
                 ;________________________________________
0EB0  AD 1F D0   L00039  LDA $D01F           ; SPRITE-BACKGROUND COLLISION
0EB3  A9 00              LDA #$00
0EB5  85 12              STA $12
0EB7  A2 33              LDX #$33            ; Falling man
0EB9  20 90 11           JSR L00106          ; Set sprite pointers for man
0EBC  A0 07              LDY #$07
0EBE  20 20 11           JSR L00097
0EC1  AD 1F D0   L00040  LDA $D01F           ; SPRITE-BACKGROUND COLLISION
0EC4  29 04              AND #$04            ; IF NOT BIT 2 OFF
0EC6  D0 12              BNE L00041
0EC8  E6 12              INC $12
0ECA  20 C2 99           JSR L01507          ; Scroll screen up and move sprites
0ECD  A5 1A              LDA $1A             ; Was scrolling possible?
0ECF  F0 F0              BEQ L00040
0ED1  20 7E 0F           JSR L00064          ; Move man down 1 pixel
0ED4  20 80 9F           JSR L01565          ; Pause
0ED7  4C C1 0E           JMP L00040
0EDA  A5 12      L00041  LDA $12             ; Sprite 2 collided with foreground
0EDC  C9 90              CMP #$90
0EDE  90 04              BCC L00043          ; Branch if $12 < 144
0EE0  A9 01      L00042  LDA #$01
0EE2  85 1F              STA $1F
0EE4  4C 00 16   L00043  JMP L00207
                 ;________________________________________
0EE7  00                 BYT $00
0EE8  00                 BYT $00
0EE9  00                 BYT $00
0EEA  00                 BYT $00
0EEB  00                 BYT $00
0EEC  00                 BYT $00
0EED  00                 BYT $00
0EEE  00                 BYT $00
0EEF  00                 BYT $00
0EF0  00                 BYT $00
0EF1  00                 BYT $00
0EF2  00                 BYT $00
0EF3  00                 BYT $00
0EF4  00                 BYT $00
0EF5  00                 BYT $00
0EF6  00                 BYT $00
0EF7  00                 BYT $00
0EF8  00                 BYT $00
0EF9  00                 BYT $00
0EFA  00                 BYT $00
0EFB  00                 BYT $00
0EFC  00                 BYT $00
0EFD  00                 BYT $00
0EFE  00                 BYT $00
0EFF  00                 BYT $00
                 ;________________________________________
0F00  AD 00 DC   L00044  LDA $DC00           ; JOYSTICK PORT A
0F03  29 1F      L00045  AND #$1F
0F05  49 1F              EOR #$1F
0F07  F0 50              BEQ L00058
0F09  C9 0B              CMP #$0B
0F0B  B0 4C              BCS L00058
0F0D  85 5E              STA $5E
0F0F  C9 07              CMP #$07
0F11  B0 23              BCS L00054
0F13  A0 50              LDY #$50
0F15  20 5E 0F           JSR L00059
0F18  A5 5E              LDA $5E
0F1A  C9 05              CMP #$05
0F1C  D0 07              BNE L00052
0F1E  20 66 0F           JSR L00060
0F21  20 88 0F   L00051  JSR L00066
0F24  60                 RTS
0F25  C9 06      L00052  CMP #$06
0F27  D0 06              BNE L00053
0F29  20 77 0F           JSR L00063
0F2C  4C 21 0F           JMP L00051
0F2F  C9 04      L00053  CMP #$04
0F31  D0 26              BNE L00058
0F33  4C 21 0F           JMP L00051
0F36  A0 59      L00054  LDY #$59
0F38  20 5E 0F           JSR L00059
0F3B  A5 5E              LDA $5E
0F3D  C9 09              CMP #$09
0F3F  D0 07              BNE L00056
0F41  20 66 0F           JSR L00060
0F44  20 EE 0F   L00055  JSR L00072
0F47  60                 RTS
0F48  C9 0A      L00056  CMP #$0A
0F4A  D0 06              BNE L00057
0F4C  20 77 0F           JSR L00063
0F4F  4C 44 0F           JMP L00055
0F52  C9 08      L00057  CMP #$08
0F54  D0 03              BNE L00058
0F56  4C 44 0F           JMP L00055
0F59  A9 00      L00058  LDA #$00
0F5B  4C 61 1E           JMP L00374
                 ;________________________________________
0F5E  A2 08      L00059  LDX #$08
0F60  20 A0 11           JSR L00108
0F63  4C D0 10           JMP L00088
                 ;________________________________________
0F66  AD 01 D0   L00060  LDA $D001           ; SPRITE 0 Y POS
0F69  C9 40              CMP #$40
0F6B  90 09              BCC L00062          ; Branch if $D001 < 64
0F6D  CE 05 D0           DEC $D005           ; SPRITE 2 Y POS
0F70  CE 03 D0           DEC $D003           ; SPRITE 1 Y POS
0F73  CE 01 D0           DEC $D001           ; SPRITE 0 Y POS
0F76  60         L00062  RTS
                 ;________________________________________
0F77  AD 05 D0   L00063  LDA $D005           ; SPRITE 2 Y POS
0F7A  C9 F0              CMP #$F0
0F7C  B0 09              BCS L00065
0F7E  EE 05 D0   L00064  INC $D005           ; SPRITE 2 Y POS
0F81  EE 03 D0           INC $D003           ; SPRITE 1 Y POS
0F84  EE 01 D0           INC $D001           ; SPRITE 0 Y POS
0F87  60         L00065  RTS
                 ;________________________________________
0F88  AD 00 D0   L00066  LDA $D000           ; SPRITE 0 X POS
0F8B  C9 18              CMP #$18
0F8D  B0 07              BCS L00067
0F8F  AD 10 D0           LDA $D010
0F92  29 01              AND #$01            ; IF BIT 0 OFF
0F94  F0 03              BEQ L00068
0F96  20 55 15   L00067  JSR L00191          ; Move man left 1 pixel
0F99  60         L00068  RTS
                 ;________________________________________
0F9A  FF                 BYT $FF             ; 255      GFX
0F9B  FF                 BYT $FF             ; 255      GFX
0F9C  FF                 BYT $FF             ; 255      GFX
0F9D  02                 BYT $02             ; 2        b
0F9E  FF                 BYT $FF             ; 255      GFX
0F9F  02                 BYT $02             ; 2        b
                 ;________________________________________
0FA0  A9 81              LDA #$81            ; ENABLE
0FA2  8D 12 D4           STA $D412           ; VOICE 3
0FA5  A9 00              LDA #$00
0FA7  85 20              STA $20
0FA9  AD 15 D0           LDA $D015           ; SPRITE DISPLAY
0FAC  29 87              AND #$87            ; BIT 3 4 5 6 OFF
0FAE  8D 15 D0           STA $D015
0FB1  60                 RTS
                 ;________________________________________
0FB2  EA                 BYT $EA
0FB3  EA                 BYT $EA
0FB4  00                 BYT $00
0FB5  00                 BYT $00
0FB6  FE                 BYT $FE
0FB7  00                 BYT $00
0FB8  00                 BYT $00
0FB9  00                 BYT $00
                 ;________________________________________
0FBA  A9 00      L00069  LDA #$00
0FBC  8D 15 D0           STA $D015           ; SPRITE DISPLAY
0FBF  8D 17 D0           STA $D017           ; EXPAND SPRITE IN Y-DIR.
0FC2  8D 1D D0           STA $D01D           ; EXPAND SPRITE IN X-DIR.
0FC5  A9 0C              LDA #$0C            ; GRAY 2
0FC7  8D 22 D0           STA $D022           ; BACKGROUND COLOR 1
0FCA  A9 08              LDA #$08            ; ORANGE
0FCC  8D 23 D0           STA $D023           ; BACKGROUND COLOR 2
0FCF  20 80 95           JSR L01416
0FD2  4C 4A 93           JMP L01381
                 ;________________________________________
0FD5  4C 4A 93           JMP L01381
                 ;________________________________________
0FD8  EA                 NOP
0FD9  EA                 NOP
0FDA  EA                 NOP
0FDB  EA                 NOP
0FDC  EA                 NOP
0FDD  EA                 NOP
0FDE  EA                 NOP
0FDF  EA                 NOP
0FE0  C6 2E      L00070  DEC $2E
0FE2  D0 08              BNE L00071
0FE4  A9 21              LDA #$21            ; ENABLE
0FE6  8D 12 D4           STA $D412           ; VOICE 3
0FE9  20 D4 10           JSR L00089
0FEC  60         L00071  RTS
                 ;________________________________________
0FED  EA                 NOP
0FEE  AD 00 D0   L00072  LDA $D000           ; SPRITE 0 X POS
0FF1  C9 40              CMP #$40
0FF3  90 07              BCC L00073          ; Branch if $D000 < 64
0FF5  AD 10 D0           LDA $D010
0FF8  29 01              AND #$01            ; IF NOT BIT 0 OFF
0FFA  D0 03              BNE L00074
0FFC  20 88 15   L00073  JSR L00195          ; Move man right 1 pixel
0FFF  60         L00074  RTS
                 ;________________________________________
1000  4C 00 91           JMP L01334
                 ;________________________________________
1003  20 00 93   L00075  JSR L01376
1006  20 10 1E           JSR L00373
1009  20 10 1F           JSR L00381
100C  AD FF 43           LDA $43FF
100F  C9 B2              CMP #$B2            ; Are there 3 or more tombstones?
1011  D0 03              BNE L00076
1013  20 52 99           JSR L01499          ; Is this instruction ever reached?
1016  A9 21      L00076  LDA #$21            ; ENABLE
1018  8D 04 D4           STA $D404           ; VOICE 1
101B  8D 0B D4           STA $D40B           ; VOICE 2
101E  A9 41              LDA #$41            ; ENABLE
1020  8D 12 D4   L00077  STA $D412           ; VOICE 3
1023  A9 00              LDA #$00
1025  85 03              STA $03
1027  85 04              STA $04
1029  4C 6E 10           JMP L00082
                 ;________________________________________
102C  00                 BYT $00
102D  00                 BYT $00
102E  00                 BYT $00
102F  00                 BYT $00
                 ;________________________________________
1030  A2 33      L00078  LDX #$33            ; Falling man
1032  20 90 11           JSR L00106          ; Set sprite pointers for man
1035  A0 07              LDY #$07
1037  20 20 11           JSR L00097
103A  A9 07              LDA #$07
103C  8D 1B D0           STA $D01B           ; SPRITE-BACKGROUND PRIORITY
103F  AD 05 D0   L00080  LDA $D005           ; SPRITE 2 Y POS
1042  C9 F8              CMP #$F8
1044  B0 0C              BCS L00081
1046  20 7E 0F           JSR L00064          ; Move man down 1 pixel
1049  20 95 9F           JSR L01569
104C  20 80 19           JSR L00261
104F  4C 3F 10           JMP L00080
1052  A9 00      L00081  LDA #$00
1054  8D 15 D0           STA $D015           ; SPRITE DISPLAY
1057  4C EA 16           JMP L00224
                 ;________________________________________
105A  00                 BYT $00
105B  00                 BYT $00
105C  00                 BYT $00
105D  00                 BYT $00
105E  00                 BYT $00
105F  00                 BYT $00
1060  00                 BYT $00
1061  00                 BYT $00
1062  00                 BYT $00
1063  00                 BYT $00
1064  00                 BYT $00
1065  00                 BYT $00
1066  00                 BYT $00
1067  00                 BYT $00
1068  00                 BYT $00
1069  00                 BYT $00
106A  00                 BYT $00
106B  00                 BYT $00
106C  00                 BYT $00
106D  00                 BYT $00
                 ;________________________________________
106E  A9 00      L00082  LDA #$00
1070  8D 17 D0           STA $D017           ; EXPAND SPRITE IN Y-DIR.
1073  8D 1D D0           STA $D01D           ; EXPAND SPRITE IN X-DIR.
1076  4C 9F 10           JMP L00086
                 ;________________________________________
1079  EA                 NOP
107A  20 61 1E   L00083  JSR L00374
107D  4C 9F 10           JMP L00086
                 ;________________________________________
1080  AD 00 DC   L00084  LDA $DC00           ; JOYSTICK PORT A
1083  29 1F              AND #$1F
1085  49 1F              EOR #$1F
1087  85 2F              STA $2F
1089  EA                 NOP
108A  EA                 NOP
108B  F0 ED              BEQ L00083
108D  AA                 TAX
108E  4C 00 7F           JMP L01065
                 ;________________________________________
1091  BD B0 10   L00085  LDA $10B0,X
1094  F0 09              BEQ L00086
1096  A8                 TAY
1097  A2 08              LDX #$08
1099  20 A0 11           JSR L00108
109C  20 E0 0F           JSR L00070
109F  4C 00 14   L00086  JMP L00150
                 ;________________________________________
10A2  EA                 NOP
10A3  EA                 NOP
10A4  20 EA FF   L00087  JSR $FFEA           ; Update the software clock
10A7  20 E1 FF           JSR $FFE1           ; Check the STOP key
10AA  D0 D4              BNE L00084
10AC  4C B0 11           JMP L00109
                 ;________________________________________
10AF  00                 BYT $00
10B0  00                 BYT $00
10B1  00                 BYT $00
10B2  00                 BYT $00
10B3  00                 BYT $00
10B4  11                 BYT $11             ; 17       q
10B5  2C                 BYT $2C
10B6  1A                 BYT $1A
10B7  00                 BYT $00
10B8  08                 BYT $08
10B9  35                 BYT $35
10BA  23                 BYT $23
10BB  00                 BYT $00
10BC  00                 BYT $00
10BD  00                 BYT $00
10BE  00                 BYT $00
10BF  00                 BYT $00
10C0  00                 BYT $00
10C1  00                 BYT $00
10C2  00                 BYT $00
10C3  00                 BYT $00
10C4  00                 BYT $00
10C5  3E                 BYT $3E
10C6  50                 BYT $50
10C7  00                 BYT $00
10C8  00                 BYT $00             ; 0         
10C9  47                 BYT $47             ; 71       G
10CA  59                 BYT $59
10CB  00                 BYT $00
10CC  00                 BYT $00
10CD  00                 BYT $00
10CE  00                 BYT $00
10CF  00                 BYT $00
                 ;________________________________________
10D0  C6 2E      L00088  DEC $2E
10D2  D0 47              BNE L00096
10D4  A5 25      L00089  LDA $25
10D6  85 2E              STA $2E
10D8  A5 20      L00090  LDA $20
10DA  D0 0D              BNE L00092
10DC  A6 21              LDX $21
10DE  20 90 11           JSR L00106          ; Set sprite pointers for man
10E1  A4 26              LDY $26
10E3  20 20 11   L00091  JSR L00097
10E6  4C 0F 11           JMP L00095
10E9  C9 01      L00092  CMP #$01
10EB  D0 0A              BNE L00093
10ED  A6 22              LDX $22
10EF  20 90 11           JSR L00106          ; Set sprite pointers for man
10F2  A4 27              LDY $27
10F4  4C E3 10           JMP L00091
10F7  C9 02      L00093  CMP #$02
10F9  D0 0A              BNE L00094
10FB  A6 23              LDX $23
10FD  20 90 11           JSR L00106          ; Set sprite pointers for man
1100  A4 28              LDY $28
1102  4C E3 10           JMP L00091
1105  A6 24      L00094  LDX $24
1107  20 90 11           JSR L00106          ; Set sprite pointers for man
110A  A4 29              LDY $29
110C  4C E3 10           JMP L00091
110F  E6 20      L00095  INC $20
1111  A5 20              LDA $20
1113  C9 04              CMP #$04
1115  90 04              BCC L00096          ; Branch if $20 < 4
1117  A9 00              LDA #$00
1119  85 20              STA $20
111B  60         L00096  RTS
                 ;________________________________________
111C  EA                 NOP
111D  EA                 NOP
111E  EA                 NOP
111F  EA                 NOP
                 ;________________________________________
1120  A2 03      L00097  LDX #$03
1122  B9 80 17   L00098  LDA $1780,Y
1125  95 2A              STA $2A,X
1127  88                 DEY
1128  CA                 DEX
1129  10 F7              BPL L00098
112B  18                 CLC
112C  AD 04 D0           LDA $D004           ; SPRITE 2 X POS
112F  65 2A              ADC $2A
1131  8D 02 D0           STA $D002           ; SPRITE 1 X POS
1134  90 0F              BCC L00100
1136  A5 2A              LDA $2A
1138  30 08              BMI L00099
113A  AD 10 D0           LDA $D010
113D  09 02              ORA #$02            ; BIT 1 ON
113F  8D 10 D0           STA $D010
1142  4C 51 11   L00099  JMP L00101
1145  A5 2A      L00100  LDA $2A
1147  10 08              BPL L00101
1149  AD 10 D0           LDA $D010
114C  29 FD              AND #$FD            ; BIT 1 OFF
114E  8D 10 D0           STA $D010
1151  18         L00101  CLC
1152  AD 02 D0           LDA $D002           ; SPRITE 1 X POS
1155  65 2B              ADC $2B
1157  8D 00 D0           STA $D000           ; SPRITE 0 X POS
115A  90 0F              BCC L00103
115C  A5 2B              LDA $2B
115E  30 08              BMI L00102
1160  AD 10 D0           LDA $D010
1163  09 01              ORA #$01            ; BIT 0 ON
1165  8D 10 D0           STA $D010
1168  4C 77 11   L00102  JMP L00105
116B  A5 2B      L00103  LDA $2B
116D  10 08              BPL L00105
116F  AD 10 D0           LDA $D010
1172  29 FE              AND #$FE            ; BIT 0 OFF
1174  8D 10 D0           STA $D010
1177  18         L00105  CLC
1178  AD 05 D0           LDA $D005           ; SPRITE 2 Y POS
117B  65 2C              ADC $2C
117D  8D 03 D0           STA $D003           ; SPRITE 1 Y POS
1180  18                 CLC
1181  AD 03 D0           LDA $D003           ; SPRITE 1 Y POS
1184  65 2D              ADC $2D
1186  8D 01 D0           STA $D001           ; SPRITE 0 Y POS
1189  60                 RTS
                 ;________________________________________
118A  00                 BYT $00
118B  00                 BYT $00
118C  00                 BYT $00
118D  00                 BYT $00
118E  00                 BYT $00
118F  00                 BYT $00
                 ;________________________________________
                 ;
                 ;   Set sprite pointers for man
                 ;
1190  A0 02      L00106  LDY #$02
1192  BD 00 18   L00107  LDA $1800,X
1195  99 F8 07           STA $07F8,Y         ; Set sprite pointers for man
1198  E8                 INX
1199  88                 DEY
119A  10 F6              BPL L00107
119C  60                 RTS
                 ;________________________________________
119D  00                 BYT $00
119E  00                 BYT $00
119F  00                 BYT $00
                 ;________________________________________
11A0  B9 00 17   L00108  LDA $1700,Y
11A3  95 21              STA $21,X
11A5  88                 DEY
11A6  CA                 DEX
11A7  10 F7              BPL L00108
11A9  60                 RTS
                 ;________________________________________
11AA  00                 BYT $00
11AB  00                 BYT $00
11AC  00                 BYT $00
11AD  00                 BYT $00
11AE  00                 BYT $00
11AF  00                 BYT $00
                 ;________________________________________
                 ;
                 ;   STOP key pressed
                 ;
11B0  A9 00      L00109  LDA #$00
11B2  8D 18 D4           STA $D418           ; SELECT OUTPUT VOLUME
11B5  20 80 37           JSR L00662
11B8  A9 0F              LDA #$0F
11BA  8D 18 D4           STA $D418           ; SELECT OUTPUT VOLUME
11BD  4C 80 10           JMP L00084
                 ;________________________________________
11C0  EA                 BYT $EA
11C1  00                 BYT $00
11C2  00                 BYT $00
11C3  00                 BYT $00
11C4  EA                 BYT $EA
11C5  EA                 BYT $EA
11C6  EA                 BYT $EA
11C7  00                 BYT $00
11C8  00                 BYT $00
11C9  00                 BYT $00
                 ;________________________________________
11CA  C9 05      L00110  CMP #$05            ; LEFT + UP?
11CC  F0 07              BEQ L00111
11CE  C9 09              CMP #$09            ; RIGHT + UP?
11D0  F0 03              BEQ L00111
11D2  4C F2 11           JMP L00114
11D5  A5 20      L00111  LDA $20
11D7  F0 0B              BEQ L00112
11D9  AD 15 D0           LDA $D015           ; SPRITE DISPLAY
11DC  29 08              AND #$08            ; IF NOT BIT 3 OFF
11DE  D0 04              BNE L00112
11E0  A9 00              LDA #$00
11E2  85 20              STA $20
11E4  C6 2E      L00112  DEC $2E
11E6  D0 07              BNE L00113
11E8  A9 0C              LDA #$0C
11EA  85 2E              STA $2E
11EC  4C 00 12           JMP L00115
11EF  4C F5 12   L00113  JMP L00132
11F2  AD 15 D0   L00114  LDA $D015           ; SPRITE DISPLAY
11F5  29 F7              AND #$F7            ; BIT 3 OFF
11F7  8D 15 D0           STA $D015
11FA  4C 91 10           JMP L00085
                 ;________________________________________
11FD  00                 BYT $00
11FE  00                 BYT $00
11FF  00                 BYT $00
                 ;________________________________________
1200  A5 2F      L00115  LDA $2F
1202  C9 09              CMP #$09            ; RIGHT + UP?
1204  D0 13              BNE L00117
1206  A9 36              LDA #$36
1208  85 0A              STA $0A
120A  A9 39              LDA #$39
120C  85 0B              STA $0B
120E  A9 3C              LDA #$3C
1210  85 0C              STA $0C
1212  A9 3F              LDA #$3F
1214  85 0D      L00116  STA $0D
1216  4C 29 12           JMP L00119
1219  A9 42      L00117  LDA #$42
121B  85 0A              STA $0A
121D  A9 45              LDA #$45
121F  85 0B              STA $0B
1221  A9 48              LDA #$48
1223  85 0C              STA $0C
1225  A9 4B              LDA #$4B
1227  85 0D              STA $0D
1229  A5 20      L00119  LDA $20
122B  D0 5A              BNE L00125
122D  A6 0A              LDX $0A
122F  20 90 11           JSR L00106          ; Set sprite pointers for man
1232  A0 17              LDY #$17
1234  20 20 11           JSR L00097
1237  A9 BE              LDA #$BE            ; Curled-up rope
1239  8D FB 07           STA $07FB           ; SPRITE 3 PTR
123C  A9 03              LDA #$03            ; CYAN
123E  8D 2A D0           STA $D02A           ; SPRITE 3 COLOR
1241  AD 10 D0           LDA $D010
1244  29 04              AND #$04            ; IF NOT BIT 2 OFF
1246  D0 06              BNE L00120
1248  20 00 13           JSR L00133
124B  4C 51 12           JMP L00121
124E  20 09 13   L00120  JSR L00134
1251  AD 03 D0   L00121  LDA $D003           ; SPRITE 1 Y POS
1254  8D 07 D0           STA $D007           ; SPRITE 3 Y POS
1257  A5 2F              LDA $2F
1259  C9 09              CMP #$09            ; RIGHT + UP?
125B  D0 11              BNE L00123
125D  18                 CLC
125E  AD 02 D0           LDA $D002           ; SPRITE 1 X POS
1261  69 0C              ADC #$0C
1263  8D 06 D0           STA $D006           ; SPRITE 3 X POS
1266  90 03              BCC L00122
1268  20 09 13           JSR L00134
126B  4C 7C 12   L00122  JMP L00124
126E  38         L00123  SEC
126F  AD 02 D0           LDA $D002           ; SPRITE 1 X POS
1272  E9 0B              SBC #$0B
1274  8D 06 D0           STA $D006           ; SPRITE 3 X POS
1277  B0 03              BCS L00124
1279  20 00 13           JSR L00133
127C  AD 15 D0   L00124  LDA $D015           ; SPRITE DISPLAY
127F  09 08              ORA #$08            ; BIT 3 ON
1281  8D 15 D0           STA $D015
1284  4C E9 12           JMP L00131
1287  C9 01      L00125  CMP #$01
1289  D0 1E              BNE L00126
128B  A9 BF              LDA #$BF            ; Loose rope
128D  8D FB 07           STA $07FB           ; SPRITE 3 PTR
1290  AD 17 D0           LDA $D017           ; EXPAND SPRITE IN Y-DIR.
1293  09 08              ORA #$08            ; BIT 3 ON
1295  8D 17 D0           STA $D017
1298  38                 SEC
1299  AD 01 D0           LDA $D001           ; SPRITE 0 Y POS
129C  E9 14              SBC #$14
129E  8D 07 D0           STA $D007           ; SPRITE 3 Y POS
12A1  A6 0B              LDX $0B
12A3  20 90 11           JSR L00106          ; Set sprite pointers for man
12A6  4C E9 12           JMP L00131
12A9  C9 02      L00126  CMP #$02
12AB  D0 08              BNE L00127
12AD  A9 99              LDA #$99            ; Straight rope
12AF  8D FB 07           STA $07FB           ; SPRITE 3 PTR
12B2  4C E9 12           JMP L00131
12B5  C9 03      L00127  CMP #$03
12B7  D0 1E              BNE L00129
12B9  AD 1F D0           LDA $D01F           ; SPRITE-BACKGROUND COLLISION
12BC  29 08              AND #$08            ; IF NOT BIT 3 OFF
12BE  D0 0F              BNE L00128
12C0  A9 00              LDA #$00
12C2  85 20              STA $20
12C4  AD 17 D0           LDA $D017           ; EXPAND SPRITE IN Y-DIR.
12C7  29 F7              AND #$F7            ; BIT 3 OFF
12C9  8D 17 D0           STA $D017
12CC  4C E9 12           JMP L00131
12CF  A6 0C      L00128  LDX $0C             ; Sprite 3 collided with foreground
12D1  20 90 11           JSR L00106          ; Set sprite pointers for man
12D4  4C E0 12           JMP L00130
12D7  C9 04      L00129  CMP #$04
12D9  D0 0E              BNE L00131
12DB  A6 0D              LDX $0D
12DD  20 90 11           JSR L00106          ; Set sprite pointers for man
12E0  CE 05 D0   L00130  DEC $D005           ; SPRITE 2 Y POS
12E3  CE 03 D0           DEC $D003           ; SPRITE 1 Y POS
12E6  CE 01 D0           DEC $D001           ; SPRITE 0 Y POS
12E9  E6 20      L00131  INC $20
12EB  A5 20              LDA $20
12ED  C9 05              CMP #$05
12EF  90 04              BCC L00132          ; Branch if $20 < 5
12F1  A9 03              LDA #$03
12F3  85 20              STA $20
12F5  4C E0 14   L00132  JMP L00180
                 ;________________________________________
12F8  EA                 BYT $EA
12F9  00                 BYT $00
12FA  00                 BYT $00
12FB  00                 BYT $00
12FC  00                 BYT $00
12FD  00                 BYT $00
12FE  00                 BYT $00
12FF  00                 BYT $00
                 ;________________________________________
1300  AD 10 D0   L00133  LDA $D010
1303  29 F7              AND #$F7            ; BIT 3 OFF
1305  8D 10 D0           STA $D010
1308  60                 RTS
                 ;________________________________________
1309  AD 10 D0   L00134  LDA $D010
130C  09 08              ORA #$08            ; BIT 3 ON
130E  8D 10 D0           STA $D010
1311  60                 RTS
                 ;________________________________________
1312  00                 BYT $00
1313  00                 BYT $00
1314  00                 BYT $00             ; 0         
                 ;________________________________________
                 ;
                 ;   Slot positions on map
                 ;
1315  77                 BYT $77             ; Slot 1 = $77DA
1316  DA                 BYT $DA
1317  78                 BYT $78             ; Slot 2 = $787B
1318  7B                 BYT $7B
1319  79                 BYT $79             ; Slot 3 = $791A
131A  1A                 BYT $1A
131B  78                 BYT $78             ; Slot 4 = $7879
131C  79                 BYT $79
131D  78                 BYT $78             ; Slot 5 = $787A
131E  7A                 BYT $7A
                 ;________________________________________
131F  00                 BYT $00
                 ;________________________________________
1320  20 80 18   L00136  JSR L00238
1323  20 00 8C           JSR L01239
1326  20 E0 19           JSR L00273
1329  20 C0 1A           JSR L00296
132C  A5 3D              LDA $3D
132E  C9 01              CMP #$01
1330  D0 03              BNE L00137
1332  20 B0 1E           JSR L00377
1335  A5 11      L00137  LDA $11             ; Position on map HI
1337  C9 48              CMP #$48
1339  90 0F              BCC L00138
133B  20 B8 37           JSR L00665
133E  20 7E 1C           JSR L00337
1341  20 CC 37           JSR L00668
1344  20 80 19           JSR L00261
1347  4C 52 13           JMP L00139
134A  AD 15 D0   L00138  LDA $D015           ; SPRITE DISPLAY
134D  29 8F              AND #$8F            ; BIT 4 5 6 OFF
134F  8D 15 D0           STA $D015
1352  EE 2E D0   L00139  INC $D02E           ; Flash seal
1355  EA                 NOP
1356  EA                 NOP
1357  EA                 NOP
1358  EA                 NOP
1359  A5 3D              LDA $3D
135B  C9 88              CMP #$88
135D  D0 03              BNE L00140
135F  20 70 13           JSR L00142
1362  A5 67      L00140  LDA $67
1364  D0 03              BNE L00141
1366  20 52 99           JSR L01499
1369  4C 10 1F   L00141  JMP L00381
                 ;________________________________________
136C  00                 BYT $00
136D  00                 BYT $00
136E  00                 BYT $00
136F  00                 BYT $00
                 ;________________________________________
1370  A5 3E      L00142  LDA $3E
1372  C9 61              CMP #$61
1374  D0 23              BNE L00145
1376  AD 04 D0           LDA $D004           ; SPRITE 2 X POS
1379  8D 0E D0           STA $D00E           ; SPRITE 7 X POS - Keep seal attached to man
137C  AD 05 D0           LDA $D005           ; SPRITE 2 Y POS
137F  8D 0F D0           STA $D00F           ; SPRITE 7 Y POS
1382  A9 80              LDA #$80
1384  85 12              STA $12
1386  AD 10 D0           LDA $D010
1389  29 04              AND #$04            ; IF NOT BIT 2 OFF
138B  D0 06              BNE L00144
138D  20 90 8E           JSR L01300
1390  4C AB 13           JMP L00147
1393  20 87 8E   L00144  JSR L01299
1396  4C AB 13           JMP L00147
1399  AD 1E D0   L00145  LDA $D01E           ; SPRITE-SPRITE COLLISION
139C  29 F0              AND #$F0
139E  C9 80              CMP #$80
13A0  D0 08              BNE L00146
13A2  A9 61              LDA #$61            ; Sprite 7 collided with another sprite
13A4  85 3E              STA $3E
13A6  A9 00              LDA #$00
13A8  85 67              STA $67
13AA  60         L00146  RTS
13AB  A5 11      L00147  LDA $11             ; Position on map HI
13AD  C9 6F              CMP #$6F
13AF  90 F9              BCC L00146
13B1  A5 10              LDA $10             ; Position on map LO
13B3  C9 06              CMP #$06
13B5  90 F3              BCC L00146
13B7  C9 08              CMP #$08
13B9  B0 EF              BCS L00146
13BB  A5 2F              LDA $2F
13BD  C9 12              CMP #$12            ; DOWN + FIRE?
13BF  D0 E9              BNE L00146
13C1  AD 15 D0           LDA $D015           ; SPRITE DISPLAY
13C4  29 7F              AND #$7F            ; BIT 7 OFF
13C6  8D 15 D0           STA $D015
13C9  A9 00              LDA #$00
13CB  85 3E              STA $3E
13CD  85 3D              STA $3D
13CF  A6 37              LDX $37
13D1  BD 15 13           LDA $1315,X         ; Slot position on map HI
13D4  85 4F              STA $4F
13D6  E8                 INX
13D7  BD 15 13           LDA $1315,X         ; Slot position on map LO
13DA  85 4E              STA $4E
13DC  A0 00              LDY #$00
13DE  A9 B1              LDA #$B1            ; Seal
13E0  91 4E              STA ($4E),Y         ; Place seal in slot on map
13E2  E6 37              INC $37
13E4  E6 37              INC $37
13E6  A5 37              LDA $37
13E8  C9 0A              CMP #$0A
13EA  90 06              BCC L00148          ; Branch if no. seals * 2 < 10
13EC  A6 07              LDX $07
13EE  9A                 TXS
13EF  4C F5 13           JMP L00149
13F2  4C 60 92   L00148  JMP L01361
13F5  20 10 1F   L00149  JSR L00381
13F8  4C 00 94           JMP L01395          ; Start end game
                 ;________________________________________
13FB  00                 BYT $00
13FC  00                 BYT $00
13FD  00                 BYT $00
13FE  00                 BYT $00
13FF  00                 BYT $00
                 ;________________________________________
1400  BA         L00150  TSX
1401  86 07              STX $07
1403  AD 1F D0           LDA $D01F           ; SPRITE-BACKGROUND COLLISION
1406  85 02              STA $02
1408  29 01              AND #$01
140A  F0 0B              BEQ L00152
140C  E6 03              INC $03             ; Sprite 0 collided with foreground
140E  A5 03              LDA $03
1410  C9 0B              CMP #$0B
1412  90 07              BCC L00153
1414  4C 00 16           JMP L00207
1417  A9 00      L00152  LDA #$00
1419  85 03              STA $03
141B  A5 02      L00153  LDA $02             ; SPRITE-BACKGROUND COLLISION
141D  29 02              AND #$02            ; IF BIT 1 OFF
141F  F0 0E              BEQ L00156
1421  A5 2F              LDA $2F             ; Sprite 1 collided with foreground
1423  C9 06              CMP #$06            ; LEFT + DOWN?
1425  F0 08              BEQ L00156
1427  C9 0A              CMP #$0A            ; RIGHT + DOWN?
1429  F0 04              BEQ L00156
142B  49 0C              EOR #$0C
142D  85 2F              STA $2F
142F  A5 02      L00156  LDA $02             ; SPRITE-BACKGROUND COLLISION
1431  29 04              AND #$04            ; IF BIT 2 OFF
1433  F0 06              BEQ L00157
1435  20 E8 14           JSR L00181          ; Sprite 2 collided with foreground
1438  4C 3E 14           JMP L00158
143B  20 18 15   L00157  JSR L00185
143E  A5 2F      L00158  LDA $2F
1440  C9 04              CMP #$04
1442  D0 06              BNE L00161
1444  20 BA 15   L00159  JSR L00199          ; Scroll right or move man left
1447  4C E0 14   L00160  JMP L00180
144A  C9 06      L00161  CMP #$06
144C  D0 0B              BNE L00162
144E  C6 06              DEC $06
1450  D0 F5              BNE L00160
1452  A9 02              LDA #$02
1454  85 06              STA $06
1456  4C 44 14           JMP L00159
1459  C9 08      L00162  CMP #$08
145B  D0 06              BNE L00165
145D  20 DA 15   L00163  JSR L00202          ; Scroll left or move man right
1460  4C E0 14   L00164  JMP L00180
1463  C9 0A      L00165  CMP #$0A
1465  D0 0B              BNE L00166
1467  C6 06              DEC $06
1469  D0 F5              BNE L00164
146B  A9 02              LDA #$02
146D  85 06              STA $06
146F  4C 5D 14           JMP L00163
1472  C9 16      L00166  CMP #$16
1474  D0 0B      L00167  BNE L00168
1476  20 BA 15           JSR L00199          ; Scroll right or move man left
1479  20 BA 15           JSR L00199          ; Scroll right or move man left
147C  EA                 NOP
147D  EA                 NOP
147E  4C E0 14           JMP L00180
1481  C9 1A      L00168  CMP #$1A
1483  D0 0B              BNE L00169
1485  20 DA 15           JSR L00202          ; Scroll left or move man right
1488  20 DA 15           JSR L00202          ; Scroll left or move man right
148B  EA                 NOP
148C  EA                 NOP
148D  4C E0 14           JMP L00180
1490  C9 15      L00169  CMP #$15
1492  D0 24              BNE L00174
1494  A9 04              LDA #$04
1496  85 08              STA $08
1498  A5 20      L00170  LDA $20
149A  C9 01              CMP #$01
149C  D0 09              BNE L00172
149E  20 E8 14           JSR L00181
14A1  20 BA 15   L00171  JSR L00199          ; Scroll right or move man left
14A4  4C B1 14           JMP L00173
14A7  C9 03      L00172  CMP #$03
14A9  90 F6              BCC L00171
14AB  20 18 15           JSR L00185
14AE  20 BA 15           JSR L00199          ; Scroll right or move man left
14B1  C6 08      L00173  DEC $08
14B3  10 E3              BPL L00170
14B5  4C E0 14           JMP L00180
14B8  C9 19      L00174  CMP #$19
14BA  D0 21              BNE L00179
14BC  A9 04              LDA #$04
14BE  85 08              STA $08
14C0  A5 20      L00175  LDA $20
14C2  C9 01              CMP #$01
14C4  D0 09              BNE L00177
14C6  20 E8 14           JSR L00181
14C9  20 DA 15   L00176  JSR L00202          ; Scroll left or move man right
14CC  4C D9 14           JMP L00178
14CF  C9 03      L00177  CMP #$03
14D1  90 F6              BCC L00176
14D3  20 18 15           JSR L00185
14D6  20 DA 15           JSR L00202          ; Scroll left or move man right
14D9  C6 08      L00178  DEC $08
14DB  10 E3              BPL L00175
14DD  EA         L00179  NOP
14DE  EA                 NOP
14DF  EA                 NOP
14E0  20 20 13   L00180  JSR L00136
14E3  4C A4 10           JMP L00087
                 ;________________________________________
14E6  EA                 NOP
14E7  EA                 NOP
14E8  A9 00      L00181  LDA #$00
14EA  85 04              STA $04
14EC  EA                 NOP
14ED  EA                 NOP
14EE  EA                 NOP
14EF  EA                 NOP
14F0  EA                 NOP
14F1  EA                 NOP
14F2  EA                 NOP
14F3  EA                 NOP
14F4  EA                 NOP
14F5  EA                 NOP
14F6  EA                 NOP
14F7  AD 05 D0           LDA $D005           ; SPRITE 2 Y POS
14FA  C9 98              CMP #$98
14FC  B0 0E              BCS L00182
14FE  20 A2 99           JSR L01505          ; Scroll screen down and move sprites
1501  A5 1A              LDA $1A             ; Was scrolling possible?
1503  F0 10              BEQ L00183
1505  AD 05 D0           LDA $D005           ; SPRITE 2 Y POS
1508  C9 50              CMP #$50
150A  90 0B              BCC L00184
150C  CE 01 D0   L00182  DEC $D001           ; SPRITE 0 Y POS
150F  CE 03 D0           DEC $D003           ; SPRITE 1 Y POS
1512  CE 05 D0           DEC $D005           ; SPRITE 2 Y POS
1515  EA         L00183  NOP
1516  EA                 NOP
1517  60         L00184  RTS
                 ;________________________________________
1518  A9 00      L00185  LDA #$00
151A  85 05              STA $05
151C  AD 05 D0           LDA $D005           ; SPRITE 2 Y POS
151F  C9 CE              CMP #$CE
1521  90 0E              BCC L00187
1523  A5 11              LDA $11             ; Position on map HI
1525  C9 6A              CMP #$6A
1527  90 2A              BCC L00190
1529  EA                 NOP
152A  EA                 NOP
152B  A6 07              LDX $07
152D  9A                 TXS
152E  4C 30 10           JMP L00078
1531  C9 A0      L00187  CMP #$A0
1533  90 07              BCC L00188
1535  20 C2 99           JSR L01507          ; Scroll screen up and move sprites
1538  A5 1A              LDA $1A             ; Was scrolling possible?
153A  F0 09              BEQ L00189
153C  EE 01 D0   L00188  INC $D001           ; SPRITE 0 Y POS
153F  EE 03 D0           INC $D003           ; SPRITE 1 Y POS
1542  EE 05 D0           INC $D005           ; SPRITE 2 Y POS
1545  E6 04      L00189  INC $04
1547  A5 04              LDA $04
1549  C9 60              CMP #$60
154B  90 06              BCC L00190
154D  A6 07              LDX $07
154F  9A                 TXS
1550  4C C0 9F           JMP L01575
1553  60         L00190  RTS
                 ;________________________________________
1554  EA                 NOP
                 ;________________________________________
                 ;
                 ;   Move man left 1 pixel
                 ;
1555  CE 00 D0   L00191  DEC $D000           ; SPRITE 0 X POS
1558  D0 0B              BNE L00192
155A  AD 10 D0           LDA $D010
155D  29 FE              AND #$FE            ; BIT 0 OFF
155F  8D 10 D0           STA $D010
1562  CE 00 D0           DEC $D000           ; SPRITE 0 X POS
1565  CE 02 D0   L00192  DEC $D002           ; SPRITE 1 X POS
1568  D0 0B              BNE L00193
156A  AD 10 D0           LDA $D010
156D  29 FD              AND #$FD            ; BIT 1 OFF
156F  8D 10 D0           STA $D010
1572  CE 02 D0           DEC $D002           ; SPRITE 1 X POS
1575  CE 04 D0   L00193  DEC $D004           ; SPRITE 2 X POS
1578  D0 0B              BNE L00194
157A  AD 10 D0           LDA $D010
157D  29 FB              AND #$FB            ; BIT 2 OFF
157F  8D 10 D0           STA $D010
1582  CE 04 D0           DEC $D004           ; SPRITE 2 X POS
1585  60         L00194  RTS
                 ;________________________________________
1586  EA                 NOP
1587  EA                 NOP
                 ;________________________________________
                 ;
                 ;   Move man right 1 pixel
                 ;
1588  EE 00 D0   L00195  INC $D000           ; SPRITE 0 X POS
158B  D0 0B              BNE L00196
158D  AD 10 D0           LDA $D010
1590  09 01              ORA #$01            ; BIT 0 ON
1592  8D 10 D0           STA $D010
1595  EE 00 D0           INC $D000           ; SPRITE 0 X POS
1598  EE 02 D0   L00196  INC $D002           ; SPRITE 1 X POS
159B  D0 0B              BNE L00197
159D  AD 10 D0           LDA $D010
15A0  09 02              ORA #$02            ; BIT 1 ON
15A2  8D 10 D0           STA $D010
15A5  EE 02 D0           INC $D002           ; SPRITE 1 X POS
15A8  EE 04 D0   L00197  INC $D004           ; SPRITE 2 X POS
15AB  D0 0B              BNE L00198
15AD  AD 10 D0           LDA $D010
15B0  09 04              ORA #$04            ; BIT 2 ON
15B2  8D 10 D0           STA $D010
15B5  EE 04 D0           INC $D004           ; SPRITE 2 X POS
15B8  60         L00198  RTS
                 ;________________________________________
15B9  EA                 NOP
                 ;________________________________________
                 ;
                 ;   Scroll right or move man left
                 ;
15BA  AD 04 D0   L00199  LDA $D004           ; SPRITE 2 X POS
15BD  C9 A8              CMP #$A8
15BF  B0 15              BCS L00200          ; Branch if X POS >= 168
15C1  AD 10 D0           LDA $D010
15C4  29 04              AND #$04            ; IF NOT BIT 2 OFF
15C6  D0 0E              BNE L00200
15C8  20 C0 1F           JSR L00395          ; Scroll screen right and move sprites
15CB  A5 1A              LDA $1A             ; Was scrolling possible?
15CD  F0 0A              BEQ L00201
15CF  AD 04 D0           LDA $D004           ; SPRITE 2 X POS
15D2  C9 28              CMP #$28
15D4  90 03              BCC L00201          ; Branch if X POS < 40
15D6  20 55 15   L00200  JSR L00191          ; Move man left 1 pixel
15D9  60         L00201  RTS
                 ;________________________________________
                 ;
                 ;   Scroll left or move man right
                 ;
15DA  AD 04 D0   L00202  LDA $D004           ; SPRITE 2 X POS
15DD  C9 B0              CMP #$B0
15DF  90 0A              BCC L00203          ; Branch if X POS < 176
15E1  20 E0 1F           JSR L00399          ; Scroll screen left and move sprites
15E4  A5 1A              LDA $1A             ; Was scrolling possible?
15E6  F0 11              BEQ L00205
15E8  AD 04 D0           LDA $D004           ; SPRITE 2 X POS
15EB  C9 30      L00203  CMP #$30
15ED  90 07              BCC L00204          ; Branch if X POS < 48
15EF  AD 10 D0           LDA $D010
15F2  29 04              AND #$04            ; IF NOT BIT 2 OFF
15F4  D0 03              BNE L00205
15F6  20 88 15   L00204  JSR L00195          ; Move man right 1 pixel
15F9  60         L00205  RTS
                 ;________________________________________
15FA  EA                 NOP
15FB  85 04      L00206  STA $04
15FD  4C 9F 10           JMP L00086
                 ;________________________________________
1600  A9 00      L00207  LDA #$00
1602  85 20              STA $20
1604  A5 2F              LDA $2F
1606  29 04              AND #$04            ; IF BIT 2 OFF
1608  F0 05              BEQ L00208
160A  A0 62              LDY #$62
160C  4C 11 16           JMP L00209
160F  A0 6B      L00208  LDY #$6B
1611  A2 08      L00209  LDX #$08
1613  20 A0 11           JSR L00108
1616  20 D8 10   L00211  JSR L00090
1619  20 95 9F           JSR L01569
161C  20 EA 8E           JSR L01302
161F  A5 20              LDA $20
1621  D0 F3              BNE L00211
1623  AD 1B D0           LDA $D01B           ; SPRITE-BACKGROUND PRIORITY
1626  29 F0              AND #$F0            ; BIT 0 1 2 3 OFF
1628  8D 1B D0           STA $D01B
162B  AD 1F D0   L00213  LDA $D01F           ; SPRITE-BACKGROUND COLLISION
162E  29 07              AND #$07
1630  C9 07              CMP #$07
1632  F0 0F              BEQ L00214
1634  EE 01 D0           INC $D001           ; SPRITE 0 Y POS
1637  EE 03 D0           INC $D003           ; SPRITE 1 Y POS
163A  EE 05 D0           INC $D005           ; SPRITE 2 Y POS
163D  20 B0 9F           JSR L01573
1640  4C 2B 16           JMP L00213
1643  20 95 9F   L00214  JSR L01569          ; Sprite 0, 1 and 2 collided with foreground
1646  C6 1F              DEC $1F
1648  D0 03              BNE L00216
164A  4C 77 16           JMP L00219
164D  A9 00      L00216  LDA #$00
164F  8D 1B D0           STA $D01B           ; SPRITE-BACKGROUND PRIORITY
1652  8D 17 D0           STA $D017           ; EXPAND SPRITE IN Y-DIR.
1655  8D 1D D0           STA $D01D           ; EXPAND SPRITE IN X-DIR.
1658  AD 00 DC   L00217  LDA $DC00           ; JOYSTICK PORT A - Read after falling over
165B  29 1F              AND #$1F
165D  49 1F              EOR #$1F
165F  D0 09              BNE L00218
1661  20 20 13           JSR L00136
1664  20 80 9F           JSR L01565          ; Pause
1667  4C 58 16           JMP L00217
166A  AD 1E D0   L00218  LDA $D01E           ; SPRITE-SPRITE COLLISION
166D  AD 1F D0           LDA $D01F           ; SPRITE-BACKGROUND COLLISION
1670  A9 00              LDA #$00
1672  85 03              STA $03
1674  4C FB 15           JMP L00206
1677  A9 00      L00219  LDA #$00
1679  8D 17 D0           STA $D017           ; EXPAND SPRITE IN Y-DIR.
167C  8D 1D D0           STA $D01D           ; EXPAND SPRITE IN X-DIR.
167F  A2 06              LDX #$06
1681  BD 78 9B   L00220  LDA $9B78,X         ; Song pointer - Song no. 4
1684  95 30              STA $30,X
1686  CA                 DEX
1687  10 F8              BPL L00220
1689  A9 21              LDA #$21            ; ENABLE
168B  8D 04 D4           STA $D404           ; VOICE 1
168E  8D 0B D4           STA $D40B           ; VOICE 2
1691  8D 12 D4           STA $D412           ; VOICE 3
1694  AD F8 07           LDA $07F8           ; SPRITE 0 PTR - Man head
1697  C9 B5              CMP #$B5            ; Head dying man
1699  D0 0E              BNE L00221
169B  18                 CLC                 ; Man head lying left
169C  AD 00 D0           LDA $D000           ; SPRITE 0 X POS
169F  69 10              ADC #$10
16A1  8D 06 D0           STA $D006           ; SPRITE 3 X POS
16A4  A9 CD              LDA #$CD            ; Skeleton
16A6  4C E0 99           JMP L01509
16A9  18         L00221  CLC
16AA  AD 04 D0           LDA $D004           ; SPRITE 2 X POS
16AD  69 10              ADC #$10
16AF  8D 06 D0           STA $D006           ; SPRITE 3 X POS
16B2  A9 CE              LDA #$CE            ; Skeleton
16B4  4C E0 99           JMP L01509
                 ;________________________________________
16B7  8D FB 07   L00222  STA $07FB           ; SPRITE 3 PTR
16BA  A9 01              LDA #$01            ; WHITE
16BC  8D 2A D0           STA $D02A           ; SPRITE 3 COLOR
16BF  A9 08              LDA #$08
16C1  8D 1D D0           STA $D01D           ; EXPAND SPRITE IN X-DIR.
16C4  AD 01 D0           LDA $D001           ; SPRITE 0 Y POS
16C7  8D 07 D0           STA $D007           ; SPRITE 3 Y POS
16CA  A9 01              LDA #$01
16CC  85 12              STA $12
16CE  A9 07      L00223  LDA #$07
16D0  8D 15 D0           STA $D015           ; SPRITE DISPLAY
16D3  A5 12              LDA $12
16D5  20 82 9F           JSR L01566
16D8  A9 08              LDA #$08
16DA  8D 15 D0           STA $D015           ; SPRITE DISPLAY
16DD  A5 12              LDA $12
16DF  20 82 9F           JSR L01566
16E2  E6 12              INC $12
16E4  A5 12              LDA $12
16E6  C9 60              CMP #$60
16E8  90 E4              BCC L00223
16EA  20 A0 9F   L00224  JSR L01571
16ED  20 95 93           JSR L01390
16F0  A9 00              LDA #$00
16F2  8D 15 D0           STA $D015           ; SPRITE DISPLAY
16F5  4C B0 9D           JMP L01522
                 ;________________________________________
16F8  00                 BYT $00
16F9  00                 BYT $00
16FA  00                 BYT $00
16FB  00                 BYT $00
16FC  00                 BYT $00
16FD  00                 BYT $00
16FE  00                 BYT $00
16FF  00                 BYT $00             ; 0         
1700  03                 BYT $03             ; 3        c
1701  06                 BYT $06
1702  09                 BYT $09
1703  06                 BYT $06             ; 6        f
1704  08                 BYT $08             ; 8        h
1705  03                 BYT $03             ; 3        c
1706  07                 BYT $07             ; 7        g
1707  03                 BYT $03             ; 3        c
1708  07                 BYT $07             ; 7        g
1709  0C                 BYT $0C             ; 12       l
170A  0F                 BYT $0F             ; 15       o
170B  12                 BYT $12             ; 18       r
170C  0F                 BYT $0F             ; 15       o
170D  08                 BYT $08             ; 8        h
170E  03                 BYT $03             ; 3        c
170F  07                 BYT $07             ; 7        g
1710  03                 BYT $03             ; 3        c
1711  07                 BYT $07             ; 7        g
1712  2D                 BYT $2D
1713  30                 BYT $30
1714  2D                 BYT $2D
1715  30                 BYT $30             ; 48       0
1716  0A                 BYT $0A             ; 10       j
1717  0B                 BYT $0B             ; 11       k
1718  0B                 BYT $0B             ; 11       k
1719  0B                 BYT $0B             ; 11       k
171A  0B                 BYT $0B             ; 11       k
171B  27                 BYT $27             ; 39       '
171C  2A                 BYT $2A             ; 42       *
171D  27                 BYT $27             ; 39       '
171E  2A                 BYT $2A
171F  0A                 BYT $0A             ; 10       j
1720  0F                 BYT $0F             ; 15       o
1721  0F                 BYT $0F             ; 15       o
1722  0F                 BYT $0F             ; 15       o
1723  0F                 BYT $0F             ; 15       o
1724  48                 BYT $48             ; 72       H
1725  4B                 BYT $4B             ; 75       K
1726  48                 BYT $48             ; 72       H
1727  4B                 BYT $4B             ; 75       K
1728  0C                 BYT $0C             ; 12       l
1729  07                 BYT $07             ; 7        g
172A  07                 BYT $07             ; 7        g
172B  07                 BYT $07             ; 7        g
172C  07                 BYT $07             ; 7        g
172D  3C                 BYT $3C             ; 60       <
172E  3F                 BYT $3F             ; 63       ?
172F  3C                 BYT $3C             ; 60       <
1730  3F                 BYT $3F             ; 63       ?
1731  0C                 BYT $0C             ; 12       l
1732  07                 BYT $07             ; 7        g
1733  07                 BYT $07             ; 7        g
1734  07                 BYT $07             ; 7        g
1735  07                 BYT $07             ; 7        g
1736  1E                 BYT $1E
1737  4B                 BYT $4B
1738  24                 BYT $24
1739  21                 BYT $21             ; 33       !
173A  06                 BYT $06             ; 6        f
173B  13                 BYT $13             ; 19       s
173C  07                 BYT $07             ; 7        g
173D  13                 BYT $13             ; 19       s
173E  17                 BYT $17             ; 23       w
173F  15                 BYT $15             ; 21       u
1740  3F                 BYT $3F             ; 63       ?
1741  1B                 BYT $1B             ; 27       [
1742  18                 BYT $18
1743  06                 BYT $06             ; 6        f
1744  1B                 BYT $1B             ; 27       [
1745  07                 BYT $07             ; 7        g
1746  1B                 BYT $1B             ; 27       [
1747  17                 BYT $17             ; 23       w
1748  1E                 BYT $1E
1749  21                 BYT $21
174A  24                 BYT $24
174B  21                 BYT $21             ; 33       !
174C  04                 BYT $04             ; 4        d
174D  13                 BYT $13             ; 19       s
174E  17                 BYT $17             ; 23       w
174F  13                 BYT $13             ; 19       s
1750  17                 BYT $17             ; 23       w
1751  15                 BYT $15             ; 21       u
1752  18                 BYT $18             ; 24       x
1753  1B                 BYT $1B             ; 27       [
1754  18                 BYT $18             ; 24       x
1755  04                 BYT $04             ; 4        d
1756  1B                 BYT $1B             ; 27       [
1757  17                 BYT $17             ; 23       w
1758  1B                 BYT $1B             ; 27       [
1759  17                 BYT $17             ; 23       w
175A  4B                 BYT $4B             ; 75       K
175B  5A                 BYT $5A             ; 90       Z
175C  5D                 BYT $5D             ; 93       GFX
175D  5D                 BYT $5D             ; 93       GFX
175E  0C                 BYT $0C             ; 12       l
175F  07                 BYT $07             ; 7        g
1760  1F                 BYT $1F             ; 31       _
1761  23                 BYT $23             ; 35       #
1762  23                 BYT $23             ; 35       #
1763  3F                 BYT $3F             ; 63       ?
1764  51                 BYT $51             ; 81       Q
1765  54                 BYT $54             ; 84       T
1766  54                 BYT $54             ; 84       T
1767  0C                 BYT $0C             ; 12       l
1768  07                 BYT $07             ; 7        g
1769  27                 BYT $27             ; 39       '
176A  2B                 BYT $2B             ; 43       +
176B  2B                 BYT $2B             ; 43       +
176C  00                 BYT $00
176D  00                 BYT $00
176E  00                 BYT $00
176F  00                 BYT $00
1770  00                 BYT $00
1771  00                 BYT $00
1772  00                 BYT $00
1773  00                 BYT $00
1774  00                 BYT $00
1775  00                 BYT $00
1776  00                 BYT $00
1777  00                 BYT $00
1778  00                 BYT $00
1779  00                 BYT $00
177A  00                 BYT $00
177B  00                 BYT $00
177C  00                 BYT $00
177D  00                 BYT $00
177E  00                 BYT $00
177F  00                 BYT $00
1780  00                 BYT $00
1781  00                 BYT $00
1782  EC                 BYT $EC
1783  F6                 BYT $F6
1784  00                 BYT $00
1785  00                 BYT $00
1786  EC                 BYT $EC
1787  F4                 BYT $F4
1788  E8                 BYT $E8
1789  00                 BYT $00
178A  00                 BYT $00             ; 0         
178B  F2                 BYT $F2             ; 242      GFX
178C  18                 BYT $18
178D  00                 BYT $00
178E  00                 BYT $00             ; 0         
178F  F2                 BYT $F2             ; 242      GFX
1790  00                 BYT $00
1791  FE                 BYT $FE
1792  EC                 BYT $EC
1793  F4                 BYT $F4
1794  00                 BYT $00
1795  00                 BYT $00
1796  EC                 BYT $EC             ; 236      GFX
1797  F2                 BYT $F2             ; 242      GFX
1798  00                 BYT $00             ; 0         
1799  02                 BYT $02             ; 2        b
179A  EC                 BYT $EC
179B  F4                 BYT $F4
179C  08                 BYT $08
179D  08                 BYT $08
179E  EC                 BYT $EC
179F  F4                 BYT $F4
17A0  18                 BYT $18
17A1  18                 BYT $18
17A2  00                 BYT $00
17A3  00                 BYT $00
17A4  F8                 BYT $F8
17A5  F8                 BYT $F8
17A6  EC                 BYT $EC
17A7  F4                 BYT $F4
17A8  E8                 BYT $E8
17A9  E8                 BYT $E8
17AA  00                 BYT $00
17AB  00                 BYT $00             ; 0         
17AC  FF                 BYT $FF             ; 255      GFX
17AD  FF                 BYT $FF             ; 255      GFX
17AE  FF                 BYT $FF             ; 255      GFX
17AF  FF                 BYT $FF             ; 255      GFX
17B0  FF                 BYT $FF             ; 255      GFX
17B1  FF                 BYT $FF             ; 255      GFX
17B2  FF                 BYT $FF             ; 255      GFX
17B3  FF                 BYT $FF             ; 255      GFX
17B4  FF                 BYT $FF             ; 255      GFX
17B5  FF                 BYT $FF             ; 255      GFX
17B6  FF                 BYT $FF             ; 255      GFX
17B7  FF                 BYT $FF             ; 255      GFX
17B8  FF                 BYT $FF             ; 255      GFX
17B9  FF                 BYT $FF             ; 255      GFX
17BA  FF                 BYT $FF             ; 255      GFX
17BB  FF                 BYT $FF             ; 255      GFX
17BC  FF                 BYT $FF             ; 255      GFX
17BD  FF                 BYT $FF             ; 255      GFX
17BE  FF                 BYT $FF             ; 255      GFX
17BF  FF                 BYT $FF             ; 255      GFX
17C0  00                 BYT $00
17C1  00                 BYT $00
17C2  00                 BYT $00
17C3  00                 BYT $00
17C4  00                 BYT $00
17C5  00                 BYT $00
17C6  00                 BYT $00
17C7  00                 BYT $00
17C8  00                 BYT $00
17C9  00                 BYT $00
17CA  00                 BYT $00
17CB  00                 BYT $00
17CC  00                 BYT $00
17CD  00                 BYT $00
17CE  00                 BYT $00
17CF  00                 BYT $00
17D0  00                 BYT $00
17D1  00                 BYT $00
17D2  00                 BYT $00
17D3  00                 BYT $00
17D4  00                 BYT $00
17D5  00                 BYT $00
17D6  00                 BYT $00
17D7  00                 BYT $00
17D8  00                 BYT $00
17D9  00                 BYT $00
17DA  00                 BYT $00
17DB  00                 BYT $00
17DC  00                 BYT $00
17DD  00                 BYT $00
17DE  00                 BYT $00
17DF  00                 BYT $00
17E0  00                 BYT $00
17E1  00                 BYT $00
17E2  00                 BYT $00
17E3  00                 BYT $00
17E4  00                 BYT $00
17E5  00                 BYT $00
17E6  00                 BYT $00
17E7  00                 BYT $00
17E8  00                 BYT $00
17E9  00                 BYT $00
17EA  00                 BYT $00
17EB  00                 BYT $00
17EC  00                 BYT $00
17ED  00                 BYT $00
17EE  00                 BYT $00
17EF  00                 BYT $00
17F0  00                 BYT $00
17F1  00                 BYT $00
17F2  00                 BYT $00
17F3  00                 BYT $00
17F4  00                 BYT $00
17F5  00                 BYT $00
17F6  00                 BYT $00
17F7  00                 BYT $00
17F8  00                 BYT $00
17F9  00                 BYT $00
17FA  00                 BYT $00
17FB  00                 BYT $00
17FC  00                 BYT $00
17FD  00                 BYT $00
17FE  00                 BYT $00
17FF  00                 BYT $00             ; 0         
                 ;________________________________________
                 ;
                 ;   Sprite pointers for man
                 ;
1800  82                 BYT $82             ; Back legs facing right
1801  81                 BYT $81             ; Back torso facing right
1802  80                 BYT $80             ; Back head facing right
1803  85                 BYT $85             ; Man legs
1804  84                 BYT $84             ; Man torso
1805  83                 BYT $83             ; Man head facing right
1806  87                 BYT $87             ; Man legs
1807  86                 BYT $86             ; Man torso
1808  83                 BYT $83             ; Man head facing right
1809  89                 BYT $89             ; Man legs
180A  88                 BYT $88             ; Man torso
180B  83                 BYT $83             ; Man head facing right
180C  8C                 BYT $8C             ; Man legs
180D  8B                 BYT $8B             ; Man torso
180E  8A                 BYT $8A             ; Man head facing left
180F  8E                 BYT $8E             ; Man legs
1810  8D                 BYT $8D             ; Man torso
1811  8A                 BYT $8A             ; Man head facing left
1812  90                 BYT $90             ; Man legs
1813  8F                 BYT $8F             ; Man torso
1814  8A                 BYT $8A             ; Man head facing left
1815  9D                 BYT $9D             ; Man legs running right
1816  9C                 BYT $9C             ; Man torso running right
1817  83                 BYT $83             ; Man head facing right
1818  9F                 BYT $9F             ; Man legs running right
1819  9E                 BYT $9E             ; Man torso running right
181A  83                 BYT $83             ; Man head facing right
181B  A1                 BYT $A1             ; Man legs running right
181C  A0                 BYT $A0             ; Man torso running right
181D  83                 BYT $83             ; Man head facing right
181E  A3                 BYT $A3             ; Man legs running left
181F  A2                 BYT $A2             ; Man torso running left
1820  8A                 BYT $8A             ; Man head facing left
1821  A5                 BYT $A5             ; Man legs running left
1822  A4                 BYT $A4             ; Man torso running left
1823  8A                 BYT $8A             ; Man head facing left
1824  A7                 BYT $A7             ; Man legs running left
1825  A6                 BYT $A6             ; Man torso running left
1826  8A                 BYT $8A             ; Man head facing left
1827  92                 BYT $92             ; Man legs crawling right
1828  91                 BYT $91             ; Man torso crawling right
1829  83                 BYT $83             ; Man head facing right
182A  94                 BYT $94             ; Man legs crawling right
182B  93                 BYT $93             ; Man torso crawling right
182C  83                 BYT $83             ; Man head facing right
182D  96                 BYT $96             ; Man legs crawling left
182E  95                 BYT $95             ; Man torso crawling left
182F  8A                 BYT $8A             ; Man head facing left
1830  98                 BYT $98             ; Man legs crawling left
1831  97                 BYT $97             ; Man torso crawling left
1832  8A                 BYT $8A             ; Man head facing left
1833  9B                 BYT $9B             ; Man legs falling
1834  9A                 BYT $9A             ; Man torso falling
1835  83                 BYT $83             ; Man head facing right
1836  9F                 BYT $9F             ; Man legs ... right
1837  9E                 BYT $9E             ; Man torso ... right
1838  83                 BYT $83             ; Man head facing right
1839  A9                 BYT $A9             ; Man legs jumping right
183A  A8                 BYT $A8             ; Man torso jumping right
183B  83                 BYT $83             ; Man head facing right
183C  AA                 BYT $AA             ; Man legs jumping right
183D  A8                 BYT $A8             ; Man torso jumping right
183E  83                 BYT $83             ; Man head facing right
183F  AC                 BYT $AC             ; Man legs jumping right
1840  AB                 BYT $AB             ; Man torso jumping right
1841  83                 BYT $83             ; Man head facing right
1842  A5                 BYT $A5             ; Man legs ... left
1843  A4                 BYT $A4             ; Man torso ... left
1844  8A                 BYT $8A             ; Man head ... left
1845  AE                 BYT $AE             ; Man legs jumping left
1846  AD                 BYT $AD             ; Man torso jumping left
1847  8A                 BYT $8A             ; Man head facing left
1848  AF                 BYT $AF             ; Man legs jumping left
1849  AD                 BYT $AD             ; Man torso jumping left
184A  8A                 BYT $8A             ; Man head facing left
184B  B1                 BYT $B1             ; Man legs jumping left
184C  B0                 BYT $B0             ; Man torso jumping left
184D  8A                 BYT $8A             ; Man head facing left
184E  AC                 BYT $AC             ; Man legs jumping right
184F  AB                 BYT $AB             ; Man torso jumping right
1850  83                 BYT $83             ; Man head facing right
1851  B4                 BYT $B4             ; 180      4
1852  B3                 BYT $B3             ; 179      3
1853  B2                 BYT $B2             ; 178      2
1854  B7                 BYT $B7             ; Man legs lying left
1855  B6                 BYT $B6             ; Man torso lying left
1856  B5                 BYT $B5             ; Man head lying left
1857  B1                 BYT $B1             ; Man legs jumping left
1858  B0                 BYT $B0             ; Man torso jumping left
1859  8A                 BYT $8A             ; Man head facing left
185A  BA                 BYT $BA
185B  B9                 BYT $B9
185C  B8                 BYT $B8
185D  BD                 BYT $BD             ; Man legs lying right
185E  BC                 BYT $BC             ; Man torso lying right
185F  BB                 BYT $BB             ; Man head lying right
1860  9D                 BYT $9D             ; Man legs running right
1861  9C                 BYT $9C             ; Man torso running right
1862  83                 BYT $83             ; Man head facing right
1863  AC                 BYT $AC             ; Man legs jumping right
1864  AB                 BYT $AB             ; Man torso jumping right
1865  83                 BYT $83             ; Man head facing right
1866  A1                 BYT $A1             ; Man legs running right
1867  A0                 BYT $A0             ; Man torso running right
1868  83                 BYT $83             ; Man head facing right
1869  A3                 BYT $A3             ; Man legs running left
186A  A2                 BYT $A2             ; Man torso running left
186B  8A                 BYT $8A             ; Man head facing left
186C  B1                 BYT $B1             ; Man legs jumping left
186D  B0                 BYT $B0             ; Man torso jumping left
186E  8A                 BYT $8A             ; Man head facing left
186F  A7                 BYT $A7             ; Man legs running left
1870  A6                 BYT $A6             ; Man torso running left
1871  8A                 BYT $8A             ; Man head facing left
1872  00                 BYT $00
1873  00                 BYT $00
1874  00                 BYT $00
                 ;________________________________________
1875  A5 45      L00235  LDA $45
1877  D0 06      L00236  BNE L00237
1879  A9 00              LDA #$00
187B  85 67              STA $67
187D  E6 45              INC $45
187F  60         L00237  RTS
                 ;________________________________________
1880  A5 2F      L00238  LDA $2F
1882  C9 01              CMP #$01
1884  D0 0A              BNE L00239
1886  A5 41              LDA $41
1888  C9 44              CMP #$44
188A  90 E9              BCC L00235
188C  A9 01              LDA #$01
188E  D0 0C              BNE L00240
1890  C9 02      L00239  CMP #$02
1892  D0 E1              BNE L00235
1894  A5 41              LDA $41
1896  C9 78              CMP #$78
1898  B0 DB              BCS L00235
189A  A9 00              LDA #$00
189C  85 43      L00240  STA $43
189E  A9 00              LDA #$00
18A0  85 45              STA $45
18A2  20 30 99           JSR L01496
18A5  EA                 NOP
18A6  EA                 NOP
18A7  EA                 NOP
18A8  EA                 NOP
18A9  EA                 NOP
18AA  C6 42              DEC $42
18AC  F0 01              BEQ L00241
18AE  60                 RTS
18AF  20 15 19   L00241  JSR L00249
18B2  A5 43              LDA $43
18B4  D0 2F              BNE L00245
18B6  A5 44              LDA $44
18B8  D0 21              BNE L00244
18BA  A2 00              LDX #$00
18BC  20 1E 19           JSR L00250          ; Draw elevator cage
18BF  18                 CLC
18C0  A5 40              LDA $40             ; Elevator position LO
18C2  69 A0              ADC #$A0
18C4  85 40              STA $40             ; Elevator position on map down 1 line
18C6  90 02              BCC L00242
18C8  E6 41              INC $41             ; Elevator position HI
18CA  20 15 19   L00242  JSR L00249
18CD  A2 09              LDX #$09
18CF  20 1E 19           JSR L00250          ; Draw elevator cage
18D2  E6 44              INC $44
18D4  A9 06      L00243  LDA #$06
18D6  85 42              STA $42
18D8  4C 60 19           JMP L00257
18DB  A2 12      L00244  LDX #$12
18DD  20 1E 19           JSR L00250          ; Draw elevator cage
18E0  C6 44              DEC $44
18E2  4C D4 18           JMP L00243
18E5  A5 44      L00245  LDA $44
18E7  D0 21              BNE L00248
18E9  A2 00              LDX #$00
18EB  20 1E 19           JSR L00250          ; Draw elevator cage
18EE  38                 SEC
18EF  A5 40              LDA $40             ; Elevator position LO
18F1  E9 A0              SBC #$A0
18F3  85 40              STA $40             ; Elevator position on map up 1 line
18F5  B0 02              BCS L00246
18F7  C6 41              DEC $41             ; Elevator position HI
18F9  20 15 19   L00246  JSR L00249
18FC  A2 12              LDX #$12
18FE  20 1E 19           JSR L00250          ; Draw elevator cage
1901  E6 44              INC $44
1903  A9 06      L00247  LDA #$06
1905  85 42              STA $42
1907  4C 60 19           JMP L00257
190A  A2 09      L00248  LDX #$09
190C  20 1E 19           JSR L00250          ; Draw elevator cage
190F  C6 44              DEC $44
1911  4C 03 19           JMP L00247
                 ;________________________________________
1914  00                 BYT $00             ; Unused ???
                 ;________________________________________
1915  A5 40      L00249  LDA $40             ; Elevator position LO
1917  85 4E              STA $4E
1919  A5 41              LDA $41             ; Elevator position HI
191B  85 4F              STA $4F
191D  60                 RTS
                 ;________________________________________
                 ;
                 ;   Draw elevator cage
                 ;
191E  A9 03      L00250  LDA #$03
1920  85 4D      L00251  STA $4D
1922  A0 02      L00252  LDY #$02
1924  BD 40 19   L00254  LDA $1940,X         ; Elevator characters
1927  91 4E              STA ($4E),Y
1929  E8                 INX
192A  88                 DEY
192B  10 F7              BPL L00254
192D  C6 4D              DEC $4D
192F  F0 0E              BEQ L00256
1931  18                 CLC
1932  A5 4E              LDA $4E
1934  69 A0              ADC #$A0
1936  85 4E              STA $4E
1938  90 E8              BCC L00252
193A  E6 4F              INC $4F
193C  4C 22 19           JMP L00252
193F  60         L00256  RTS
                 ;________________________________________
                 ;
                 ;   Elevator characters
                 ;
1940  20                 BYT $20             ; 32        
1941  20                 BYT $20             ; 32        
1942  20                 BYT $20             ; 32        
1943  20                 BYT $20             ; 32        
1944  20                 BYT $20             ; 32        
1945  20                 BYT $20             ; 32        
1946  20                 BYT $20             ; 32        
1947  20                 BYT $20             ; 32        
1948  20                 BYT $20             ; 32        
1949  82                 BYT $82             ; 130      b
194A  82                 BYT $82             ; 130      b
194B  82                 BYT $82             ; 130      b
194C  83                 BYT $83             ; 131      c
194D  83                 BYT $83             ; 131      c
194E  83                 BYT $83             ; 131      c
194F  84                 BYT $84             ; 132      d
1950  84                 BYT $84             ; 132      d
1951  84                 BYT $84             ; 132      d
1952  85                 BYT $85             ; 133      e
1953  85                 BYT $85             ; 133      e
1954  85                 BYT $85             ; 133      e
1955  83                 BYT $83             ; 131      c
1956  83                 BYT $83             ; 131      c
1957  83                 BYT $83             ; 131      c
1958  86                 BYT $86             ; 134      f
1959  86                 BYT $86             ; 134      f
195A  86                 BYT $86             ; 134      f
195B  00                 BYT $00
195C  00                 BYT $00
195D  00                 BYT $00
195E  00                 BYT $00
195F  00                 BYT $00
                 ;________________________________________
1960  38         L00257  SEC
1961  A5 40              LDA $40             ; Elevator position LO
1963  E9 9F              SBC #$9F
1965  85 40              STA $40
1967  B0 02              BCS L00258
1969  C6 41              DEC $41             ; Elevator position HI
196B  A0 00      L00258  LDY #$00
196D  A9 7F              LDA #$7F            ; Elevator cable
196F  91 40              STA ($40),Y
1971  18                 CLC
1972  A5 40              LDA $40             ; Elevator position LO
1974  69 9F              ADC #$9F
1976  85 40              STA $40
1978  90 02              BCC L00260
197A  E6 41              INC $41             ; Elevator position HI
197C  60         L00260  RTS
                 ;________________________________________
197D  00                 BYT $00
197E  00                 BYT $00
197F  00                 BYT $00
                 ;________________________________________
                 ;
                 ;   Animate volcanic magma & acid pits
                 ;
1980  C6 5B      L00261  DEC $5B
1982  D0 54              BNE L00272
1984  A9 04              LDA #$04            ; Animation speed
1986  85 5B              STA $5B
1988  A9 00              LDA #$00
198A  85 4E              STA $4E
198C  A9 7C              LDA #$7C
198E  85 4F              STA $4F
1990  A0 00              LDY #$00
1992  B1 4E      L00262  LDA ($4E),Y
1994  C9 A9              CMP #$A9
1996  F0 04              BEQ L00263
1998  C9 20              CMP #$20
199A  D0 0F              BNE L00266
199C  AD 04 DC   L00263  LDA $DC04           ; Timer A low byte
199F  C9 20              CMP #$20
19A1  B0 04              BCS L00264
19A3  A9 A9              LDA #$A9
19A5  D0 02              BNE L00265
19A7  A9 20      L00264  LDA #$20
19A9  91 4E      L00265  STA ($4E),Y
19AB  C8         L00266  INY
19AC  C0 A0              CPY #$A0
19AE  D0 E2              BNE L00262
19B0  A9 A0              LDA #$A0
19B2  85 4E              STA $4E
19B4  A9 7C              LDA #$7C
19B6  85 4F              STA $4F
19B8  A0 00              LDY #$00
19BA  B1 4E      L00267  LDA ($4E),Y
19BC  C9 A8              CMP #$A8
19BE  F0 04              BEQ L00268
19C0  C9 AA              CMP #$AA
19C2  D0 0F              BNE L00271
19C4  AD 04 DC   L00268  LDA $DC04           ; Timer A low byte
19C7  C9 30              CMP #$30
19C9  B0 04              BCS L00269
19CB  A9 AA              LDA #$AA
19CD  D0 02              BNE L00270
19CF  A9 A8      L00269  LDA #$A8
19D1  91 4E      L00270  STA ($4E),Y
19D3  C8         L00271  INY
19D4  C0 A0              CPY #$A0
19D6  D0 E2              BNE L00267
19D8  60         L00272  RTS
                 ;________________________________________
19D9  00                 BYT $00
                 ;________________________________________
19DA  60                 RTS
                 ;________________________________________
19DB  60                 RTS
                 ;________________________________________
19DC  60                 RTS
                 ;________________________________________
19DD  60                 RTS
                 ;________________________________________
19DE  60                 RTS
                 ;________________________________________
19DF  60                 RTS
                 ;________________________________________
19E0  C6 48      L00273  DEC $48
19E2  F0 01              BEQ L00274
19E4  60                 RTS
19E5  A5 46      L00274  LDA $46
19E7  85 4E              STA $4E
19E9  A5 47              LDA $47
19EB  85 4F              STA $4F
19ED  A9 01              LDA #$01
19EF  85 49              STA $49
19F1  A2 05              LDX #$05
19F3  A4 49      L00275  LDY $49
19F5  A9 20              LDA #$20
19F7  91 4E      L00276  STA ($4E),Y
19F9  88                 DEY
19FA  10 FB              BPL L00276
19FC  CA                 DEX
19FD  E0 02              CPX #$02
19FF  F0 12              BEQ L00278
1A01  18                 CLC
1A02  A5 4E              LDA $4E
1A04  69 9F              ADC #$9F
1A06  85 4E              STA $4E
1A08  90 02              BCC L00277
1A0A  E6 4F              INC $4F
1A0C  E6 49      L00277  INC $49
1A0E  E6 49              INC $49
1A10  4C F3 19           JMP L00275
1A13  18         L00278  CLC
1A14  A5 4E              LDA $4E
1A16  69 A0              ADC #$A0
1A18  85 4E              STA $4E
1A1A  90 02              BCC L00279
1A1C  E6 4F              INC $4F
1A1E  A4 49      L00279  LDY $49
1A20  A9 20      L00280  LDA #$20
1A22  91 4E      L00281  STA ($4E),Y
1A24  88                 DEY
1A25  10 FB      L00282  BPL L00281
1A27  CA                 DEX
1A28  30 12              BMI L00285
1A2A  18                 CLC
1A2B  A5 4E              LDA $4E
1A2D  69 A1              ADC #$A1
1A2F  85 4E              STA $4E
1A31  90 02              BCC L00284
1A33  E6 4F              INC $4F
1A35  C6 49      L00284  DEC $49
1A37  C6 49              DEC $49
1A39  4C 1E 1A           JMP L00279
1A3C  18         L00285  CLC
1A3D  A5 46              LDA $46
1A3F  69 A1              ADC #$A1
1A41  85 46              STA $46
1A43  90 02              BCC L00286
1A45  E6 47              INC $47
1A47  A5 46      L00286  LDA $46
1A49  85 4E              STA $4E
1A4B  A5 47              LDA $47
1A4D  85 4F              STA $4F
1A4F  A2 05              LDX #$05
1A51  A4 49      L00287  LDY $49
1A53  20 B0 8E   L00288  JSR L01301          ; Random value between $F0 - $FF
1A56  EA                 NOP
1A57  EA                 NOP
1A58  91 4E              STA ($4E),Y
1A5A  88                 DEY
1A5B  10 F6              BPL L00288
1A5D  CA                 DEX
1A5E  E0 02              CPX #$02
1A60  F0 12              BEQ L00290
1A62  18                 CLC
1A63  A5 4E              LDA $4E
1A65  69 9F              ADC #$9F
1A67  85 4E              STA $4E
1A69  90 02              BCC L00289
1A6B  E6 4F              INC $4F
1A6D  E6 49      L00289  INC $49
1A6F  E6 49              INC $49
1A71  4C 51 1A           JMP L00287
1A74  18         L00290  CLC
1A75  A5 4E              LDA $4E
1A77  69 A0              ADC #$A0
1A79  85 4E              STA $4E
1A7B  90 02              BCC L00291
1A7D  E6 4F              INC $4F
1A7F  A4 49      L00291  LDY $49
1A81  20 B0 8E   L00292  JSR L01301          ; Random value between $F0 - $FF
1A84  EA                 NOP
1A85  EA                 NOP
1A86  91 4E              STA ($4E),Y         ; Boulder ???
1A88  88                 DEY
1A89  10 F6              BPL L00292
1A8B  CA                 DEX
1A8C  30 12              BMI L00294
1A8E  18                 CLC
1A8F  A5 4E              LDA $4E
1A91  69 A1              ADC #$A1
1A93  85 4E              STA $4E
1A95  90 02              BCC L00293
1A97  E6 4F              INC $4F
1A99  C6 49      L00293  DEC $49
1A9B  C6 49              DEC $49
1A9D  4C 7F 1A           JMP L00291
1AA0  A9 03      L00294  LDA #$03
1AA2  85 48              STA $48
1AA4  A5 47              LDA $47
1AA6  C9 7A              CMP #$7A
1AA8  90 0C              BCC L00295
1AAA  A9 E8              LDA #$E8
1AAC  85 46              STA $46
1AAE  A9 4B              LDA #$4B
1AB0  85 47              STA $47
1AB2  A9 E0              LDA #$E0
1AB4  85 48              STA $48
1AB6  60         L00295  RTS
                 ;________________________________________
1AB7  60                 RTS
                 ;________________________________________
1AB8  60                 RTS
                 ;________________________________________
1AB9  60                 RTS
                 ;________________________________________
1ABA  60                 RTS
                 ;________________________________________
1ABB  60                 RTS
                 ;________________________________________
1ABC  60                 RTS
                 ;________________________________________
1ABD  60                 RTS
                 ;________________________________________
1ABE  60                 RTS
                 ;________________________________________
1ABF  60                 RTS
                 ;________________________________________
1AC0  C6 4C      L00296  DEC $4C
1AC2  F0 01              BEQ L00297
1AC4  60                 RTS
1AC5  A5 4A      L00297  LDA $4A
1AC7  85 4E              STA $4E
1AC9  A5 4B              LDA $4B
1ACB  85 4F              STA $4F
1ACD  A9 01              LDA #$01
1ACF  85 49              STA $49
1AD1  A2 05              LDX #$05
1AD3  A4 49      L00298  LDY $49
1AD5  A9 20              LDA #$20
1AD7  91 4E      L00299  STA ($4E),Y
1AD9  88                 DEY
1ADA  10 FB              BPL L00299
1ADC  CA                 DEX
1ADD  E0 02              CPX #$02
1ADF  F0 12              BEQ L00301
1AE1  18                 CLC
1AE2  A5 4E              LDA $4E
1AE4  69 9F              ADC #$9F
1AE6  85 4E              STA $4E
1AE8  90 02              BCC L00300
1AEA  E6 4F              INC $4F
1AEC  E6 49      L00300  INC $49
1AEE  E6 49              INC $49
1AF0  4C D3 1A           JMP L00298
1AF3  18         L00301  CLC
1AF4  A5 4E              LDA $4E
1AF6  69 A0              ADC #$A0
1AF8  85 4E              STA $4E
1AFA  90 02              BCC L00302
1AFC  E6 4F              INC $4F
1AFE  A4 49      L00302  LDY $49
1B00  A9 20              LDA #$20
1B02  91 4E      L00303  STA ($4E),Y
1B04  88                 DEY
1B05  10 FB              BPL L00303
1B07  CA                 DEX
1B08  30 12              BMI L00305
1B0A  18                 CLC
1B0B  A5 4E              LDA $4E
1B0D  69 A1              ADC #$A1
1B0F  85 4E              STA $4E
1B11  90 02              BCC L00304
1B13  E6 4F              INC $4F
1B15  C6 49      L00304  DEC $49
1B17  C6 49              DEC $49
1B19  4C FE 1A           JMP L00302
1B1C  18         L00305  CLC
1B1D  A5 4A              LDA $4A
1B1F  69 9F              ADC #$9F
1B21  85 4A              STA $4A
1B23  90 02              BCC L00308
1B25  E6 4B      L00307  INC $4B
1B27  A5 4A      L00308  LDA $4A
1B29  85 4E              STA $4E
1B2B  A5 4B              LDA $4B
1B2D  85 4F              STA $4F
1B2F  A2 05              LDX #$05
1B31  A4 49      L00309  LDY $49
1B33  20 B0 8E   L00310  JSR L01301          ; Random value between $F0 - $FF
1B36  EA                 NOP
1B37  EA                 NOP
1B38  91 4E              STA ($4E),Y
1B3A  88                 DEY
1B3B  10 F6              BPL L00310
1B3D  CA                 DEX
1B3E  E0 02              CPX #$02
1B40  F0 12              BEQ L00312
1B42  18                 CLC
1B43  A5 4E              LDA $4E
1B45  69 9F              ADC #$9F
1B47  85 4E              STA $4E
1B49  90 02              BCC L00311
1B4B  E6 4F              INC $4F
1B4D  E6 49      L00311  INC $49
1B4F  E6 49              INC $49
1B51  4C 31 1B           JMP L00309
1B54  18         L00312  CLC
1B55  A5 4E              LDA $4E
1B57  69 A0              ADC #$A0
1B59  85 4E              STA $4E
1B5B  90 02              BCC L00313
1B5D  E6 4F              INC $4F
1B5F  A4 49      L00313  LDY $49
1B61  20 B0 8E   L00314  JSR L01301          ; Random value between $F0 - $FF
1B64  EA                 NOP
1B65  EA                 NOP
1B66  91 4E              STA ($4E),Y
1B68  88                 DEY
1B69  10 F6              BPL L00314
1B6B  CA                 DEX
1B6C  30 12              BMI L00316
1B6E  18                 CLC
1B6F  A5 4E              LDA $4E
1B71  69 A1              ADC #$A1
1B73  85 4E              STA $4E
1B75  90 02              BCC L00315
1B77  E6 4F              INC $4F
1B79  C6 49      L00315  DEC $49
1B7B  C6 49              DEC $49
1B7D  4C 5F 1B           JMP L00313
1B80  A9 03      L00316  LDA #$03
1B82  85 4C              STA $4C
1B84  A5 4B              LDA $4B
1B86  C9 7A              CMP #$7A
1B88  90 0C              BCC L00317
1B8A  A9 74              LDA #$74
1B8C  85 4A              STA $4A
1B8E  A9 4C              LDA #$4C
1B90  85 4B              STA $4B
1B92  A9 00              LDA #$00
1B94  85 4C              STA $4C
1B96  60         L00317  RTS
                 ;________________________________________
1B97  60                 RTS
                 ;________________________________________
1B98  60                 RTS
                 ;________________________________________
1B99  60                 RTS
                 ;________________________________________
1B9A  EA                 NOP
1B9B  EA                 NOP
1B9C  EA                 NOP
1B9D  EA                 NOP
1B9E  EA                 NOP
1B9F  EA                 NOP
1BA0  C6 57      L00318  DEC $57
1BA2  F0 01              BEQ L00319
1BA4  60                 RTS
1BA5  A9 01      L00319  LDA #$01
1BA7  85 57              STA $57
1BA9  A5 5A              LDA $5A
1BAB  D0 43              BNE L00322
1BAD  AD 04 DC           LDA $DC04           ; Timer A low byte
1BB0  8D 0B D0           STA $D00B           ; SPRITE 5 Y POS
1BB3  29 01              AND #$01
1BB5  D0 17              BNE L00320
1BB7  A9 00              LDA #$00
1BB9  8D 0A D0           STA $D00A           ; SPRITE 5 X POS
1BBC  85 58              STA $58
1BBE  AD 10 D0           LDA $D010
1BC1  29 DF              AND #$DF            ; BIT 5 OFF
1BC3  8D 10 D0           STA $D010
1BC6  A9 C1              LDA #$C1            ; Scarab right
1BC8  8D FD 07           STA $07FD           ; SPRITE 5 PTR
1BCB  4C E4 1B           JMP L00321
1BCE  A9 01      L00320  LDA #$01
1BD0  85 58              STA $58
1BD2  A9 60              LDA #$60
1BD4  8D 0A D0           STA $D00A           ; SPRITE 5 X POS
1BD7  AD 10 D0           LDA $D010
1BDA  09 20              ORA #$20            ; BIT 5 ON
1BDC  8D 10 D0           STA $D010
1BDF  A9 C3              LDA #$C3            ; Scarab left
1BE1  8D FD 07           STA $07FD           ; SPRITE 5 PTR
1BE4  AD 15 D0   L00321  LDA $D015           ; SPRITE DISPLAY
1BE7  09 20              ORA #$20            ; BIT 5 ON
1BE9  8D 15 D0           STA $D015
1BEC  E6 5A              INC $5A
1BEE  60                 RTS
1BEF  EA                 NOP
1BF0  A5 02      L00322  LDA $02
1BF2  29 20              AND #$20            ; IF BIT 5 OFF
1BF4  F0 1C              BEQ L00324
1BF6  CE 0B D0           DEC $D00B           ; SPRITE 5 Y POS
1BF9  E6 59              INC $59
1BFB  A5 59              LDA $59
1BFD  C9 30              CMP #$30
1BFF  90 18              BCC L00325
1C01  AD 15 D0   L00323  LDA $D015           ; SPRITE DISPLAY
1C04  29 DF              AND #$DF            ; BIT 5 OFF
1C06  8D 15 D0           STA $D015
1C09  A9 00              LDA #$00
1C0B  85 57              STA $57
1C0D  85 59              STA $59
1C0F  4C C5 37           JMP L00667
1C12  A9 00      L00324  LDA #$00
1C14  85 59              STA $59
1C16  EE 0B D0           INC $D00B           ; SPRITE 5 Y POS
1C19  AD 0A D0   L00325  LDA $D00A           ; SPRITE 5 X POS
1C1C  C9 A0              CMP #$A0
1C1E  90 07              BCC L00327
1C20  AD 10 D0   L00326  LDA $D010
1C23  29 20              AND #$20            ; IF NOT BIT 5 OFF
1C25  D0 DA              BNE L00323
1C27  AD 1E D0   L00327  LDA $D01E           ; SPRITE-SPRITE COLLISION
1C2A  29 F0              AND #$F0
1C2C  C9 20      L00328  CMP #$20
1C2E  D0 06              BNE L00330
1C30  A6 07      L00329  LDX $07             ; Sprite 5 collided with another sprite
1C32  9A                 TXS
1C33  4C 00 1E           JMP L00372
1C36  A5 58      L00330  LDA $58
1C38  D0 1F              BNE L00334
1C3A  EE 0A D0           INC $D00A           ; SPRITE 5 X POS
1C3D  D0 0B              BNE L00332
1C3F  A9 20              LDA #$20
1C41  85 12              STA $12
1C43  20 80 8E           JSR L01298          ; Set SPRITE X POS MSB
1C46  EA                 NOP
1C47  EE 0A D0           INC $D00A           ; SPRITE 5 X POS
1C4A  AD FD 07   L00332  LDA $07FD           ; SPRITE 5 PTR
1C4D  C9 C1              CMP #$C1            ; First scarab right frame?
1C4F  D0 04              BNE L00333
1C51  EE FD 07           INC $07FD           ; Second scarab right frame
1C54  60                 RTS
1C55  CE FD 07   L00333  DEC $07FD           ; First scarab right frame
1C58  60                 RTS
1C59  CE 0A D0   L00334  DEC $D00A           ; SPRITE 5 X POS
1C5C  D0 0B              BNE L00335
1C5E  A9 20              LDA #$20
1C60  85 12              STA $12
1C62  20 80 8E           JSR L01298          ; Set SPRITE X POS MSB
1C65  EA                 NOP
1C66  CE 0A D0           DEC $D00A           ; SPRITE 5 X POS
1C69  AD FD 07   L00335  LDA $07FD           ; SPRITE 5 PTR
1C6C  C9 C3              CMP #$C3            ; First scarab left frame?
1C6E  D0 04              BNE L00336
1C70  EE FD 07           INC $07FD           ; Second scarab left frame
1C73  60                 RTS
1C74  CE FD 07   L00336  DEC $07FD           ; First scarab left frame
1C77  A9 05              LDA #$05            ; GREEN
1C79  8D 2C D0           STA $D02C           ; SPRITE 5 COLOR
1C7C  60                 RTS
                 ;________________________________________
1C7D  00                 BYT $00
                 ;________________________________________
1C7E  C6 56      L00337  DEC $56
1C80  F0 01              BEQ L00338
1C82  60                 RTS
1C83  A9 01      L00338  LDA #$01
1C85  85 56              STA $56
1C87  A5 55              LDA $55
1C89  D0 48              BNE L00342
1C8B  AD 04 DC           LDA $DC04           ; Timer A low byte
1C8E  8D 08 D0           STA $D008           ; SPRITE 4 X POS
1C91  C9 40              CMP #$40
1C93  B0 0F              BCS L00339
1C95  29 02              AND #$02
1C97  D0 0B              BNE L00339
1C99  AD 10 D0           LDA $D010
1C9C  09 10              ORA #$10            ; BIT 4 ON
1C9E  8D 10 D0           STA $D010
1CA1  4C AC 1C           JMP L00340
1CA4  AD 10 D0   L00339  LDA $D010
1CA7  29 EF              AND #$EF            ; BIT 4 OFF
1CA9  8D 10 D0           STA $D010
1CAC  A9 00      L00340  LDA #$00
1CAE  8D 09 D0           STA $D009           ; SPRITE 4 Y POS
1CB1  E6 55              INC $55
1CB3  A9 C0              LDA #$C0            ; Rock
1CB5  8D FC 07           STA $07FC           ; SPRITE 4 PTR
1CB8  A9 06              LDA #$06            ; BLUE
1CBA  8D 2B D0           STA $D02B           ; SPRITE 4 COLOR
1CBD  AD 1C D0           LDA $D01C           ; SPRITE MULTICOLOR MODE
1CC0  09 10              ORA #$10            ; BIT 4 ON
1CC2  8D 1C D0           STA $D01C
1CC5  A5 67              LDA $67
1CC7  D0 09              BNE L00341
1CC9  A9 88              LDA #$88
1CCB  85 67              STA $67
1CCD  A9 81              LDA #$81            ; ENABLE
1CCF  8D 12 D4           STA $D412           ; VOICE 3
1CD2  60         L00341  RTS
1CD3  A2 03      L00342  LDX #$03
1CD5  4C D9 37   L00343  JMP L00670
                 ;________________________________________
1CD8  EA                 NOP
1CD9  85 56      L00344  STA $56
1CDB  AD 15 D0           LDA $D015           ; SPRITE DISPLAY
1CDE  29 EF              AND #$EF            ; BIT 4 OFF
1CE0  8D 15 D0           STA $D015
1CE3  60         L00345  RTS
                 ;________________________________________
1CE4  CA         L00346  DEX
1CE5  10 EE              BPL L00343
1CE7  AD 1E D0           LDA $D01E           ; SPRITE-SPRITE COLLISION
1CEA  85 08              STA $08
1CEC  29 F0              AND #$F0
1CEE  C9 10              CMP #$10
1CF0  D0 F1              BNE L00345
1CF2  AD 15 D0           LDA $D015           ; Sprite 4 collided with another sprite
1CF5  29 EF              AND #$EF            ; BIT 4 OFF
1CF7  8D 15 D0           STA $D015           ; SPRITE DISPLAY
1CFA  A6 07              LDX $07
1CFC  9A                 TXS
1CFD  4C E0 0E           JMP L00042
                 ;________________________________________
1D00  C6 5D      L00347  DEC $5D
1D02  F0 01              BEQ L00348
1D04  60                 RTS
1D05  A9 01      L00348  LDA #$01
1D07  85 5D              STA $5D
1D09  A5 5C              LDA $5C
1D0B  D0 40              BNE L00353
1D0D  AD 04 DC           LDA $DC04           ; Timer A low byte
1D10  8D 0D D0           STA $D00D           ; SPRITE 6 Y POS
1D13  29 07              AND #$07
1D15  85 5E              STA $5E
1D17  29 01              AND #$01
1D19  D0 10              BNE L00351
1D1B  A9 00              LDA #$00
1D1D  8D 0C D0           STA $D00C           ; SPRITE 6 X POS
1D20  AD 10 D0   L00349  LDA $D010
1D23  29 BF              AND #$BF            ; BIT 6 OFF
1D25  8D 10 D0           STA $D010
1D28  4C 38 1D           JMP L00352
1D2B  A9 60      L00351  LDA #$60
1D2D  8D 0C D0           STA $D00C           ; SPRITE 6 X POS
1D30  AD 10 D0           LDA $D010
1D33  09 40              ORA #$40            ; BIT 6 ON
1D35  8D 10 D0           STA $D010
1D38  A9 C5      L00352  LDA #$C5            ; Bat first frame
1D3A  8D FE 07           STA $07FE           ; SPRITE 6 PTR
1D3D  A9 02              LDA #$02            ; RED
1D3F  8D 2D D0           STA $D02D           ; SPRITE 6 COLOR
1D42  AD 15 D0           LDA $D015           ; SPRITE DISPLAY
1D45  09 40              ORA #$40            ; BIT 6 ON
1D47  8D 15 D0           STA $D015
1D4A  E6 5C              INC $5C
1D4C  60                 RTS
1D4D  A2 02      L00353  LDX #$02
1D4F  A5 5E      L00354  LDA $5E
1D51  29 01              AND #$01            ; IF NOT BIT 0 OFF
1D53  D0 06              BNE L00355
1D55  20 A9 1D           JSR L00365
1D58  4C 5E 1D           JMP L00356
1D5B  20 E8 1D   L00355  JSR L00370
1D5E  A5 5E      L00356  LDA $5E
1D60  C9 03              CMP #$03
1D62  90 0D              BCC L00358
1D64  C9 05              CMP #$05
1D66  B0 06              BCS L00357
1D68  EE 0D D0           INC $D00D           ; SPRITE 6 Y POS
1D6B  4C 71 1D           JMP L00358
1D6E  CE 0D D0   L00357  DEC $D00D           ; SPRITE 6 Y POS
1D71  CA         L00358  DEX
1D72  10 DB              BPL L00354
1D74  AD 0C D0           LDA $D00C           ; SPRITE 6 X POS
1D77  C9 A0              CMP #$A0
1D79  90 07              BCC L00359
1D7B  AD 10 D0           LDA $D010
1D7E  29 40              AND #$40            ; IF NOT BIT 6 OFF
1D80  D0 07              BNE L00360
1D82  AD 0D D0   L00359  LDA $D00D           ; SPRITE 6 Y POS
1D85  C9 10              CMP #$10
1D87  B0 03              BCS L00361
1D89  4C C0 1D   L00360  JMP L00367
1D8C  AD 1E D0   L00361  LDA $D01E           ; SPRITE-SPRITE COLLISION
1D8F  29 F0              AND #$F0
1D91  C9 40              CMP #$40
1D93  D0 05              BNE L00362
1D95  4C 30 1C           JMP L00329          ; Sprite 6 collided with another sprite
1D98  EA                 NOP
1D99  EA                 NOP
1D9A  4C D9 1D   L00362  JMP L00368
                 ;________________________________________
1D9D  C9 C5      L00363  CMP #$C5            ; Bat first frame?
1D9F  D0 04              BNE L00364
1DA1  EE FE 07           INC $07FE           ; Bat second frame
1DA4  60                 RTS
1DA5  CE FE 07   L00364  DEC $07FE           ; Bat first frame
1DA8  60                 RTS
                 ;________________________________________
1DA9  EE 0C D0   L00365  INC $D00C           ; SPRITE 6 X POS
1DAC  D0 0A              BNE L00366
1DAE  A9 40              LDA #$40
1DB0  85 12              STA $12
1DB2  20 80 8E           JSR L01298          ; Set SPRITE X POS MSB
1DB5  EE 0C D0           INC $D00C           ; SPRITE 6 X POS
1DB8  60         L00366  RTS
                 ;________________________________________
1DB9  EA                 NOP
1DBA  EA                 NOP
1DBB  EA                 NOP
1DBC  EA                 NOP
1DBD  EA                 NOP
1DBE  EA                 NOP
1DBF  EA                 NOP
1DC0  A9 00      L00367  LDA #$00
1DC2  85 5C              STA $5C
1DC4  85 5D              STA $5D
1DC6  85 67              STA $67
1DC8  AD 15 D0           LDA $D015           ; SPRITE DISPLAY
1DCB  29 BF              AND #$BF            ; BIT 6 OFF
1DCD  8D 15 D0           STA $D015
1DD0  60                 RTS
                 ;________________________________________
1DD1  EA                 NOP
1DD2  EA                 NOP
1DD3  EA                 NOP
1DD4  EA                 NOP
1DD5  EA                 NOP
1DD6  EA                 NOP
1DD7  EA                 NOP
1DD8  EA                 NOP
1DD9  C6 5F      L00368  DEC $5F
1DDB  D0 0A              BNE L00369
1DDD  A9 04              LDA #$04
1DDF  85 5F              STA $5F
1DE1  AD FE 07           LDA $07FE           ; SPRITE 6 PTR  (Bat)
1DE4  4C 9D 1D           JMP L00363
1DE7  60         L00369  RTS
                 ;________________________________________
1DE8  CE 0C D0   L00370  DEC $D00C           ; SPRITE 6 X POS
1DEB  D0 0A              BNE L00371
1DED  A9 40              LDA #$40
1DEF  85 12              STA $12
1DF1  20 80 8E           JSR L01298          ; Set SPRITE X POS MSB
1DF4  CE 0C D0           DEC $D00C           ; SPRITE 6 X POS
1DF7  60         L00371  RTS
                 ;________________________________________
1DF8  EA                 BYT $EA
1DF9  00                 BYT $00
1DFA  00                 BYT $00
1DFB  00                 BYT $00
1DFC  00                 BYT $00
1DFD  00                 BYT $00
1DFE  00                 BYT $00
1DFF  00                 BYT $00
                 ;________________________________________
1E00  AD 15 D0   L00372  LDA $D015           ; SPRITE DISPLAY
1E03  29 9F              AND #$9F            ; BIT 5 6 OFF
1E05  8D 15 D0           STA $D015
1E08  4C 00 16           JMP L00207
                 ;________________________________________
1E0B  00                 BYT $00
1E0C  00                 BYT $00
1E0D  00                 BYT $00
1E0E  00                 BYT $00
1E0F  00                 BYT $00
                 ;________________________________________
1E10  AD 11 D0   L00373  LDA $D011           ; VIC CONTROL REGISTER 1
1E13  29 F0              AND #$F0
1E15  09 07              ORA #$07            ; Y-SCROLL = 7
1E17  8D 11 D0           STA $D011           ; VIC CONTROL REGISTER 1
1E1A  AD 16 D0           LDA $D016           ; VIC CONTROL REGISTER 2
1E1D  29 F0              AND #$F0
1E1F  09 07              ORA #$07            ; X-SCROLL = 7
1E21  8D 16 D0           STA $D016           ; VIC CONTROL REGISTER 2
1E24  AD 1F D0           LDA $D01F           ; SPRITE-BACKGROUND COLLISION
1E27  AD 1E D0           LDA $D01E           ; SPRITE-SPRITE COLLISION
1E2A  A9 00              LDA #$00
1E2C  8D 10 D0           STA $D010
1E2F  A9 07              LDA #$07
1E31  EA                 NOP
1E32  8D 1C D0           STA $D01C           ; SPRITE MULTICOLOR MODE
1E35  A9 09              LDA #$09            ; BROWN
1E37  8D 27 D0           STA $D027           ; SPRITE 0 COLOR
1E3A  8D 28 D0           STA $D028           ; SPRITE 1 COLOR
1E3D  8D 29 D0           STA $D029           ; SPRITE 2 COLOR
1E40  A9 08              LDA #$08            ; ORANGE
1E42  8D 25 D0           STA $D025           ; SPRITE MULTICOLOR REGISTER 0
1E45  A9 01              LDA #$01            ; WHITE
1E47  8D 26 D0           STA $D026           ; SPRITE MULTICOLOR REGISTER 1
1E4A  A9 68              LDA #$68
1E4C  8D 05 D0           STA $D005           ; SPRITE 2 Y POS
1E4F  8D 04 D0           STA $D004           ; SPRITE 2 X POS
1E52  A9 A8              LDA #$A8
1E54  8D 1B D0           STA $D01B           ; SPRITE-BACKGROUND PRIORITY
1E57  EA                 NOP
1E58  EA                 NOP
1E59  EA                 NOP
1E5A  A9 07              LDA #$07
1E5C  8D 15 D0           STA $D015           ; SPRITE DISPLAY
1E5F  A9 00              LDA #$00
1E61  85 20      L00374  STA $20
1E63  A2 00              LDX #$00
1E65  20 90 11           JSR L00106          ; Set sprite pointers for man
1E68  38                 SEC
1E69  AD 05 D0           LDA $D005           ; SPRITE 2 Y POS
1E6C  E9 14              SBC #$14
1E6E  8D 03 D0           STA $D003           ; SPRITE 1 Y POS
1E71  38                 SEC
1E72  AD 03 D0           LDA $D003           ; SPRITE 1 Y POS
1E75  E9 0C              SBC #$0C
1E77  8D 01 D0           STA $D001           ; SPRITE 0 Y POS
1E7A  AD 04 D0           LDA $D004           ; SPRITE 2 X POS
1E7D  8D 02 D0           STA $D002           ; SPRITE 1 X POS
1E80  8D 00 D0           STA $D000           ; SPRITE 0 X POS
1E83  A9 01              LDA #$01
1E85  85 2E              STA $2E
1E87  AD 10 D0           LDA $D010
1E8A  29 04              AND #$04            ; IF NOT BIT 2 OFF
1E8C  D0 0B              BNE L00375
1E8E  AD 10 D0           LDA $D010
1E91  29 F8              AND #$F8            ; BIT 0 1 2 OFF
1E93  8D 10 D0           STA $D010
1E96  4C A1 1E           JMP L00376
1E99  AD 10 D0   L00375  LDA $D010
1E9C  09 07              ORA #$07            ; BIT 0 1 2 ON
1E9E  8D 10 D0           STA $D010
1EA1  A9 11      L00376  LDA #$11            ; ENABLE
1EA3  8D 12 D4           STA $D412           ; VOICE 3
1EA6  60                 RTS
                 ;________________________________________
1EA7  00                 BYT $00
1EA8  00                 BYT $00
1EA9  00                 BYT $00
1EAA  00                 BYT $00
1EAB  00                 BYT $00
1EAC  00                 BYT $00
1EAD  00                 BYT $00
1EAE  00                 BYT $00
1EAF  00                 BYT $00
                 ;________________________________________
1EB0  20 00 90   L00377  JSR L01305
1EB3  A5 3A              LDA $3A
1EB5  8D 0E D0           STA $D00E           ; SPRITE 7 X POS
1EB8  A5 3B              LDA $3B
1EBA  8D 0F D0           STA $D00F           ; SPRITE 7 Y POS
1EBD  A9 C7              LDA #$C7            ; Seal
1EBF  8D FF 07           STA $07FF           ; SPRITE 7 PTR
1EC2  A9 07              LDA #$07            ; YELLOW
1EC4  8D 2E D0           STA $D02E           ; SPRITE 7 COLOR
1EC7  AD 15 D0           LDA $D015           ; SPRITE DISPLAY
1ECA  09 80              ORA #$80            ; BIT 7 ON
1ECC  8D 15 D0           STA $D015
1ECF  A9 88              LDA #$88
1ED1  85 3D              STA $3D
1ED3  AD 10 D0           LDA $D010
1ED6  29 7F              AND #$7F            ; BIT 7 OFF
1ED8  8D 10 D0           STA $D010
1EDB  A4 66              LDY $66
1EDD  A9 20              LDA #$20
1EDF  91 64              STA ($64),Y
1EE1  E6 67              INC $67
1EE3  A2 06              LDX #$06
1EE5  BD F9 1E   L00378  LDA $1EF9,X         ; Song pointer - Song no. 5
1EE8  95 30              STA $30,X
1EEA  CA                 DEX
1EEB  10 F8              BPL L00378
1EED  A9 11              LDA #$11            ; ENABLE
1EEF  8D 04 D4           STA $D404           ; VOICE 1
1EF2  8D 0B D4           STA $D40B           ; VOICE 2
1EF5  8D 12 D4           STA $D412           ; VOICE 3
1EF8  60                 RTS
                 ;________________________________________
                 ;
                 ;   Song pointer - Song no. 5
                 ;
1EF9  A0                 BYT $A0
1EFA  87                 BYT $87             ; $87A0 = Location
1EFB  30                 BYT $30
1EFC  00                 BYT $00
1EFD  A0                 BYT $A0
1EFE  87                 BYT $87             ; $87A0 = Start
1EFF  30                 BYT $30
1F00  00                 BYT $00
                 ;________________________________________
1F01  00                 BYT $00
1F02  00                 BYT $00
1F03  00                 BYT $00
1F04  00                 BYT $00
1F05  00                 BYT $00
1F06  00                 BYT $00
1F07  00                 BYT $00
1F08  00                 BYT $00
1F09  00                 BYT $00
1F0A  00                 BYT $00
1F0B  00                 BYT $00
1F0C  00                 BYT $00
1F0D  00                 BYT $00
1F0E  00                 BYT $00
1F0F  00                 BYT $00
                 ;________________________________________
1F10  A5 3D      L00381  LDA $3D
1F12  D0 0C              BNE L00382
1F14  C6 3F              DEC $3F
1F16  D0 08              BNE L00382
1F18  A9 40              LDA #$40
1F1A  85 3F              STA $3F
1F1C  4C 60 1F           JMP L00388
1F1F  EA                 NOP
1F20  A5 10      L00382  LDA $10             ; Position on map LO
1F22  85 12              STA $12
1F24  A5 11              LDA $11             ; Position on map HI
1F26  85 13              STA $13
1F28  A9 00              LDA #$00
1F2A  85 14              STA $14
1F2C  A9 04              LDA #$04
1F2E  85 15              STA $15
1F30  A2 18              LDX #$18
1F32  A0 00      L00384  LDY #$00
1F34  B1 12      L00385  LDA ($12),Y
1F36  91 14              STA ($14),Y         ; Show (initial) game screen
1F38  C8                 INY
1F39  C0 28              CPY #$28
1F3B  D0 F7              BNE L00385
1F3D  18                 CLC
1F3E  A5 12              LDA $12
1F40  69 A0              ADC #$A0
1F42  85 12              STA $12
1F44  90 02              BCC L00386
1F46  E6 13              INC $13
1F48  18         L00386  CLC
1F49  A5 14              LDA $14
1F4B  69 28              ADC #$28
1F4D  85 14              STA $14
1F4F  90 02              BCC L00387
1F51  E6 15              INC $15
1F53  CA         L00387  DEX
1F54  10 DC              BPL L00384
1F56  60                 RTS
                 ;________________________________________
1F57  EA                 NOP
1F58  EA                 NOP
1F59  EA                 NOP
1F5A  EA                 NOP
1F5B  EA                 NOP
1F5C  EA                 NOP
1F5D  EA                 NOP
1F5E  EA                 NOP
1F5F  EA                 NOP
                 ;________________________________________
1F60  A5 10      L00388  LDA $10             ; Position on map LO
1F62  85 12              STA $12
1F64  A5 11              LDA $11             ; Position on map HI
1F66  85 13              STA $13
1F68  A9 00              LDA #$00
1F6A  85 14              STA $14
1F6C  A9 04              LDA #$04
1F6E  85 15              STA $15
1F70  A2 18              LDX #$18
1F72  A0 00      L00389  LDY #$00
1F74  B1 12      L00390  LDA ($12),Y
1F76  91 14              STA ($14),Y
1F78  C9 B0              CMP #$B0
1F7A  D0 0E              BNE L00391
1F7C  A9 20              LDA #$20
1F7E  A5 12              LDA $12
1F80  85 64              STA $64
1F82  A5 13              LDA $13
1F84  85 65              STA $65
1F86  84 66              STY $66
1F88  E6 3D              INC $3D
1F8A  C8         L00391  INY
1F8B  C0 28              CPY #$28
1F8D  D0 E5              BNE L00390
1F8F  18                 CLC
1F90  A5 12              LDA $12
1F92  69 A0              ADC #$A0
1F94  85 12              STA $12
1F96  90 02              BCC L00392
1F98  E6 13              INC $13
1F9A  18         L00392  CLC
1F9B  A5 14              LDA $14
1F9D  69 28              ADC #$28
1F9F  85 14              STA $14
1FA1  90 02              BCC L00393
1FA3  E6 15              INC $15
1FA5  CA         L00393  DEX
1FA6  10 CA              BPL L00389
1FA8  A5 3D              LDA $3D
1FAA  D0 08              BNE L00394
1FAC  AD 15 D0           LDA $D015           ; SPRITE DISPLAY
1FAF  29 7F              AND #$7F            ; BIT 7 OFF
1FB1  8D 15 D0           STA $D015
1FB4  60         L00394  RTS
                 ;________________________________________
1FB5  00                 BYT $00
1FB6  00                 BYT $00
1FB7  00                 BYT $00
1FB8  00                 BYT $00
1FB9  00                 BYT $00
1FBA  00                 BYT $00
1FBB  00                 BYT $00
1FBC  00                 BYT $00
1FBD  00                 BYT $00
1FBE  00                 BYT $00
1FBF  00                 BYT $00
                 ;________________________________________
                 ;
                 ;   Scroll screen right and move sprites
                 ;
1FC0  20 70 35   L00395  JSR L00622          ; Scroll screen right
1FC3  A5 1A              LDA $1A             ; Was scrolling possible?
1FC5  D0 17              BNE L00398
1FC7  A9 80              LDA #$80
1FC9  85 12              STA $12
1FCB  A2 06              LDX #$06
1FCD  FE 08 D0   L00396  INC $D008,X         ; Move all sprites right 1 pixel
1FD0  D0 06              BNE L00397
1FD2  20 80 8E           JSR L01298          ; Set SPRITE X POS MSB
1FD5  FE 08 D0           INC $D008,X
1FD8  46 12      L00397  LSR $12
1FDA  CA                 DEX
1FDB  CA                 DEX
1FDC  10 EF              BPL L00396
1FDE  60         L00398  RTS
                 ;________________________________________
1FDF  00                 BYT $00
                 ;________________________________________
                 ;
                 ;   Scroll screen left and move sprites
                 ;
1FE0  20 40 36   L00399  JSR L00639          ; Scroll screen left
1FE3  A5 1A              LDA $1A             ; Was scrolling possible?
1FE5  D0 17              BNE L00402
1FE7  A9 80              LDA #$80
1FE9  85 12              STA $12
1FEB  A2 06              LDX #$06
1FED  DE 08 D0   L00400  DEC $D008,X         ; Move all sprites left 1 pixel
1FF0  D0 06              BNE L00401
1FF2  20 80 8E           JSR L01298          ; Set SPRITE X POS MSB
1FF5  DE 08 D0           DEC $D008,X
1FF8  46 12      L00401  LSR $12
1FFA  CA                 DEX
1FFB  CA                 DEX
1FFC  10 EF              BPL L00400
1FFE  60         L00402  RTS
                 ;________________________________________
1FFF  00                 BYT $00
                 ;________________________________________
                 ;
                 ;   Sprite definitions start
                 ;
2000  00                 BYT $00
2001  00                 BYT $00
2002  00                 BYT $00
2003  00                 BYT $00
2004  00                 BYT $00
2005  00                 BYT $00
2006  00                 BYT $00
2007  00                 BYT $00
2008  00                 BYT $00
2009  00                 BYT $00
200A  00                 BYT $00
200B  00                 BYT $00
200C  00                 BYT $00
200D  00                 BYT $00
200E  00                 BYT $00
200F  00                 BYT $00
2010  00                 BYT $00
2011  00                 BYT $00
2012  00                 BYT $00
2013  00                 BYT $00
2014  00                 BYT $00
2015  00                 BYT $00
2016  00                 BYT $00
2017  00                 BYT $00
2018  00                 BYT $00
2019  00                 BYT $00
201A  00                 BYT $00
201B  00                 BYT $00
201C  00                 BYT $00
201D  00                 BYT $00
201E  00                 BYT $00
201F  00                 BYT $00
2020  00                 BYT $00
2021  00                 BYT $00
2022  00                 BYT $00
2023  00                 BYT $00
2024  00                 BYT $00
2025  A5                 BYT $A5
2026  00                 BYT $00
2027  00                 BYT $00
2028  A9                 BYT $A9
2029  00                 BYT $00
202A  00                 BYT $00
202B  A9                 BYT $A9             ; 169      )
202C  00                 BYT $00             ; 0         
202D  02                 BYT $02             ; 2        b
202E  AA                 BYT $AA
202F  40                 BYT $40
2030  00                 BYT $00             ; 0         
2031  5F                 BYT $5F             ; 95       GFX
2032  00                 BYT $00
2033  00                 BYT $00             ; 0         
2034  5F                 BYT $5F             ; 95       GFX
2035  00                 BYT $00
2036  00                 BYT $00             ; 0         
2037  1C                 BYT $1C             ; 28       
2038  00                 BYT $00
2039  00                 BYT $00             ; 0         
203A  1C                 BYT $1C             ; 28       
203B  00                 BYT $00
203C  00                 BYT $00
203D  00                 BYT $00
203E  00                 BYT $00
203F  00                 BYT $00
2040  00                 BYT $00
2041  00                 BYT $00
2042  00                 BYT $00
2043  00                 BYT $00
2044  00                 BYT $00
2045  00                 BYT $00
2046  00                 BYT $00
2047  00                 BYT $00
2048  00                 BYT $00
2049  00                 BYT $00
204A  00                 BYT $00
204B  00                 BYT $00
204C  00                 BYT $00
204D  00                 BYT $00
204E  00                 BYT $00
204F  00                 BYT $00
2050  00                 BYT $00
2051  00                 BYT $00
2052  00                 BYT $00
2053  00                 BYT $00
2054  00                 BYT $00
2055  00                 BYT $00
2056  00                 BYT $00
2057  00                 BYT $00
2058  00                 BYT $00
2059  A9                 BYT $A9             ; 169      )
205A  00                 BYT $00             ; 0         
205B  02                 BYT $02             ; 2        b
205C  AA                 BYT $AA
205D  40                 BYT $40
205E  0A                 BYT $0A
205F  AA                 BYT $AA
2060  90                 BYT $90
2061  0A                 BYT $0A
2062  AA                 BYT $AA
2063  90                 BYT $90
2064  0A                 BYT $0A
2065  AA                 BYT $AA
2066  90                 BYT $90
2067  09                 BYT $09
2068  AA                 BYT $AA
2069  90                 BYT $90
206A  09                 BYT $09
206B  A9                 BYT $A9
206C  90                 BYT $90
206D  09                 BYT $09
206E  A9                 BYT $A9
206F  90                 BYT $90
2070  08                 BYT $08
2071  A9                 BYT $A9
2072  10                 BYT $10
2073  08                 BYT $08
2074  A9                 BYT $A9
2075  10                 BYT $10
2076  08                 BYT $08
2077  A9                 BYT $A9
2078  10                 BYT $10
2079  08                 BYT $08             ; 8        h
207A  FF                 BYT $FF             ; 255      GFX
207B  10                 BYT $10
207C  00                 BYT $00
207D  00                 BYT $00
207E  00                 BYT $00
207F  00                 BYT $00
2080  08                 BYT $08             ; 8        h
2081  FF                 BYT $FF             ; 255      GFX
2082  10                 BYT $10
2083  08                 BYT $08
2084  A9                 BYT $A9
2085  10                 BYT $10
2086  08                 BYT $08
2087  A9                 BYT $A9             ; 169      )
2088  10                 BYT $10
2089  0C                 BYT $0C
208A  A9                 BYT $A9
208B  30                 BYT $30
208C  00                 BYT $00
208D  A9                 BYT $A9
208E  00                 BYT $00
208F  00                 BYT $00
2090  A9                 BYT $A9
2091  00                 BYT $00
2092  00                 BYT $00
2093  A9                 BYT $A9
2094  00                 BYT $00
2095  00                 BYT $00
2096  A9                 BYT $A9
2097  00                 BYT $00
2098  00                 BYT $00
2099  99                 BYT $99
209A  00                 BYT $00
209B  00                 BYT $00
209C  99                 BYT $99
209D  00                 BYT $00
209E  00                 BYT $00
209F  99                 BYT $99
20A0  00                 BYT $00
20A1  00                 BYT $00
20A2  99                 BYT $99
20A3  00                 BYT $00
20A4  00                 BYT $00
20A5  99                 BYT $99
20A6  00                 BYT $00
20A7  00                 BYT $00
20A8  99                 BYT $99
20A9  00                 BYT $00
20AA  00                 BYT $00
20AB  99                 BYT $99
20AC  00                 BYT $00
20AD  02                 BYT $02
20AE  99                 BYT $99
20AF  80                 BYT $80
20B0  00                 BYT $00
20B1  00                 BYT $00
20B2  00                 BYT $00
20B3  00                 BYT $00
20B4  00                 BYT $00
20B5  00                 BYT $00
20B6  00                 BYT $00
20B7  00                 BYT $00
20B8  00                 BYT $00
20B9  00                 BYT $00
20BA  00                 BYT $00
20BB  00                 BYT $00
20BC  00                 BYT $00
20BD  00                 BYT $00
20BE  00                 BYT $00
20BF  00                 BYT $00
20C0  00                 BYT $00
20C1  00                 BYT $00
20C2  00                 BYT $00
20C3  00                 BYT $00
20C4  00                 BYT $00
20C5  00                 BYT $00
20C6  00                 BYT $00
20C7  00                 BYT $00
20C8  00                 BYT $00
20C9  00                 BYT $00
20CA  00                 BYT $00
20CB  00                 BYT $00
20CC  00                 BYT $00
20CD  00                 BYT $00
20CE  00                 BYT $00
20CF  00                 BYT $00
20D0  00                 BYT $00
20D1  00                 BYT $00
20D2  00                 BYT $00
20D3  00                 BYT $00
20D4  00                 BYT $00
20D5  00                 BYT $00
20D6  00                 BYT $00
20D7  00                 BYT $00
20D8  00                 BYT $00
20D9  00                 BYT $00
20DA  00                 BYT $00
20DB  00                 BYT $00
20DC  00                 BYT $00
20DD  00                 BYT $00
20DE  00                 BYT $00
20DF  00                 BYT $00
20E0  00                 BYT $00
20E1  00                 BYT $00
20E2  00                 BYT $00
20E3  00                 BYT $00
20E4  00                 BYT $00
20E5  A5                 BYT $A5
20E6  00                 BYT $00
20E7  00                 BYT $00
20E8  A5                 BYT $A5
20E9  00                 BYT $00
20EA  00                 BYT $00
20EB  A9                 BYT $A9
20EC  00                 BYT $00
20ED  0A                 BYT $0A
20EE  A9                 BYT $A9             ; 169      )
20EF  40                 BYT $40             ; 64       GFX
20F0  02                 BYT $02             ; 2        b
20F1  A7                 BYT $A7             ; 167      '
20F2  00                 BYT $00             ; 0         
20F3  02                 BYT $02             ; 2        b
20F4  9F                 BYT $9F             ; 159      _
20F5  00                 BYT $00
20F6  00                 BYT $00             ; 0         
20F7  5C                 BYT $5C             ; 92       GFX
20F8  00                 BYT $00
20F9  00                 BYT $00             ; 0         
20FA  1C                 BYT $1C             ; 28       
20FB  00                 BYT $00
20FC  00                 BYT $00
20FD  00                 BYT $00
20FE  00                 BYT $00
20FF  00                 BYT $00
2100  00                 BYT $00
2101  00                 BYT $00
2102  00                 BYT $00
2103  00                 BYT $00
2104  00                 BYT $00
2105  00                 BYT $00
2106  00                 BYT $00
2107  00                 BYT $00
2108  00                 BYT $00
2109  00                 BYT $00
210A  00                 BYT $00
210B  00                 BYT $00
210C  00                 BYT $00
210D  00                 BYT $00
210E  00                 BYT $00
210F  00                 BYT $00
2110  00                 BYT $00
2111  00                 BYT $00
2112  00                 BYT $00
2113  00                 BYT $00
2114  00                 BYT $00
2115  00                 BYT $00
2116  00                 BYT $00
2117  00                 BYT $00
2118  00                 BYT $00             ; 0         
2119  9C                 BYT $9C             ; 156      
211A  00                 BYT $00
211B  00                 BYT $00             ; 0         
211C  1C                 BYT $1C             ; 28       
211D  00                 BYT $00
211E  00                 BYT $00
211F  A4                 BYT $A4
2120  00                 BYT $00
2121  00                 BYT $00
2122  99                 BYT $99
2123  00                 BYT $00
2124  00                 BYT $00
2125  59                 BYT $59             ; 89       Y
2126  00                 BYT $00
2127  00                 BYT $00             ; 0         
2128  5A                 BYT $5A             ; 90       Z
2129  00                 BYT $00
212A  01                 BYT $01
212B  5A                 BYT $5A
212C  00                 BYT $00
212D  01                 BYT $01
212E  5A                 BYT $5A
212F  40                 BYT $40
2130  01                 BYT $01
2131  6A                 BYT $6A
2132  40                 BYT $40
2133  01                 BYT $01
2134  6A                 BYT $6A
2135  40                 BYT $40
2136  05                 BYT $05             ; 5        e
2137  6A                 BYT $6A             ; 106      GFX
2138  9C                 BYT $9C             ; 156      
2139  05                 BYT $05
213A  2A                 BYT $2A
213B  AC                 BYT $AC
213C  00                 BYT $00
213D  00                 BYT $00
213E  00                 BYT $00
213F  00                 BYT $00
2140  05                 BYT $05
2141  2A                 BYT $2A
2142  00                 BYT $00             ; 0         
2143  04                 BYT $04             ; 4        d
2144  3F                 BYT $3F             ; 63       ?
2145  00                 BYT $00             ; 0         
2146  04                 BYT $04             ; 4        d
2147  3F                 BYT $3F             ; 63       ?
2148  00                 BYT $00             ; 0         
2149  0C                 BYT $0C             ; 12       l
214A  15                 BYT $15             ; 21       u
214B  00                 BYT $00             ; 0         
214C  0C                 BYT $0C             ; 12       l
214D  15                 BYT $15
214E  00                 BYT $00
214F  00                 BYT $00
2150  95                 BYT $95
2151  00                 BYT $00
2152  00                 BYT $00
2153  95                 BYT $95
2154  00                 BYT $00
2155  00                 BYT $00
2156  95                 BYT $95             ; 149      u
2157  00                 BYT $00             ; 0         
2158  02                 BYT $02             ; 2        b
2159  A5                 BYT $A5             ; 165      %
215A  40                 BYT $40             ; 64       GFX
215B  02                 BYT $02             ; 2        b
215C  A5                 BYT $A5             ; 165      %
215D  40                 BYT $40             ; 64       GFX
215E  02                 BYT $02             ; 2        b
215F  85                 BYT $85             ; 133      e
2160  40                 BYT $40             ; 64       GFX
2161  02                 BYT $02             ; 2        b
2162  81                 BYT $81
2163  50                 BYT $50
2164  0A                 BYT $0A
2165  81                 BYT $81
2166  50                 BYT $50
2167  0A                 BYT $0A
2168  00                 BYT $00
2169  50                 BYT $50
216A  0A                 BYT $0A
216B  00                 BYT $00
216C  60                 BYT $60
216D  02                 BYT $02             ; 2        b
216E  40                 BYT $40
216F  28                 BYT $28
2170  00                 BYT $00
2171  00                 BYT $00
2172  00                 BYT $00
2173  00                 BYT $00
2174  00                 BYT $00
2175  00                 BYT $00
2176  00                 BYT $00
2177  00                 BYT $00
2178  00                 BYT $00
2179  00                 BYT $00
217A  00                 BYT $00
217B  00                 BYT $00
217C  00                 BYT $00
217D  00                 BYT $00
217E  00                 BYT $00
217F  00                 BYT $00
2180  00                 BYT $00
2181  00                 BYT $00
2182  00                 BYT $00
2183  00                 BYT $00
2184  00                 BYT $00
2185  00                 BYT $00
2186  00                 BYT $00
2187  00                 BYT $00
2188  00                 BYT $00
2189  00                 BYT $00
218A  00                 BYT $00
218B  00                 BYT $00
218C  00                 BYT $00
218D  00                 BYT $00
218E  00                 BYT $00
218F  00                 BYT $00
2190  00                 BYT $00
2191  00                 BYT $00
2192  00                 BYT $00
2193  00                 BYT $00
2194  00                 BYT $00
2195  00                 BYT $00
2196  00                 BYT $00
2197  00                 BYT $00
2198  00                 BYT $00
2199  28                 BYT $28
219A  00                 BYT $00
219B  00                 BYT $00
219C  9A                 BYT $9A
219D  00                 BYT $00             ; 0         
219E  02                 BYT $02             ; 2        b
219F  96                 BYT $96             ; 150      v
21A0  00                 BYT $00             ; 0         
21A1  02                 BYT $02             ; 2        b
21A2  96                 BYT $96             ; 150      v
21A3  00                 BYT $00             ; 0         
21A4  02                 BYT $02             ; 2        b
21A5  96                 BYT $96             ; 150      v
21A6  00                 BYT $00             ; 0         
21A7  02                 BYT $02             ; 2        b
21A8  A6                 BYT $A6             ; 166      &
21A9  00                 BYT $00             ; 0         
21AA  02                 BYT $02             ; 2        b
21AB  A6                 BYT $A6             ; 166      &
21AC  00                 BYT $00             ; 0         
21AD  02                 BYT $02             ; 2        b
21AE  A6                 BYT $A6             ; 166      &
21AF  00                 BYT $00             ; 0         
21B0  02                 BYT $02             ; 2        b
21B1  A6                 BYT $A6             ; 166      &
21B2  00                 BYT $00             ; 0         
21B3  02                 BYT $02             ; 2        b
21B4  A5                 BYT $A5             ; 165      %
21B5  00                 BYT $00             ; 0         
21B6  02                 BYT $02             ; 2        b
21B7  A5                 BYT $A5             ; 165      %
21B8  00                 BYT $00             ; 0         
21B9  02                 BYT $02             ; 2        b
21BA  F5                 BYT $F5
21BB  00                 BYT $00
21BC  00                 BYT $00
21BD  00                 BYT $00
21BE  00                 BYT $00
21BF  00                 BYT $00
21C0  00                 BYT $00
21C1  F5                 BYT $F5
21C2  00                 BYT $00
21C3  00                 BYT $00
21C4  55                 BYT $55
21C5  00                 BYT $00
21C6  00                 BYT $00             ; 0         
21C7  57                 BYT $57             ; 87       W
21C8  00                 BYT $00
21C9  00                 BYT $00             ; 0         
21CA  57                 BYT $57             ; 87       W
21CB  00                 BYT $00
21CC  00                 BYT $00             ; 0         
21CD  54                 BYT $54             ; 84       T
21CE  00                 BYT $00
21CF  00                 BYT $00             ; 0         
21D0  54                 BYT $54             ; 84       T
21D1  00                 BYT $00
21D2  00                 BYT $00
21D3  94                 BYT $94
21D4  00                 BYT $00
21D5  00                 BYT $00
21D6  94                 BYT $94
21D7  00                 BYT $00
21D8  00                 BYT $00
21D9  94                 BYT $94
21DA  00                 BYT $00
21DB  00                 BYT $00
21DC  94                 BYT $94
21DD  00                 BYT $00
21DE  00                 BYT $00
21DF  94                 BYT $94             ; 148      t
21E0  00                 BYT $00             ; 0         
21E1  02                 BYT $02             ; 2        b
21E2  94                 BYT $94             ; 148      t
21E3  00                 BYT $00             ; 0         
21E4  02                 BYT $02             ; 2        b
21E5  94                 BYT $94             ; 148      t
21E6  00                 BYT $00             ; 0         
21E7  02                 BYT $02             ; 2        b
21E8  94                 BYT $94             ; 148      t
21E9  00                 BYT $00             ; 0         
21EA  02                 BYT $02             ; 2        b
21EB  94                 BYT $94
21EC  00                 BYT $00
21ED  00                 BYT $00
21EE  AA                 BYT $AA
21EF  00                 BYT $00
21F0  00                 BYT $00
21F1  00                 BYT $00
21F2  00                 BYT $00
21F3  00                 BYT $00
21F4  00                 BYT $00
21F5  00                 BYT $00
21F6  00                 BYT $00
21F7  00                 BYT $00
21F8  00                 BYT $00
21F9  00                 BYT $00
21FA  00                 BYT $00
21FB  00                 BYT $00
21FC  00                 BYT $00
21FD  00                 BYT $00
21FE  00                 BYT $00
21FF  00                 BYT $00
2200  00                 BYT $00
2201  00                 BYT $00
2202  00                 BYT $00
2203  00                 BYT $00
2204  00                 BYT $00
2205  00                 BYT $00
2206  00                 BYT $00
2207  00                 BYT $00
2208  00                 BYT $00
2209  00                 BYT $00
220A  00                 BYT $00
220B  00                 BYT $00
220C  00                 BYT $00
220D  00                 BYT $00
220E  00                 BYT $00
220F  00                 BYT $00
2210  00                 BYT $00
2211  00                 BYT $00
2212  00                 BYT $00
2213  00                 BYT $00
2214  00                 BYT $00
2215  00                 BYT $00
2216  00                 BYT $00
2217  00                 BYT $00
2218  00                 BYT $00
2219  00                 BYT $00
221A  00                 BYT $00
221B  00                 BYT $00
221C  00                 BYT $00
221D  00                 BYT $00
221E  00                 BYT $00
221F  24                 BYT $24
2220  00                 BYT $00
2221  00                 BYT $00
2222  99                 BYT $99
2223  00                 BYT $00
2224  00                 BYT $00
2225  96                 BYT $96
2226  00                 BYT $00
2227  00                 BYT $00
2228  96                 BYT $96
2229  00                 BYT $00
222A  00                 BYT $00
222B  95                 BYT $95
222C  00                 BYT $00
222D  00                 BYT $00
222E  A5                 BYT $A5             ; 165      %
222F  00                 BYT $00             ; 0         
2230  02                 BYT $02             ; 2        b
2231  A5                 BYT $A5             ; 165      %
2232  40                 BYT $40             ; 64       GFX
2233  02                 BYT $02             ; 2        b
2234  A9                 BYT $A9             ; 169      )
2235  40                 BYT $40             ; 64       GFX
2236  02                 BYT $02             ; 2        b
2237  AA                 BYT $AA             ; 170      *
2238  5C                 BYT $5C             ; 92       GFX
2239  0A                 BYT $0A
223A  2A                 BYT $2A             ; 42       *
223B  1C                 BYT $1C             ; 28       
223C  00                 BYT $00
223D  00                 BYT $00
223E  00                 BYT $00
223F  00                 BYT $00
2240  0A                 BYT $0A
2241  2A                 BYT $2A
2242  00                 BYT $00             ; 0         
2243  0C                 BYT $0C             ; 12       l
2244  3F                 BYT $3F             ; 63       ?
2245  00                 BYT $00             ; 0         
2246  0C                 BYT $0C             ; 12       l
2247  3F                 BYT $3F             ; 63       ?
2248  00                 BYT $00
2249  00                 BYT $00
224A  15                 BYT $15
224B  00                 BYT $00
224C  00                 BYT $00
224D  15                 BYT $15
224E  00                 BYT $00
224F  00                 BYT $00
2250  15                 BYT $15
2251  00                 BYT $00
2252  00                 BYT $00
2253  56                 BYT $56
2254  00                 BYT $00
2255  00                 BYT $00
2256  56                 BYT $56
2257  80                 BYT $80
2258  00                 BYT $00
2259  56                 BYT $56
225A  80                 BYT $80
225B  00                 BYT $00             ; 0         
225C  5A                 BYT $5A             ; 90       Z
225D  80                 BYT $80             ; 128       
225E  01                 BYT $01             ; 1        a
225F  52                 BYT $52             ; 82       R
2260  80                 BYT $80             ; 128       
2261  01                 BYT $01             ; 1        a
2262  42                 BYT $42             ; 66       B
2263  80                 BYT $80             ; 128       
2264  01                 BYT $01
2265  42                 BYT $42
2266  A0                 BYT $A0
2267  05                 BYT $05
2268  00                 BYT $00
2269  A0                 BYT $A0
226A  0A                 BYT $0A
226B  00                 BYT $00
226C  A0                 BYT $A0
226D  0A                 BYT $0A
226E  00                 BYT $00
226F  24                 BYT $24
2270  00                 BYT $00
2271  00                 BYT $00
2272  00                 BYT $00
2273  00                 BYT $00
2274  00                 BYT $00
2275  00                 BYT $00
2276  00                 BYT $00
2277  00                 BYT $00
2278  00                 BYT $00
2279  00                 BYT $00
227A  00                 BYT $00
227B  00                 BYT $00
227C  00                 BYT $00
227D  00                 BYT $00
227E  00                 BYT $00
227F  00                 BYT $00
2280  00                 BYT $00
2281  00                 BYT $00
2282  00                 BYT $00
2283  00                 BYT $00
2284  00                 BYT $00
2285  00                 BYT $00
2286  00                 BYT $00
2287  00                 BYT $00
2288  00                 BYT $00
2289  00                 BYT $00
228A  00                 BYT $00
228B  00                 BYT $00
228C  00                 BYT $00
228D  00                 BYT $00
228E  00                 BYT $00
228F  00                 BYT $00
2290  00                 BYT $00
2291  00                 BYT $00
2292  00                 BYT $00
2293  00                 BYT $00
2294  00                 BYT $00
2295  00                 BYT $00
2296  00                 BYT $00
2297  00                 BYT $00
2298  00                 BYT $00
2299  00                 BYT $00
229A  00                 BYT $00
229B  00                 BYT $00
229C  00                 BYT $00
229D  00                 BYT $00
229E  00                 BYT $00
229F  00                 BYT $00
22A0  00                 BYT $00
22A1  00                 BYT $00
22A2  00                 BYT $00
22A3  00                 BYT $00
22A4  00                 BYT $00             ; 0         
22A5  5A                 BYT $5A             ; 90       Z
22A6  00                 BYT $00
22A7  00                 BYT $00             ; 0         
22A8  5A                 BYT $5A             ; 90       Z
22A9  00                 BYT $00
22AA  00                 BYT $00
22AB  6A                 BYT $6A
22AC  00                 BYT $00
22AD  01                 BYT $01
22AE  6A                 BYT $6A
22AF  A0                 BYT $A0             ; 160       
22B0  00                 BYT $00             ; 0         
22B1  DA                 BYT $DA             ; 218      Z
22B2  80                 BYT $80             ; 128       
22B3  00                 BYT $00
22B4  F6                 BYT $F6
22B5  80                 BYT $80
22B6  00                 BYT $00
22B7  35                 BYT $35
22B8  00                 BYT $00
22B9  00                 BYT $00             ; 0         
22BA  34                 BYT $34             ; 52       4
22BB  00                 BYT $00
22BC  00                 BYT $00
22BD  00                 BYT $00
22BE  00                 BYT $00
22BF  00                 BYT $00
22C0  00                 BYT $00
22C1  00                 BYT $00
22C2  00                 BYT $00
22C3  00                 BYT $00
22C4  00                 BYT $00
22C5  00                 BYT $00
22C6  00                 BYT $00
22C7  00                 BYT $00
22C8  00                 BYT $00
22C9  00                 BYT $00
22CA  00                 BYT $00
22CB  00                 BYT $00
22CC  00                 BYT $00
22CD  00                 BYT $00
22CE  00                 BYT $00
22CF  00                 BYT $00
22D0  00                 BYT $00
22D1  00                 BYT $00
22D2  00                 BYT $00
22D3  00                 BYT $00
22D4  00                 BYT $00
22D5  00                 BYT $00
22D6  00                 BYT $00
22D7  00                 BYT $00
22D8  00                 BYT $00
22D9  36                 BYT $36
22DA  00                 BYT $00
22DB  00                 BYT $00             ; 0         
22DC  34                 BYT $34             ; 52       4
22DD  00                 BYT $00
22DE  00                 BYT $00
22DF  1A                 BYT $1A
22E0  00                 BYT $00
22E1  00                 BYT $00
22E2  66                 BYT $66
22E3  00                 BYT $00
22E4  00                 BYT $00
22E5  65                 BYT $65
22E6  00                 BYT $00
22E7  00                 BYT $00
22E8  A5                 BYT $A5
22E9  00                 BYT $00
22EA  00                 BYT $00
22EB  A5                 BYT $A5
22EC  40                 BYT $40
22ED  01                 BYT $01
22EE  A5                 BYT $A5
22EF  40                 BYT $40
22F0  01                 BYT $01
22F1  A9                 BYT $A9
22F2  40                 BYT $40
22F3  01                 BYT $01
22F4  A9                 BYT $A9
22F5  40                 BYT $40
22F6  36                 BYT $36
22F7  A9                 BYT $A9
22F8  50                 BYT $50
22F9  3A                 BYT $3A
22FA  A8                 BYT $A8
22FB  50                 BYT $50
22FC  00                 BYT $00
22FD  00                 BYT $00
22FE  00                 BYT $00
22FF  00                 BYT $00
2300  00                 BYT $00
2301  A8                 BYT $A8
2302  50                 BYT $50
2303  00                 BYT $00
2304  FC                 BYT $FC
2305  10                 BYT $10
2306  00                 BYT $00
2307  FC                 BYT $FC
2308  10                 BYT $10
2309  00                 BYT $00
230A  54                 BYT $54
230B  30                 BYT $30
230C  00                 BYT $00
230D  54                 BYT $54
230E  30                 BYT $30
230F  00                 BYT $00
2310  56                 BYT $56
2311  00                 BYT $00
2312  00                 BYT $00
2313  56                 BYT $56
2314  00                 BYT $00
2315  00                 BYT $00
2316  56                 BYT $56
2317  00                 BYT $00
2318  01                 BYT $01
2319  5A                 BYT $5A
231A  80                 BYT $80
231B  01                 BYT $01
231C  5A                 BYT $5A
231D  80                 BYT $80
231E  01                 BYT $01
231F  52                 BYT $52
2320  80                 BYT $80
2321  05                 BYT $05
2322  42                 BYT $42
2323  80                 BYT $80
2324  05                 BYT $05
2325  42                 BYT $42
2326  A0                 BYT $A0
2327  05                 BYT $05
2328  00                 BYT $00
2329  A0                 BYT $A0
232A  09                 BYT $09
232B  00                 BYT $00
232C  A0                 BYT $A0
232D  28                 BYT $28
232E  01                 BYT $01
232F  80                 BYT $80
2330  00                 BYT $00
2331  00                 BYT $00
2332  00                 BYT $00
2333  00                 BYT $00
2334  00                 BYT $00
2335  00                 BYT $00
2336  00                 BYT $00
2337  00                 BYT $00
2338  00                 BYT $00
2339  00                 BYT $00
233A  00                 BYT $00
233B  00                 BYT $00
233C  00                 BYT $00
233D  00                 BYT $00
233E  00                 BYT $00
233F  00                 BYT $00
2340  00                 BYT $00
2341  00                 BYT $00
2342  00                 BYT $00
2343  00                 BYT $00
2344  00                 BYT $00
2345  00                 BYT $00
2346  00                 BYT $00
2347  00                 BYT $00
2348  00                 BYT $00
2349  00                 BYT $00
234A  00                 BYT $00
234B  00                 BYT $00
234C  00                 BYT $00
234D  00                 BYT $00
234E  00                 BYT $00
234F  00                 BYT $00
2350  00                 BYT $00
2351  00                 BYT $00
2352  00                 BYT $00
2353  00                 BYT $00
2354  00                 BYT $00
2355  00                 BYT $00
2356  00                 BYT $00
2357  00                 BYT $00
2358  00                 BYT $00
2359  28                 BYT $28
235A  00                 BYT $00
235B  00                 BYT $00
235C  A6                 BYT $A6
235D  00                 BYT $00
235E  00                 BYT $00
235F  96                 BYT $96
2360  80                 BYT $80
2361  00                 BYT $00
2362  96                 BYT $96
2363  80                 BYT $80
2364  00                 BYT $00
2365  96                 BYT $96
2366  80                 BYT $80
2367  00                 BYT $00
2368  9A                 BYT $9A
2369  80                 BYT $80
236A  00                 BYT $00
236B  9A                 BYT $9A
236C  80                 BYT $80
236D  00                 BYT $00
236E  9A                 BYT $9A
236F  80                 BYT $80
2370  00                 BYT $00
2371  9A                 BYT $9A
2372  80                 BYT $80
2373  00                 BYT $00
2374  5A                 BYT $5A
2375  80                 BYT $80
2376  00                 BYT $00
2377  5A                 BYT $5A
2378  80                 BYT $80
2379  00                 BYT $00
237A  5F                 BYT $5F
237B  80                 BYT $80
237C  00                 BYT $00
237D  00                 BYT $00
237E  00                 BYT $00
237F  00                 BYT $00
2380  00                 BYT $00
2381  5F                 BYT $5F
2382  00                 BYT $00
2383  00                 BYT $00
2384  55                 BYT $55
2385  00                 BYT $00
2386  00                 BYT $00
2387  D5                 BYT $D5
2388  00                 BYT $00
2389  00                 BYT $00
238A  D5                 BYT $D5
238B  00                 BYT $00
238C  00                 BYT $00
238D  15                 BYT $15
238E  00                 BYT $00
238F  00                 BYT $00
2390  15                 BYT $15
2391  00                 BYT $00
2392  00                 BYT $00
2393  16                 BYT $16
2394  00                 BYT $00
2395  00                 BYT $00
2396  16                 BYT $16
2397  00                 BYT $00
2398  00                 BYT $00
2399  16                 BYT $16
239A  00                 BYT $00
239B  00                 BYT $00
239C  16                 BYT $16
239D  00                 BYT $00
239E  00                 BYT $00
239F  16                 BYT $16
23A0  00                 BYT $00
23A1  00                 BYT $00
23A2  16                 BYT $16
23A3  80                 BYT $80
23A4  00                 BYT $00
23A5  16                 BYT $16
23A6  80                 BYT $80
23A7  00                 BYT $00
23A8  16                 BYT $16
23A9  80                 BYT $80
23AA  00                 BYT $00
23AB  16                 BYT $16
23AC  80                 BYT $80
23AD  00                 BYT $00
23AE  AA                 BYT $AA
23AF  00                 BYT $00
23B0  00                 BYT $00
23B1  00                 BYT $00
23B2  00                 BYT $00
23B3  00                 BYT $00
23B4  00                 BYT $00
23B5  00                 BYT $00
23B6  00                 BYT $00
23B7  00                 BYT $00
23B8  00                 BYT $00
23B9  00                 BYT $00
23BA  00                 BYT $00
23BB  00                 BYT $00
23BC  00                 BYT $00
23BD  00                 BYT $00
23BE  00                 BYT $00
23BF  00                 BYT $00
23C0  00                 BYT $00
23C1  00                 BYT $00
23C2  00                 BYT $00
23C3  00                 BYT $00
23C4  00                 BYT $00
23C5  00                 BYT $00
23C6  00                 BYT $00
23C7  00                 BYT $00
23C8  00                 BYT $00
23C9  00                 BYT $00
23CA  00                 BYT $00
23CB  00                 BYT $00
23CC  00                 BYT $00
23CD  00                 BYT $00
23CE  00                 BYT $00
23CF  00                 BYT $00
23D0  00                 BYT $00
23D1  00                 BYT $00
23D2  00                 BYT $00
23D3  00                 BYT $00
23D4  00                 BYT $00
23D5  00                 BYT $00
23D6  00                 BYT $00
23D7  00                 BYT $00
23D8  00                 BYT $00
23D9  00                 BYT $00
23DA  00                 BYT $00
23DB  00                 BYT $00
23DC  00                 BYT $00
23DD  00                 BYT $00
23DE  00                 BYT $00
23DF  18                 BYT $18
23E0  00                 BYT $00
23E1  00                 BYT $00
23E2  66                 BYT $66
23E3  00                 BYT $00
23E4  00                 BYT $00
23E5  96                 BYT $96
23E6  00                 BYT $00
23E7  00                 BYT $00
23E8  96                 BYT $96
23E9  00                 BYT $00
23EA  00                 BYT $00
23EB  56                 BYT $56
23EC  00                 BYT $00
23ED  00                 BYT $00
23EE  5A                 BYT $5A
23EF  00                 BYT $00
23F0  01                 BYT $01
23F1  5A                 BYT $5A
23F2  80                 BYT $80
23F3  01                 BYT $01
23F4  6A                 BYT $6A
23F5  80                 BYT $80
23F6  35                 BYT $35
23F7  AA                 BYT $AA
23F8  80                 BYT $80
23F9  34                 BYT $34
23FA  A8                 BYT $A8
23FB  A0                 BYT $A0
23FC  00                 BYT $00
23FD  00                 BYT $00
23FE  00                 BYT $00
23FF  00                 BYT $00
2400  00                 BYT $00
2401  A8                 BYT $A8
2402  00                 BYT $00
2403  00                 BYT $00
2404  FC                 BYT $FC
2405  34                 BYT $34
2406  00                 BYT $00
2407  FC                 BYT $FC
2408  30                 BYT $30
2409  00                 BYT $00
240A  54                 BYT $54
240B  00                 BYT $00
240C  00                 BYT $00
240D  54                 BYT $54
240E  00                 BYT $00
240F  00                 BYT $00
2410  54                 BYT $54
2411  00                 BYT $00
2412  00                 BYT $00
2413  95                 BYT $95
2414  00                 BYT $00
2415  02                 BYT $02
2416  95                 BYT $95
2417  00                 BYT $00
2418  02                 BYT $02
2419  95                 BYT $95
241A  00                 BYT $00
241B  02                 BYT $02
241C  A5                 BYT $A5
241D  00                 BYT $00
241E  02                 BYT $02
241F  85                 BYT $85
2420  40                 BYT $40
2421  02                 BYT $02
2422  81                 BYT $81
2423  40                 BYT $40
2424  0A                 BYT $0A
2425  81                 BYT $81
2426  40                 BYT $40
2427  0A                 BYT $0A
2428  00                 BYT $00
2429  50                 BYT $50
242A  0A                 BYT $0A
242B  00                 BYT $00
242C  A0                 BYT $A0
242D  18                 BYT $18
242E  00                 BYT $00
242F  A0                 BYT $A0
2430  00                 BYT $00
2431  00                 BYT $00
2432  00                 BYT $00
2433  00                 BYT $00
2434  00                 BYT $00
2435  00                 BYT $00
2436  00                 BYT $00
2437  00                 BYT $00
2438  00                 BYT $00
2439  00                 BYT $00
243A  00                 BYT $00
243B  00                 BYT $00
243C  00                 BYT $00
243D  00                 BYT $00
243E  00                 BYT $00
243F  00                 BYT $00
2440  00                 BYT $00
2441  00                 BYT $00
2442  00                 BYT $00
2443  00                 BYT $00
2444  00                 BYT $00
2445  00                 BYT $00
2446  00                 BYT $00
2447  00                 BYT $00
2448  00                 BYT $00
2449  00                 BYT $00
244A  00                 BYT $00
244B  00                 BYT $00
244C  AA                 BYT $AA
244D  00                 BYT $00
244E  00                 BYT $00
244F  AA                 BYT $AA
2450  80                 BYT $80
2451  00                 BYT $00
2452  A9                 BYT $A9
2453  B0                 BYT $B0
2454  00                 BYT $00
2455  A5                 BYT $A5
2456  80                 BYT $80
2457  00                 BYT $00
2458  A5                 BYT $A5
2459  80                 BYT $80
245A  00                 BYT $00
245B  A5                 BYT $A5
245C  40                 BYT $40
245D  00                 BYT $00
245E  A5                 BYT $A5
245F  40                 BYT $40
2460  00                 BYT $00
2461  A5                 BYT $A5
2462  40                 BYT $40
2463  00                 BYT $00
2464  A9                 BYT $A9
2465  50                 BYT $50
2466  00                 BYT $00
2467  A1                 BYT $A1
2468  50                 BYT $50
2469  00                 BYT $00
246A  A0                 BYT $A0
246B  50                 BYT $50
246C  00                 BYT $00
246D  80                 BYT $80
246E  54                 BYT $54
246F  00                 BYT $00
2470  80                 BYT $80
2471  14                 BYT $14
2472  00                 BYT $00
2473  F0                 BYT $F0
2474  14                 BYT $14
2475  00                 BYT $00
2476  00                 BYT $00
2477  04                 BYT $04
2478  00                 BYT $00
2479  00                 BYT $00
247A  0F                 BYT $0F
247B  00                 BYT $00
247C  00                 BYT $00
247D  00                 BYT $00
247E  00                 BYT $00
247F  00                 BYT $00
2480  00                 BYT $00
2481  00                 BYT $00
2482  00                 BYT $00
2483  00                 BYT $00
2484  00                 BYT $00
2485  00                 BYT $00
2486  00                 BYT $00
2487  00                 BYT $00
2488  00                 BYT $00
2489  00                 BYT $00
248A  00                 BYT $00
248B  00                 BYT $00
248C  00                 BYT $00
248D  00                 BYT $00
248E  0A                 BYT $0A
248F  00                 BYT $00
2490  01                 BYT $01
2491  7A                 BYT $7A
2492  00                 BYT $00
2493  05                 BYT $05
2494  7A                 BYT $7A
2495  00                 BYT $00
2496  15                 BYT $15
2497  7A                 BYT $7A
2498  00                 BYT $00
2499  15                 BYT $15
249A  7A                 BYT $7A
249B  00                 BYT $00
249C  15                 BYT $15
249D  7A                 BYT $7A
249E  00                 BYT $00
249F  15                 BYT $15
24A0  7A                 BYT $7A
24A1  00                 BYT $00
24A2  15                 BYT $15
24A3  42                 BYT $42
24A4  00                 BYT $00
24A5  15                 BYT $15
24A6  50                 BYT $50
24A7  0A                 BYT $0A
24A8  A5                 BYT $A5
24A9  54                 BYT $54
24AA  2A                 BYT $2A
24AB  A9                 BYT $A9
24AC  54                 BYT $54
24AD  AA                 BYT $AA
24AE  59                 BYT $59
24AF  54                 BYT $54
24B0  AA                 BYT $AA
24B1  55                 BYT $55
24B2  55                 BYT $55
24B3  A0                 BYT $A0
24B4  55                 BYT $55
24B5  55                 BYT $55
24B6  80                 BYT $80
24B7  45                 BYT $45
24B8  55                 BYT $55
24B9  00                 BYT $00
24BA  40                 BYT $40
24BB  14                 BYT $14
24BC  00                 BYT $00
24BD  00                 BYT $00
24BE  00                 BYT $00
24BF  00                 BYT $00
24C0  00                 BYT $00
24C1  00                 BYT $00
24C2  00                 BYT $00
24C3  00                 BYT $00
24C4  00                 BYT $00
24C5  00                 BYT $00
24C6  00                 BYT $00
24C7  00                 BYT $00
24C8  00                 BYT $00
24C9  00                 BYT $00
24CA  00                 BYT $00
24CB  00                 BYT $00
24CC  AA                 BYT $AA
24CD  00                 BYT $00
24CE  00                 BYT $00
24CF  AA                 BYT $AA
24D0  80                 BYT $80
24D1  00                 BYT $00
24D2  A9                 BYT $A9
24D3  B0                 BYT $B0
24D4  00                 BYT $00
24D5  A5                 BYT $A5
24D6  80                 BYT $80
24D7  00                 BYT $00
24D8  A5                 BYT $A5
24D9  80                 BYT $80
24DA  00                 BYT $00
24DB  A5                 BYT $A5
24DC  80                 BYT $80
24DD  00                 BYT $00
24DE  95                 BYT $95
24DF  80                 BYT $80
24E0  00                 BYT $00
24E1  95                 BYT $95
24E2  80                 BYT $80
24E3  00                 BYT $00
24E4  96                 BYT $96
24E5  A0                 BYT $A0
24E6  00                 BYT $00
24E7  54                 BYT $54
24E8  A0                 BYT $A0
24E9  00                 BYT $00
24EA  50                 BYT $50
24EB  A0                 BYT $A0
24EC  00                 BYT $00
24ED  50                 BYT $50
24EE  28                 BYT $28
24EF  00                 BYT $00
24F0  40                 BYT $40
24F1  28                 BYT $28
24F2  00                 BYT $00
24F3  40                 BYT $40
24F4  0F                 BYT $0F
24F5  00                 BYT $00
24F6  00                 BYT $00
24F7  00                 BYT $00
24F8  00                 BYT $00
24F9  C0                 BYT $C0
24FA  00                 BYT $00
24FB  00                 BYT $00
24FC  00                 BYT $00
24FD  00                 BYT $00
24FE  00                 BYT $00
24FF  00                 BYT $00
2500  00                 BYT $00
2501  00                 BYT $00
2502  00                 BYT $00
2503  00                 BYT $00
2504  00                 BYT $00
2505  00                 BYT $00
2506  00                 BYT $00
2507  00                 BYT $00
2508  00                 BYT $00
2509  00                 BYT $00
250A  00                 BYT $00
250B  00                 BYT $00
250C  00                 BYT $00
250D  00                 BYT $00
250E  0A                 BYT $0A
250F  00                 BYT $00
2510  01                 BYT $01
2511  7A                 BYT $7A
2512  00                 BYT $00
2513  05                 BYT $05
2514  7A                 BYT $7A
2515  00                 BYT $00
2516  15                 BYT $15
2517  7A                 BYT $7A
2518  00                 BYT $00
2519  15                 BYT $15
251A  7A                 BYT $7A
251B  00                 BYT $00
251C  15                 BYT $15
251D  7A                 BYT $7A
251E  00                 BYT $00
251F  15                 BYT $15
2520  7A                 BYT $7A
2521  00                 BYT $00
2522  15                 BYT $15
2523  62                 BYT $62
2524  00                 BYT $00
2525  15                 BYT $15
2526  60                 BYT $60
2527  00                 BYT $00
2528  15                 BYT $15
2529  68                 BYT $68
252A  00                 BYT $00
252B  15                 BYT $15
252C  68                 BYT $68
252D  55                 BYT $55
252E  55                 BYT $55
252F  69                 BYT $69
2530  55                 BYT $55
2531  55                 BYT $55
2532  A9                 BYT $A9
2533  55                 BYT $55
2534  55                 BYT $55
2535  A9                 BYT $A9
2536  45                 BYT $45
2537  55                 BYT $55
2538  A9                 BYT $A9
2539  41                 BYT $41
253A  56                 BYT $56
253B  AB                 BYT $AB
253C  00                 BYT $00
253D  00                 BYT $00
253E  00                 BYT $00
253F  00                 BYT $00
2540  00                 BYT $00
2541  00                 BYT $00
2542  00                 BYT $00
2543  00                 BYT $00
2544  00                 BYT $00
2545  00                 BYT $00
2546  00                 BYT $00
2547  00                 BYT $00
2548  00                 BYT $00
2549  00                 BYT $00
254A  00                 BYT $00
254B  00                 BYT $00
254C  00                 BYT $00
254D  00                 BYT $00
254E  AA                 BYT $AA
254F  00                 BYT $00
2550  02                 BYT $02
2551  AA                 BYT $AA
2552  00                 BYT $00
2553  0E                 BYT $0E
2554  6A                 BYT $6A
2555  00                 BYT $00
2556  02                 BYT $02
2557  5A                 BYT $5A
2558  00                 BYT $00
2559  02                 BYT $02
255A  5A                 BYT $5A
255B  00                 BYT $00
255C  01                 BYT $01
255D  5A                 BYT $5A
255E  00                 BYT $00
255F  01                 BYT $01
2560  5A                 BYT $5A
2561  00                 BYT $00
2562  01                 BYT $01
2563  5A                 BYT $5A
2564  00                 BYT $00
2565  05                 BYT $05
2566  6A                 BYT $6A
2567  00                 BYT $00
2568  05                 BYT $05
2569  4A                 BYT $4A
256A  00                 BYT $00
256B  05                 BYT $05
256C  0A                 BYT $0A
256D  00                 BYT $00
256E  15                 BYT $15
256F  02                 BYT $02
2570  00                 BYT $00
2571  14                 BYT $14
2572  02                 BYT $02
2573  00                 BYT $00
2574  14                 BYT $14
2575  0F                 BYT $0F
2576  00                 BYT $00
2577  10                 BYT $10
2578  00                 BYT $00
2579  00                 BYT $00
257A  F0                 BYT $F0
257B  00                 BYT $00
257C  00                 BYT $00
257D  00                 BYT $00
257E  00                 BYT $00
257F  00                 BYT $00
2580  00                 BYT $00
2581  00                 BYT $00
2582  00                 BYT $00
2583  00                 BYT $00
2584  00                 BYT $00
2585  00                 BYT $00
2586  00                 BYT $00
2587  00                 BYT $00
2588  00                 BYT $00
2589  00                 BYT $00
258A  00                 BYT $00
258B  00                 BYT $00
258C  A0                 BYT $A0
258D  00                 BYT $00
258E  00                 BYT $00
258F  AD                 BYT $AD
2590  40                 BYT $40
2591  00                 BYT $00
2592  AD                 BYT $AD
2593  50                 BYT $50
2594  00                 BYT $00
2595  AD                 BYT $AD
2596  54                 BYT $54
2597  00                 BYT $00
2598  AD                 BYT $AD
2599  54                 BYT $54
259A  00                 BYT $00
259B  AD                 BYT $AD
259C  54                 BYT $54
259D  00                 BYT $00
259E  AD                 BYT $AD
259F  54                 BYT $54
25A0  00                 BYT $00
25A1  81                 BYT $81
25A2  54                 BYT $54
25A3  00                 BYT $00
25A4  05                 BYT $05
25A5  54                 BYT $54
25A6  00                 BYT $00
25A7  15                 BYT $15
25A8  5A                 BYT $5A
25A9  A0                 BYT $A0
25AA  15                 BYT $15
25AB  6A                 BYT $6A
25AC  A8                 BYT $A8
25AD  15                 BYT $15
25AE  65                 BYT $65
25AF  AA                 BYT $AA
25B0  55                 BYT $55
25B1  55                 BYT $55
25B2  AA                 BYT $AA
25B3  55                 BYT $55
25B4  55                 BYT $55
25B5  0A                 BYT $0A
25B6  55                 BYT $55
25B7  51                 BYT $51
25B8  02                 BYT $02
25B9  14                 BYT $14
25BA  01                 BYT $01
25BB  00                 BYT $00
25BC  00                 BYT $00
25BD  00                 BYT $00
25BE  00                 BYT $00
25BF  00                 BYT $00
25C0  00                 BYT $00
25C1  00                 BYT $00
25C2  00                 BYT $00
25C3  00                 BYT $00
25C4  00                 BYT $00
25C5  00                 BYT $00
25C6  00                 BYT $00
25C7  00                 BYT $00
25C8  00                 BYT $00
25C9  00                 BYT $00
25CA  00                 BYT $00
25CB  00                 BYT $00
25CC  00                 BYT $00
25CD  00                 BYT $00
25CE  AA                 BYT $AA
25CF  00                 BYT $00
25D0  02                 BYT $02
25D1  AA                 BYT $AA
25D2  00                 BYT $00
25D3  0E                 BYT $0E
25D4  6A                 BYT $6A
25D5  00                 BYT $00
25D6  02                 BYT $02
25D7  5A                 BYT $5A
25D8  00                 BYT $00
25D9  02                 BYT $02
25DA  5A                 BYT $5A
25DB  00                 BYT $00
25DC  02                 BYT $02
25DD  5A                 BYT $5A
25DE  00                 BYT $00
25DF  02                 BYT $02
25E0  56                 BYT $56
25E1  00                 BYT $00
25E2  02                 BYT $02
25E3  56                 BYT $56
25E4  00                 BYT $00
25E5  0A                 BYT $0A
25E6  96                 BYT $96
25E7  00                 BYT $00
25E8  0A                 BYT $0A
25E9  15                 BYT $15
25EA  00                 BYT $00
25EB  0A                 BYT $0A
25EC  05                 BYT $05
25ED  00                 BYT $00
25EE  28                 BYT $28
25EF  05                 BYT $05
25F0  00                 BYT $00
25F1  28                 BYT $28
25F2  01                 BYT $01
25F3  00                 BYT $00
25F4  F0                 BYT $F0
25F5  01                 BYT $01
25F6  00                 BYT $00
25F7  00                 BYT $00
25F8  00                 BYT $00
25F9  00                 BYT $00
25FA  00                 BYT $00
25FB  03                 BYT $03
25FC  00                 BYT $00
25FD  00                 BYT $00
25FE  00                 BYT $00
25FF  00                 BYT $00
2600  00                 BYT $00
2601  00                 BYT $00
2602  00                 BYT $00
2603  00                 BYT $00
2604  00                 BYT $00
2605  00                 BYT $00
2606  00                 BYT $00
2607  00                 BYT $00
2608  00                 BYT $00
2609  00                 BYT $00
260A  00                 BYT $00
260B  00                 BYT $00
260C  A0                 BYT $A0
260D  00                 BYT $00
260E  00                 BYT $00
260F  AD                 BYT $AD
2610  40                 BYT $40
2611  00                 BYT $00
2612  AD                 BYT $AD
2613  50                 BYT $50
2614  00                 BYT $00
2615  AD                 BYT $AD
2616  54                 BYT $54
2617  00                 BYT $00
2618  AD                 BYT $AD
2619  54                 BYT $54
261A  00                 BYT $00
261B  AD                 BYT $AD
261C  54                 BYT $54
261D  00                 BYT $00
261E  AD                 BYT $AD
261F  54                 BYT $54
2620  00                 BYT $00
2621  89                 BYT $89
2622  54                 BYT $54
2623  00                 BYT $00
2624  09                 BYT $09
2625  54                 BYT $54
2626  00                 BYT $00
2627  29                 BYT $29
2628  54                 BYT $54
2629  00                 BYT $00
262A  29                 BYT $29
262B  54                 BYT $54
262C  00                 BYT $00
262D  69                 BYT $69
262E  55                 BYT $55
262F  55                 BYT $55
2630  6A                 BYT $6A
2631  55                 BYT $55
2632  55                 BYT $55
2633  6A                 BYT $6A
2634  55                 BYT $55
2635  55                 BYT $55
2636  6A                 BYT $6A
2637  55                 BYT $55
2638  51                 BYT $51
2639  EA                 BYT $EA
263A  95                 BYT $95
263B  41                 BYT $41
263C  00                 BYT $00
263D  00                 BYT $00
263E  00                 BYT $00
263F  00                 BYT $00
2640  00                 BYT $00
2641  30                 BYT $30
2642  00                 BYT $00
2643  00                 BYT $00
2644  30                 BYT $30
2645  00                 BYT $00
2646  00                 BYT $00
2647  30                 BYT $30
2648  00                 BYT $00
2649  00                 BYT $00
264A  30                 BYT $30
264B  00                 BYT $00
264C  00                 BYT $00
264D  30                 BYT $30
264E  00                 BYT $00
264F  00                 BYT $00
2650  30                 BYT $30
2651  00                 BYT $00
2652  00                 BYT $00
2653  30                 BYT $30
2654  00                 BYT $00
2655  00                 BYT $00
2656  30                 BYT $30
2657  00                 BYT $00
2658  00                 BYT $00
2659  30                 BYT $30
265A  00                 BYT $00
265B  00                 BYT $00
265C  30                 BYT $30
265D  00                 BYT $00
265E  00                 BYT $00
265F  30                 BYT $30
2660  00                 BYT $00
2661  00                 BYT $00
2662  30                 BYT $30
2663  00                 BYT $00
2664  00                 BYT $00
2665  30                 BYT $30
2666  00                 BYT $00
2667  00                 BYT $00
2668  30                 BYT $30
2669  00                 BYT $00
266A  00                 BYT $00
266B  30                 BYT $30
266C  00                 BYT $00
266D  00                 BYT $00
266E  30                 BYT $30
266F  00                 BYT $00
2670  00                 BYT $00
2671  30                 BYT $30
2672  00                 BYT $00
2673  00                 BYT $00
2674  30                 BYT $30
2675  00                 BYT $00
2676  00                 BYT $00
2677  30                 BYT $30
2678  00                 BYT $00
2679  00                 BYT $00
267A  30                 BYT $30
267B  00                 BYT $00
267C  00                 BYT $00
267D  30                 BYT $30
267E  00                 BYT $00
267F  00                 BYT $00
2680  C0                 BYT $C0
2681  00                 BYT $00
2682  03                 BYT $03
2683  C0                 BYT $C0
2684  00                 BYT $00
2685  03                 BYT $03
2686  A0                 BYT $A0
2687  00                 BYT $00
2688  0A                 BYT $0A
2689  A0                 BYT $A0
268A  00                 BYT $00
268B  0A                 BYT $0A
268C  A0                 BYT $A0
268D  00                 BYT $00
268E  0A                 BYT $0A
268F  A0                 BYT $A0
2690  00                 BYT $00
2691  0A                 BYT $0A
2692  A0                 BYT $A0
2693  00                 BYT $00
2694  0A                 BYT $0A
2695  90                 BYT $90
2696  00                 BYT $00
2697  06                 BYT $06
2698  A4                 BYT $A4
2699  A9                 BYT $A9
269A  1A                 BYT $1A
269B  29                 BYT $29
269C  AA                 BYT $AA
269D  68                 BYT $68
269E  0A                 BYT $0A
269F  AA                 BYT $AA
26A0  A0                 BYT $A0
26A1  0A                 BYT $0A
26A2  AA                 BYT $AA
26A3  A0                 BYT $A0
26A4  02                 BYT $02
26A5  AA                 BYT $AA
26A6  80                 BYT $80
26A7  02                 BYT $02
26A8  AA                 BYT $AA
26A9  80                 BYT $80
26AA  00                 BYT $00
26AB  AA                 BYT $AA
26AC  00                 BYT $00
26AD  00                 BYT $00
26AE  AA                 BYT $AA
26AF  00                 BYT $00
26B0  00                 BYT $00
26B1  AA                 BYT $AA
26B2  00                 BYT $00
26B3  00                 BYT $00
26B4  AA                 BYT $AA
26B5  00                 BYT $00
26B6  00                 BYT $00
26B7  AA                 BYT $AA
26B8  00                 BYT $00
26B9  00                 BYT $00
26BA  FF                 BYT $FF
26BB  00                 BYT $00
26BC  00                 BYT $00
26BD  00                 BYT $00
26BE  00                 BYT $00
26BF  00                 BYT $00
26C0  00                 BYT $00
26C1  FF                 BYT $FF
26C2  00                 BYT $00
26C3  00                 BYT $00
26C4  AA                 BYT $AA
26C5  00                 BYT $00
26C6  00                 BYT $00
26C7  AA                 BYT $AA
26C8  00                 BYT $00
26C9  00                 BYT $00
26CA  AA                 BYT $AA
26CB  40                 BYT $40
26CC  00                 BYT $00
26CD  AA                 BYT $AA
26CE  80                 BYT $80
26CF  01                 BYT $01
26D0  AA                 BYT $AA
26D1  90                 BYT $90
26D2  02                 BYT $02
26D3  A2                 BYT $A2
26D4  A0                 BYT $A0
26D5  02                 BYT $02
26D6  A2                 BYT $A2
26D7  A0                 BYT $A0
26D8  02                 BYT $02
26D9  80                 BYT $80
26DA  A0                 BYT $A0
26DB  02                 BYT $02
26DC  82                 BYT $82
26DD  A0                 BYT $A0
26DE  06                 BYT $06
26DF  82                 BYT $82
26E0  80                 BYT $80
26E1  0A                 BYT $0A
26E2  02                 BYT $02
26E3  80                 BYT $80
26E4  0A                 BYT $0A
26E5  06                 BYT $06
26E6  00                 BYT $00
26E7  0A                 BYT $0A
26E8  0A                 BYT $0A
26E9  00                 BYT $00
26EA  18                 BYT $18
26EB  08                 BYT $08
26EC  00                 BYT $00
26ED  08                 BYT $08
26EE  08                 BYT $08
26EF  00                 BYT $00
26F0  00                 BYT $00
26F1  00                 BYT $00
26F2  00                 BYT $00
26F3  00                 BYT $00
26F4  00                 BYT $00
26F5  00                 BYT $00
26F6  00                 BYT $00
26F7  00                 BYT $00
26F8  00                 BYT $00
26F9  00                 BYT $00
26FA  00                 BYT $00
26FB  00                 BYT $00
26FC  00                 BYT $00
26FD  00                 BYT $00
26FE  00                 BYT $00
26FF  00                 BYT $00
2700  00                 BYT $00
2701  00                 BYT $00
2702  00                 BYT $00
2703  00                 BYT $00
2704  00                 BYT $00
2705  00                 BYT $00
2706  00                 BYT $00
2707  00                 BYT $00
2708  00                 BYT $00
2709  00                 BYT $00
270A  00                 BYT $00
270B  00                 BYT $00
270C  00                 BYT $00
270D  00                 BYT $00
270E  00                 BYT $00
270F  00                 BYT $00
2710  00                 BYT $00
2711  00                 BYT $00
2712  00                 BYT $00
2713  00                 BYT $00
2714  00                 BYT $00
2715  00                 BYT $00
2716  00                 BYT $00
2717  00                 BYT $00
2718  00                 BYT $00
2719  2A                 BYT $2A
271A  00                 BYT $00
271B  00                 BYT $00
271C  A6                 BYT $A6
271D  00                 BYT $00
271E  00                 BYT $00
271F  96                 BYT $96
2720  00                 BYT $00
2721  00                 BYT $00
2722  96                 BYT $96
2723  00                 BYT $00
2724  00                 BYT $00
2725  56                 BYT $56
2726  0C                 BYT $0C
2727  00                 BYT $00
2728  5A                 BYT $5A
2729  1C                 BYT $1C
272A  01                 BYT $01
272B  6A                 BYT $6A
272C  50                 BYT $50
272D  01                 BYT $01
272E  6A                 BYT $6A
272F  50                 BYT $50
2730  01                 BYT $01
2731  B0                 BYT $B0
2732  00                 BYT $00
2733  00                 BYT $00
2734  54                 BYT $54
2735  00                 BYT $00
2736  00                 BYT $00
2737  9F                 BYT $9F
2738  00                 BYT $00
2739  00                 BYT $00
273A  FC                 BYT $FC
273B  00                 BYT $00
273C  00                 BYT $00
273D  00                 BYT $00
273E  00                 BYT $00
273F  00                 BYT $00
2740  00                 BYT $00
2741  FC                 BYT $FC
2742  00                 BYT $00
2743  00                 BYT $00
2744  54                 BYT $54
2745  00                 BYT $00
2746  00                 BYT $00
2747  54                 BYT $54
2748  00                 BYT $00
2749  00                 BYT $00
274A  56                 BYT $56
274B  00                 BYT $00
274C  00                 BYT $00
274D  56                 BYT $56
274E  00                 BYT $00
274F  00                 BYT $00
2750  5A                 BYT $5A
2751  00                 BYT $00
2752  00                 BYT $00
2753  5A                 BYT $5A
2754  00                 BYT $00
2755  00                 BYT $00
2756  5A                 BYT $5A
2757  80                 BYT $80
2758  01                 BYT $01
2759  52                 BYT $52
275A  80                 BYT $80
275B  01                 BYT $01
275C  52                 BYT $52
275D  80                 BYT $80
275E  05                 BYT $05
275F  42                 BYT $42
2760  A0                 BYT $A0
2761  05                 BYT $05
2762  40                 BYT $40
2763  A0                 BYT $A0
2764  25                 BYT $25
2765  00                 BYT $00
2766  A0                 BYT $A0
2767  24                 BYT $24
2768  00                 BYT $00
2769  A0                 BYT $A0
276A  20                 BYT $20
276B  00                 BYT $00
276C  20                 BYT $20
276D  20                 BYT $20
276E  00                 BYT $00
276F  28                 BYT $28
2770  00                 BYT $00
2771  00                 BYT $00
2772  00                 BYT $00
2773  00                 BYT $00
2774  00                 BYT $00
2775  00                 BYT $00
2776  00                 BYT $00
2777  00                 BYT $00
2778  00                 BYT $00
2779  00                 BYT $00
277A  00                 BYT $00
277B  00                 BYT $00
277C  00                 BYT $00
277D  00                 BYT $00
277E  00                 BYT $00
277F  00                 BYT $00
2780  00                 BYT $00
2781  00                 BYT $00
2782  00                 BYT $00
2783  00                 BYT $00
2784  00                 BYT $00
2785  00                 BYT $00
2786  00                 BYT $00
2787  00                 BYT $00
2788  00                 BYT $00
2789  00                 BYT $00
278A  00                 BYT $00
278B  00                 BYT $00
278C  00                 BYT $00
278D  00                 BYT $00
278E  00                 BYT $00
278F  00                 BYT $00
2790  00                 BYT $00
2791  00                 BYT $00
2792  00                 BYT $00
2793  28                 BYT $28
2794  00                 BYT $00
2795  00                 BYT $00
2796  98                 BYT $98
2797  00                 BYT $00
2798  00                 BYT $00
2799  96                 BYT $96
279A  00                 BYT $00
279B  00                 BYT $00
279C  96                 BYT $96
279D  00                 BYT $00
279E  00                 BYT $00
279F  96                 BYT $96
27A0  00                 BYT $00
27A1  00                 BYT $00
27A2  96                 BYT $96
27A3  00                 BYT $00
27A4  01                 BYT $01
27A5  96                 BYT $96
27A6  00                 BYT $00
27A7  01                 BYT $01
27A8  95                 BYT $95
27A9  00                 BYT $00
27AA  01                 BYT $01
27AB  A5                 BYT $A5
27AC  70                 BYT $70
27AD  00                 BYT $00
27AE  A9                 BYT $A9
27AF  70                 BYT $70
27B0  00                 BYT $00
27B1  A8                 BYT $A8
27B2  00                 BYT $00
27B3  00                 BYT $00
27B4  FC                 BYT $FC
27B5  00                 BYT $00
27B6  00                 BYT $00
27B7  FC                 BYT $FC
27B8  00                 BYT $00
27B9  00                 BYT $00
27BA  54                 BYT $54
27BB  00                 BYT $00
27BC  00                 BYT $00
27BD  00                 BYT $00
27BE  00                 BYT $00
27BF  00                 BYT $00
27C0  00                 BYT $00
27C1  54                 BYT $54
27C2  00                 BYT $00
27C3  00                 BYT $00
27C4  54                 BYT $54
27C5  00                 BYT $00
27C6  00                 BYT $00
27C7  54                 BYT $54
27C8  00                 BYT $00
27C9  00                 BYT $00
27CA  54                 BYT $54
27CB  00                 BYT $00
27CC  00                 BYT $00
27CD  54                 BYT $54
27CE  00                 BYT $00
27CF  00                 BYT $00
27D0  54                 BYT $54
27D1  00                 BYT $00
27D2  00                 BYT $00
27D3  14                 BYT $14
27D4  00                 BYT $00
27D5  00                 BYT $00
27D6  14                 BYT $14
27D7  00                 BYT $00
27D8  00                 BYT $00
27D9  14                 BYT $14
27DA  00                 BYT $00
27DB  00                 BYT $00
27DC  94                 BYT $94
27DD  00                 BYT $00
27DE  00                 BYT $00
27DF  94                 BYT $94
27E0  00                 BYT $00
27E1  00                 BYT $00
27E2  94                 BYT $94
27E3  00                 BYT $00
27E4  00                 BYT $00
27E5  94                 BYT $94
27E6  00                 BYT $00
27E7  02                 BYT $02
27E8  94                 BYT $94
27E9  00                 BYT $00
27EA  02                 BYT $02
27EB  14                 BYT $14
27EC  00                 BYT $00
27ED  02                 BYT $02
27EE  1A                 BYT $1A
27EF  00                 BYT $00
27F0  00                 BYT $00
27F1  00                 BYT $00
27F2  00                 BYT $00
27F3  00                 BYT $00
27F4  00                 BYT $00
27F5  00                 BYT $00
27F6  00                 BYT $00
27F7  00                 BYT $00
27F8  00                 BYT $00
27F9  00                 BYT $00
27FA  00                 BYT $00
27FB  00                 BYT $00
27FC  00                 BYT $00
27FD  00                 BYT $00
27FE  00                 BYT $00
27FF  00                 BYT $00
2800  00                 BYT $00
2801  00                 BYT $00
2802  00                 BYT $00
2803  00                 BYT $00
2804  00                 BYT $00
2805  00                 BYT $00
2806  00                 BYT $00
2807  00                 BYT $00
2808  00                 BYT $00
2809  00                 BYT $00
280A  00                 BYT $00
280B  00                 BYT $00
280C  00                 BYT $00
280D  00                 BYT $00
280E  00                 BYT $00
280F  00                 BYT $00
2810  00                 BYT $00
2811  00                 BYT $00
2812  00                 BYT $00
2813  00                 BYT $00
2814  00                 BYT $00
2815  00                 BYT $00
2816  00                 BYT $00
2817  00                 BYT $00
2818  00                 BYT $00
2819  2A                 BYT $2A
281A  00                 BYT $00
281B  00                 BYT $00
281C  A6                 BYT $A6
281D  00                 BYT $00
281E  00                 BYT $00
281F  9A                 BYT $9A
2820  00                 BYT $00
2821  00                 BYT $00
2822  95                 BYT $95
2823  00                 BYT $00
2824  01                 BYT $01
2825  95                 BYT $95
2826  43                 BYT $43
2827  01                 BYT $01
2828  A5                 BYT $A5
2829  47                 BYT $47
282A  05                 BYT $05
282B  A9                 BYT $A9
282C  55                 BYT $55
282D  05                 BYT $05
282E  AA                 BYT $AA
282F  54                 BYT $54
2830  04                 BYT $04
2831  AA                 BYT $AA
2832  10                 BYT $10
2833  05                 BYT $05
2834  A8                 BYT $A8
2835  00                 BYT $00
2836  05                 BYT $05
2837  A8                 BYT $A8
2838  00                 BYT $00
2839  01                 BYT $01
283A  FC                 BYT $FC
283B  00                 BYT $00
283C  00                 BYT $00
283D  00                 BYT $00
283E  00                 BYT $00
283F  00                 BYT $00
2840  01                 BYT $01
2841  FC                 BYT $FC
2842  00                 BYT $00
2843  03                 BYT $03
2844  54                 BYT $54
2845  00                 BYT $00
2846  00                 BYT $00
2847  54                 BYT $54
2848  00                 BYT $00
2849  00                 BYT $00
284A  54                 BYT $54
284B  00                 BYT $00
284C  00                 BYT $00
284D  55                 BYT $55
284E  00                 BYT $00
284F  00                 BYT $00
2850  95                 BYT $95
2851  00                 BYT $00
2852  00                 BYT $00
2853  95                 BYT $95
2854  40                 BYT $40
2855  00                 BYT $00
2856  A5                 BYT $A5
2857  40                 BYT $40
2858  02                 BYT $02
2859  A5                 BYT $A5
285A  50                 BYT $50
285B  02                 BYT $02
285C  A1                 BYT $A1
285D  50                 BYT $50
285E  02                 BYT $02
285F  A0                 BYT $A0
2860  50                 BYT $50
2861  0A                 BYT $0A
2862  80                 BYT $80
2863  50                 BYT $50
2864  2A                 BYT $2A
2865  80                 BYT $80
2866  50                 BYT $50
2867  2A                 BYT $2A
2868  00                 BYT $00
2869  50                 BYT $50
286A  28                 BYT $28
286B  00                 BYT $00
286C  10                 BYT $10
286D  20                 BYT $20
286E  00                 BYT $00
286F  14                 BYT $14
2870  00                 BYT $00
2871  00                 BYT $00
2872  00                 BYT $00
2873  00                 BYT $00
2874  00                 BYT $00
2875  00                 BYT $00
2876  00                 BYT $00
2877  00                 BYT $00
2878  00                 BYT $00
2879  00                 BYT $00
287A  00                 BYT $00
287B  00                 BYT $00
287C  00                 BYT $00
287D  00                 BYT $00
287E  00                 BYT $00
287F  00                 BYT $00
2880  00                 BYT $00
2881  00                 BYT $00
2882  00                 BYT $00
2883  00                 BYT $00
2884  00                 BYT $00
2885  00                 BYT $00
2886  00                 BYT $00
2887  00                 BYT $00
2888  00                 BYT $00
2889  00                 BYT $00
288A  00                 BYT $00
288B  00                 BYT $00
288C  00                 BYT $00
288D  00                 BYT $00
288E  00                 BYT $00
288F  00                 BYT $00
2890  00                 BYT $00
2891  00                 BYT $00
2892  00                 BYT $00
2893  00                 BYT $00
2894  00                 BYT $00
2895  00                 BYT $00
2896  00                 BYT $00
2897  00                 BYT $00
2898  00                 BYT $00
2899  A8                 BYT $A8
289A  00                 BYT $00
289B  00                 BYT $00
289C  9A                 BYT $9A
289D  00                 BYT $00
289E  00                 BYT $00
289F  96                 BYT $96
28A0  00                 BYT $00
28A1  00                 BYT $00
28A2  96                 BYT $96
28A3  00                 BYT $00
28A4  30                 BYT $30
28A5  95                 BYT $95
28A6  00                 BYT $00
28A7  34                 BYT $34
28A8  A5                 BYT $A5
28A9  00                 BYT $00
28AA  05                 BYT $05
28AB  A9                 BYT $A9
28AC  40                 BYT $40
28AD  05                 BYT $05
28AE  A9                 BYT $A9
28AF  40                 BYT $40
28B0  00                 BYT $00
28B1  25                 BYT $25
28B2  40                 BYT $40
28B3  00                 BYT $00
28B4  15                 BYT $15
28B5  00                 BYT $00
28B6  00                 BYT $00
28B7  F6                 BYT $F6
28B8  00                 BYT $00
28B9  00                 BYT $00
28BA  3F                 BYT $3F
28BB  00                 BYT $00
28BC  00                 BYT $00
28BD  00                 BYT $00
28BE  00                 BYT $00
28BF  00                 BYT $00
28C0  00                 BYT $00
28C1  3F                 BYT $3F
28C2  00                 BYT $00
28C3  00                 BYT $00
28C4  15                 BYT $15
28C5  00                 BYT $00
28C6  00                 BYT $00
28C7  15                 BYT $15
28C8  00                 BYT $00
28C9  00                 BYT $00
28CA  95                 BYT $95
28CB  00                 BYT $00
28CC  00                 BYT $00
28CD  95                 BYT $95
28CE  00                 BYT $00
28CF  00                 BYT $00
28D0  A5                 BYT $A5
28D1  00                 BYT $00
28D2  00                 BYT $00
28D3  A5                 BYT $A5
28D4  00                 BYT $00
28D5  02                 BYT $02
28D6  A5                 BYT $A5
28D7  00                 BYT $00
28D8  02                 BYT $02
28D9  85                 BYT $85
28DA  40                 BYT $40
28DB  02                 BYT $02
28DC  85                 BYT $85
28DD  40                 BYT $40
28DE  0A                 BYT $0A
28DF  81                 BYT $81
28E0  50                 BYT $50
28E1  0A                 BYT $0A
28E2  01                 BYT $01
28E3  50                 BYT $50
28E4  0A                 BYT $0A
28E5  00                 BYT $00
28E6  58                 BYT $58
28E7  0A                 BYT $0A
28E8  00                 BYT $00
28E9  18                 BYT $18
28EA  08                 BYT $08
28EB  00                 BYT $00
28EC  08                 BYT $08
28ED  28                 BYT $28
28EE  00                 BYT $00
28EF  08                 BYT $08
28F0  00                 BYT $00
28F1  00                 BYT $00
28F2  00                 BYT $00
28F3  00                 BYT $00
28F4  00                 BYT $00
28F5  00                 BYT $00
28F6  00                 BYT $00
28F7  00                 BYT $00
28F8  00                 BYT $00
28F9  00                 BYT $00
28FA  00                 BYT $00
28FB  00                 BYT $00
28FC  00                 BYT $00
28FD  00                 BYT $00
28FE  00                 BYT $00
28FF  00                 BYT $00
2900  00                 BYT $00
2901  00                 BYT $00
2902  00                 BYT $00
2903  00                 BYT $00
2904  00                 BYT $00
2905  00                 BYT $00
2906  00                 BYT $00
2907  00                 BYT $00
2908  00                 BYT $00
2909  00                 BYT $00
290A  00                 BYT $00
290B  00                 BYT $00
290C  00                 BYT $00
290D  00                 BYT $00
290E  00                 BYT $00
290F  00                 BYT $00
2910  00                 BYT $00
2911  00                 BYT $00
2912  00                 BYT $00
2913  28                 BYT $28
2914  00                 BYT $00
2915  00                 BYT $00
2916  26                 BYT $26
2917  00                 BYT $00
2918  00                 BYT $00
2919  96                 BYT $96
291A  00                 BYT $00
291B  00                 BYT $00
291C  96                 BYT $96
291D  00                 BYT $00
291E  00                 BYT $00
291F  96                 BYT $96
2920  00                 BYT $00
2921  00                 BYT $00
2922  96                 BYT $96
2923  00                 BYT $00
2924  00                 BYT $00
2925  96                 BYT $96
2926  40                 BYT $40
2927  00                 BYT $00
2928  56                 BYT $56
2929  40                 BYT $40
292A  0D                 BYT $0D
292B  5A                 BYT $5A
292C  40                 BYT $40
292D  0D                 BYT $0D
292E  6A                 BYT $6A
292F  00                 BYT $00
2930  00                 BYT $00
2931  2A                 BYT $2A
2932  00                 BYT $00
2933  00                 BYT $00
2934  3F                 BYT $3F
2935  00                 BYT $00
2936  00                 BYT $00
2937  3F                 BYT $3F
2938  00                 BYT $00
2939  00                 BYT $00
293A  15                 BYT $15
293B  00                 BYT $00
293C  00                 BYT $00
293D  00                 BYT $00
293E  00                 BYT $00
293F  00                 BYT $00
2940  00                 BYT $00
2941  15                 BYT $15
2942  00                 BYT $00
2943  00                 BYT $00
2944  15                 BYT $15
2945  00                 BYT $00
2946  00                 BYT $00
2947  15                 BYT $15
2948  00                 BYT $00
2949  00                 BYT $00
294A  15                 BYT $15
294B  00                 BYT $00
294C  00                 BYT $00
294D  15                 BYT $15
294E  00                 BYT $00
294F  00                 BYT $00
2950  15                 BYT $15
2951  00                 BYT $00
2952  00                 BYT $00
2953  14                 BYT $14
2954  00                 BYT $00
2955  00                 BYT $00
2956  14                 BYT $14
2957  00                 BYT $00
2958  00                 BYT $00
2959  14                 BYT $14
295A  00                 BYT $00
295B  00                 BYT $00
295C  16                 BYT $16
295D  00                 BYT $00
295E  00                 BYT $00
295F  16                 BYT $16
2960  00                 BYT $00
2961  00                 BYT $00
2962  16                 BYT $16
2963  00                 BYT $00
2964  00                 BYT $00
2965  16                 BYT $16
2966  00                 BYT $00
2967  00                 BYT $00
2968  16                 BYT $16
2969  80                 BYT $80
296A  00                 BYT $00
296B  14                 BYT $14
296C  80                 BYT $80
296D  00                 BYT $00
296E  A4                 BYT $A4
296F  80                 BYT $80
2970  00                 BYT $00
2971  00                 BYT $00
2972  00                 BYT $00
2973  00                 BYT $00
2974  00                 BYT $00
2975  00                 BYT $00
2976  00                 BYT $00
2977  00                 BYT $00
2978  00                 BYT $00
2979  00                 BYT $00
297A  00                 BYT $00
297B  00                 BYT $00
297C  00                 BYT $00
297D  00                 BYT $00
297E  00                 BYT $00
297F  00                 BYT $00
2980  00                 BYT $00
2981  00                 BYT $00
2982  00                 BYT $00
2983  00                 BYT $00
2984  00                 BYT $00
2985  00                 BYT $00
2986  00                 BYT $00
2987  00                 BYT $00
2988  00                 BYT $00
2989  00                 BYT $00
298A  00                 BYT $00
298B  00                 BYT $00
298C  00                 BYT $00
298D  00                 BYT $00
298E  00                 BYT $00
298F  00                 BYT $00
2990  00                 BYT $00
2991  00                 BYT $00
2992  00                 BYT $00
2993  00                 BYT $00
2994  00                 BYT $00
2995  00                 BYT $00
2996  00                 BYT $00
2997  00                 BYT $00
2998  00                 BYT $00
2999  A8                 BYT $A8
299A  00                 BYT $00
299B  00                 BYT $00
299C  9A                 BYT $9A
299D  00                 BYT $00
299E  00                 BYT $00
299F  A6                 BYT $A6
29A0  00                 BYT $00
29A1  00                 BYT $00
29A2  56                 BYT $56
29A3  00                 BYT $00
29A4  C1                 BYT $C1
29A5  56                 BYT $56
29A6  40                 BYT $40
29A7  D1                 BYT $D1
29A8  5A                 BYT $5A
29A9  40                 BYT $40
29AA  55                 BYT $55
29AB  6A                 BYT $6A
29AC  50                 BYT $50
29AD  15                 BYT $15
29AE  AA                 BYT $AA
29AF  50                 BYT $50
29B0  04                 BYT $04
29B1  AA                 BYT $AA
29B2  10                 BYT $10
29B3  00                 BYT $00
29B4  2A                 BYT $2A
29B5  50                 BYT $50
29B6  00                 BYT $00
29B7  2A                 BYT $2A
29B8  50                 BYT $50
29B9  00                 BYT $00
29BA  3F                 BYT $3F
29BB  40                 BYT $40
29BC  00                 BYT $00
29BD  00                 BYT $00
29BE  00                 BYT $00
29BF  00                 BYT $00
29C0  00                 BYT $00
29C1  3F                 BYT $3F
29C2  40                 BYT $40
29C3  00                 BYT $00
29C4  15                 BYT $15
29C5  C0                 BYT $C0
29C6  00                 BYT $00
29C7  15                 BYT $15
29C8  00                 BYT $00
29C9  00                 BYT $00
29CA  15                 BYT $15
29CB  00                 BYT $00
29CC  00                 BYT $00
29CD  55                 BYT $55
29CE  00                 BYT $00
29CF  00                 BYT $00
29D0  56                 BYT $56
29D1  00                 BYT $00
29D2  01                 BYT $01
29D3  56                 BYT $56
29D4  00                 BYT $00
29D5  01                 BYT $01
29D6  5A                 BYT $5A
29D7  00                 BYT $00
29D8  05                 BYT $05
29D9  5A                 BYT $5A
29DA  80                 BYT $80
29DB  05                 BYT $05
29DC  4A                 BYT $4A
29DD  80                 BYT $80
29DE  05                 BYT $05
29DF  0A                 BYT $0A
29E0  80                 BYT $80
29E1  05                 BYT $05
29E2  02                 BYT $02
29E3  A0                 BYT $A0
29E4  05                 BYT $05
29E5  02                 BYT $02
29E6  A8                 BYT $A8
29E7  05                 BYT $05
29E8  00                 BYT $00
29E9  A8                 BYT $A8
29EA  04                 BYT $04
29EB  00                 BYT $00
29EC  28                 BYT $28
29ED  14                 BYT $14
29EE  00                 BYT $00
29EF  08                 BYT $08
29F0  00                 BYT $00
29F1  00                 BYT $00
29F2  00                 BYT $00
29F3  00                 BYT $00
29F4  00                 BYT $00
29F5  00                 BYT $00
29F6  00                 BYT $00
29F7  00                 BYT $00
29F8  00                 BYT $00
29F9  00                 BYT $00
29FA  00                 BYT $00
29FB  00                 BYT $00
29FC  00                 BYT $00
29FD  00                 BYT $00
29FE  00                 BYT $00
29FF  00                 BYT $00
2A00  00                 BYT $00
2A01  00                 BYT $00
2A02  03                 BYT $03
2A03  00                 BYT $00
2A04  00                 BYT $00
2A05  03                 BYT $03
2A06  00                 BYT $00
2A07  00                 BYT $00
2A08  01                 BYT $01
2A09  00                 BYT $00
2A0A  00                 BYT $00
2A0B  01                 BYT $01
2A0C  00                 BYT $00
2A0D  00                 BYT $00
2A0E  01                 BYT $01
2A0F  00                 BYT $00
2A10  00                 BYT $00
2A11  05                 BYT $05
2A12  00                 BYT $00
2A13  00                 BYT $00
2A14  05                 BYT $05
2A15  00                 BYT $00
2A16  00                 BYT $00
2A17  14                 BYT $14
2A18  02                 BYT $02
2A19  A8                 BYT $A8
2A1A  54                 BYT $54
2A1B  02                 BYT $02
2A1C  95                 BYT $95
2A1D  53                 BYT $53
2A1E  02                 BYT $02
2A1F  95                 BYT $95
2A20  5B                 BYT $5B
2A21  02                 BYT $02
2A22  95                 BYT $95
2A23  68                 BYT $68
2A24  02                 BYT $02
2A25  A5                 BYT $A5
2A26  A0                 BYT $A0
2A27  00                 BYT $00
2A28  AA                 BYT $AA
2A29  80                 BYT $80
2A2A  00                 BYT $00
2A2B  AA                 BYT $AA
2A2C  00                 BYT $00
2A2D  00                 BYT $00
2A2E  AA                 BYT $AA
2A2F  00                 BYT $00
2A30  00                 BYT $00
2A31  A8                 BYT $A8
2A32  00                 BYT $00
2A33  00                 BYT $00
2A34  A8                 BYT $A8
2A35  00                 BYT $00
2A36  00                 BYT $00
2A37  FC                 BYT $FC
2A38  00                 BYT $00
2A39  00                 BYT $00
2A3A  FC                 BYT $FC
2A3B  00                 BYT $00
2A3C  00                 BYT $00
2A3D  00                 BYT $00
2A3E  00                 BYT $00
2A3F  00                 BYT $00
2A40  00                 BYT $00
2A41  54                 BYT $54
2A42  00                 BYT $00
2A43  00                 BYT $00
2A44  54                 BYT $54
2A45  00                 BYT $00
2A46  00                 BYT $00
2A47  54                 BYT $54
2A48  00                 BYT $00
2A49  00                 BYT $00
2A4A  54                 BYT $54
2A4B  00                 BYT $00
2A4C  00                 BYT $00
2A4D  54                 BYT $54
2A4E  00                 BYT $00
2A4F  00                 BYT $00
2A50  54                 BYT $54
2A51  00                 BYT $00
2A52  00                 BYT $00
2A53  95                 BYT $95
2A54  00                 BYT $00
2A55  00                 BYT $00
2A56  95                 BYT $95
2A57  00                 BYT $00
2A58  00                 BYT $00
2A59  95                 BYT $95
2A5A  00                 BYT $00
2A5B  00                 BYT $00
2A5C  A5                 BYT $A5
2A5D  00                 BYT $00
2A5E  02                 BYT $02
2A5F  85                 BYT $85
2A60  00                 BYT $00
2A61  02                 BYT $02
2A62  85                 BYT $85
2A63  00                 BYT $00
2A64  02                 BYT $02
2A65  85                 BYT $85
2A66  00                 BYT $00
2A67  02                 BYT $02
2A68  05                 BYT $05
2A69  00                 BYT $00
2A6A  02                 BYT $02
2A6B  02                 BYT $02
2A6C  00                 BYT $00
2A6D  02                 BYT $02
2A6E  82                 BYT $82
2A6F  80                 BYT $80
2A70  00                 BYT $00
2A71  00                 BYT $00
2A72  00                 BYT $00
2A73  00                 BYT $00
2A74  00                 BYT $00
2A75  00                 BYT $00
2A76  00                 BYT $00
2A77  00                 BYT $00
2A78  00                 BYT $00
2A79  00                 BYT $00
2A7A  00                 BYT $00
2A7B  00                 BYT $00
2A7C  00                 BYT $00
2A7D  00                 BYT $00
2A7E  00                 BYT $00
2A7F  00                 BYT $00
2A80  00                 BYT $00
2A81  55                 BYT $55
2A82  40                 BYT $40
2A83  00                 BYT $00
2A84  55                 BYT $55
2A85  50                 BYT $50
2A86  00                 BYT $00
2A87  15                 BYT $15
2A88  54                 BYT $54
2A89  00                 BYT $00
2A8A  15                 BYT $15
2A8B  55                 BYT $55
2A8C  00                 BYT $00
2A8D  05                 BYT $05
2A8E  55                 BYT $55
2A8F  00                 BYT $00
2A90  0A                 BYT $0A
2A91  95                 BYT $95
2A92  00                 BYT $00
2A93  0A                 BYT $0A
2A94  95                 BYT $95
2A95  00                 BYT $00
2A96  02                 BYT $02
2A97  54                 BYT $54
2A98  00                 BYT $00
2A99  02                 BYT $02
2A9A  54                 BYT $54
2A9B  00                 BYT $00
2A9C  00                 BYT $00
2A9D  50                 BYT $50
2A9E  00                 BYT $00
2A9F  01                 BYT $01
2AA0  58                 BYT $58
2AA1  00                 BYT $00
2AA2  02                 BYT $02
2AA3  68                 BYT $68
2AA4  00                 BYT $00
2AA5  00                 BYT $00
2AA6  68                 BYT $68
2AA7  00                 BYT $00
2AA8  00                 BYT $00
2AA9  88                 BYT $88
2AAA  00                 BYT $00
2AAB  00                 BYT $00
2AAC  0A                 BYT $0A
2AAD  00                 BYT $00
2AAE  00                 BYT $00
2AAF  00                 BYT $00
2AB0  00                 BYT $00
2AB1  00                 BYT $00
2AB2  00                 BYT $00
2AB3  00                 BYT $00
2AB4  00                 BYT $00
2AB5  00                 BYT $00
2AB6  00                 BYT $00
2AB7  00                 BYT $00
2AB8  00                 BYT $00
2AB9  00                 BYT $00
2ABA  00                 BYT $00
2ABB  00                 BYT $00
2ABC  00                 BYT $00
2ABD  00                 BYT $00
2ABE  00                 BYT $00
2ABF  00                 BYT $00
2AC0  00                 BYT $00
2AC1  00                 BYT $00
2AC2  00                 BYT $00
2AC3  00                 BYT $00
2AC4  00                 BYT $00
2AC5  00                 BYT $00
2AC6  00                 BYT $00
2AC7  00                 BYT $00
2AC8  00                 BYT $00
2AC9  00                 BYT $00
2ACA  00                 BYT $00
2ACB  00                 BYT $00
2ACC  00                 BYT $00
2ACD  00                 BYT $00
2ACE  00                 BYT $00
2ACF  00                 BYT $00
2AD0  00                 BYT $00
2AD1  00                 BYT $00
2AD2  00                 BYT $00
2AD3  00                 BYT $00
2AD4  00                 BYT $00
2AD5  00                 BYT $00
2AD6  00                 BYT $00
2AD7  03                 BYT $03
2AD8  00                 BYT $00
2AD9  A8                 BYT $A8
2ADA  0A                 BYT $0A
2ADB  00                 BYT $00
2ADC  9A                 BYT $9A
2ADD  28                 BYT $28
2ADE  00                 BYT $00
2ADF  96                 BYT $96
2AE0  A8                 BYT $A8
2AE1  00                 BYT $00
2AE2  95                 BYT $95
2AE3  A0                 BYT $A0
2AE4  00                 BYT $00
2AE5  95                 BYT $95
2AE6  40                 BYT $40
2AE7  00                 BYT $00
2AE8  A5                 BYT $A5
2AE9  50                 BYT $50
2AEA  00                 BYT $00
2AEB  A9                 BYT $A9
2AEC  57                 BYT $57
2AED  00                 BYT $00
2AEE  AA                 BYT $AA
2AEF  17                 BYT $17
2AF0  00                 BYT $00
2AF1  AA                 BYT $AA
2AF2  00                 BYT $00
2AF3  00                 BYT $00
2AF4  A8                 BYT $A8
2AF5  00                 BYT $00
2AF6  00                 BYT $00
2AF7  FC                 BYT $FC
2AF8  00                 BYT $00
2AF9  00                 BYT $00
2AFA  FC                 BYT $FC
2AFB  00                 BYT $00
2AFC  00                 BYT $00
2AFD  00                 BYT $00
2AFE  00                 BYT $00
2AFF  00                 BYT $00
2B00  00                 BYT $00
2B01  54                 BYT $54
2B02  00                 BYT $00
2B03  00                 BYT $00
2B04  56                 BYT $56
2B05  00                 BYT $00
2B06  00                 BYT $00
2B07  56                 BYT $56
2B08  80                 BYT $80
2B09  00                 BYT $00
2B0A  55                 BYT $55
2B0B  A0                 BYT $A0
2B0C  00                 BYT $00
2B0D  15                 BYT $15
2B0E  A8                 BYT $A8
2B0F  00                 BYT $00
2B10  15                 BYT $15
2B11  A8                 BYT $A8
2B12  00                 BYT $00
2B13  05                 BYT $05
2B14  68                 BYT $68
2B15  00                 BYT $00
2B16  05                 BYT $05
2B17  68                 BYT $68
2B18  00                 BYT $00
2B19  01                 BYT $01
2B1A  48                 BYT $48
2B1B  00                 BYT $00
2B1C  01                 BYT $01
2B1D  5A                 BYT $5A
2B1E  00                 BYT $00
2B1F  01                 BYT $01
2B20  52                 BYT $52
2B21  00                 BYT $00
2B22  00                 BYT $00
2B23  50                 BYT $50
2B24  00                 BYT $00
2B25  00                 BYT $00
2B26  50                 BYT $50
2B27  00                 BYT $00
2B28  00                 BYT $00
2B29  50                 BYT $50
2B2A  00                 BYT $00
2B2B  00                 BYT $00
2B2C  20                 BYT $20
2B2D  00                 BYT $00
2B2E  00                 BYT $00
2B2F  28                 BYT $28
2B30  00                 BYT $00
2B31  00                 BYT $00
2B32  00                 BYT $00
2B33  00                 BYT $00
2B34  00                 BYT $00
2B35  00                 BYT $00
2B36  00                 BYT $00
2B37  00                 BYT $00
2B38  00                 BYT $00
2B39  00                 BYT $00
2B3A  00                 BYT $00
2B3B  00                 BYT $00
2B3C  00                 BYT $00
2B3D  00                 BYT $00
2B3E  00                 BYT $00
2B3F  00                 BYT $00
2B40  C0                 BYT $C0
2B41  00                 BYT $00
2B42  00                 BYT $00
2B43  C0                 BYT $C0
2B44  00                 BYT $00
2B45  00                 BYT $00
2B46  40                 BYT $40
2B47  00                 BYT $00
2B48  00                 BYT $00
2B49  40                 BYT $40
2B4A  00                 BYT $00
2B4B  00                 BYT $00
2B4C  40                 BYT $40
2B4D  00                 BYT $00
2B4E  00                 BYT $00
2B4F  50                 BYT $50
2B50  00                 BYT $00
2B51  00                 BYT $00
2B52  50                 BYT $50
2B53  00                 BYT $00
2B54  00                 BYT $00
2B55  14                 BYT $14
2B56  00                 BYT $00
2B57  00                 BYT $00
2B58  15                 BYT $15
2B59  2A                 BYT $2A
2B5A  80                 BYT $80
2B5B  C5                 BYT $C5
2B5C  56                 BYT $56
2B5D  80                 BYT $80
2B5E  E5                 BYT $E5
2B5F  56                 BYT $56
2B60  80                 BYT $80
2B61  29                 BYT $29
2B62  56                 BYT $56
2B63  80                 BYT $80
2B64  0A                 BYT $0A
2B65  5A                 BYT $5A
2B66  80                 BYT $80
2B67  02                 BYT $02
2B68  AA                 BYT $AA
2B69  00                 BYT $00
2B6A  00                 BYT $00
2B6B  AA                 BYT $AA
2B6C  00                 BYT $00
2B6D  00                 BYT $00
2B6E  AA                 BYT $AA
2B6F  00                 BYT $00
2B70  00                 BYT $00
2B71  2A                 BYT $2A
2B72  00                 BYT $00
2B73  00                 BYT $00
2B74  2A                 BYT $2A
2B75  00                 BYT $00
2B76  00                 BYT $00
2B77  3F                 BYT $3F
2B78  00                 BYT $00
2B79  00                 BYT $00
2B7A  3F                 BYT $3F
2B7B  00                 BYT $00
2B7C  00                 BYT $00
2B7D  00                 BYT $00
2B7E  00                 BYT $00
2B7F  00                 BYT $00
2B80  00                 BYT $00
2B81  15                 BYT $15
2B82  00                 BYT $00
2B83  00                 BYT $00
2B84  15                 BYT $15
2B85  00                 BYT $00
2B86  00                 BYT $00
2B87  15                 BYT $15
2B88  00                 BYT $00
2B89  00                 BYT $00
2B8A  15                 BYT $15
2B8B  00                 BYT $00
2B8C  00                 BYT $00
2B8D  15                 BYT $15
2B8E  00                 BYT $00
2B8F  00                 BYT $00
2B90  15                 BYT $15
2B91  00                 BYT $00
2B92  00                 BYT $00
2B93  56                 BYT $56
2B94  00                 BYT $00
2B95  00                 BYT $00
2B96  56                 BYT $56
2B97  00                 BYT $00
2B98  00                 BYT $00
2B99  56                 BYT $56
2B9A  00                 BYT $00
2B9B  00                 BYT $00
2B9C  5A                 BYT $5A
2B9D  00                 BYT $00
2B9E  00                 BYT $00
2B9F  52                 BYT $52
2BA0  80                 BYT $80
2BA1  00                 BYT $00
2BA2  52                 BYT $52
2BA3  80                 BYT $80
2BA4  00                 BYT $00
2BA5  52                 BYT $52
2BA6  80                 BYT $80
2BA7  00                 BYT $00
2BA8  50                 BYT $50
2BA9  80                 BYT $80
2BAA  00                 BYT $00
2BAB  80                 BYT $80
2BAC  80                 BYT $80
2BAD  02                 BYT $02
2BAE  82                 BYT $82
2BAF  80                 BYT $80
2BB0  00                 BYT $00
2BB1  00                 BYT $00
2BB2  00                 BYT $00
2BB3  00                 BYT $00
2BB4  00                 BYT $00
2BB5  00                 BYT $00
2BB6  00                 BYT $00
2BB7  00                 BYT $00
2BB8  00                 BYT $00
2BB9  00                 BYT $00
2BBA  00                 BYT $00
2BBB  00                 BYT $00
2BBC  00                 BYT $00
2BBD  00                 BYT $00
2BBE  00                 BYT $00
2BBF  00                 BYT $00
2BC0  01                 BYT $01
2BC1  55                 BYT $55
2BC2  00                 BYT $00
2BC3  05                 BYT $05
2BC4  55                 BYT $55
2BC5  00                 BYT $00
2BC6  15                 BYT $15
2BC7  54                 BYT $54
2BC8  00                 BYT $00
2BC9  55                 BYT $55
2BCA  54                 BYT $54
2BCB  00                 BYT $00
2BCC  55                 BYT $55
2BCD  50                 BYT $50
2BCE  00                 BYT $00
2BCF  56                 BYT $56
2BD0  A0                 BYT $A0
2BD1  00                 BYT $00
2BD2  56                 BYT $56
2BD3  A0                 BYT $A0
2BD4  00                 BYT $00
2BD5  15                 BYT $15
2BD6  80                 BYT $80
2BD7  00                 BYT $00
2BD8  15                 BYT $15
2BD9  80                 BYT $80
2BDA  00                 BYT $00
2BDB  05                 BYT $05
2BDC  00                 BYT $00
2BDD  00                 BYT $00
2BDE  25                 BYT $25
2BDF  40                 BYT $40
2BE0  00                 BYT $00
2BE1  29                 BYT $29
2BE2  80                 BYT $80
2BE3  00                 BYT $00
2BE4  29                 BYT $29
2BE5  00                 BYT $00
2BE6  00                 BYT $00
2BE7  22                 BYT $22
2BE8  00                 BYT $00
2BE9  00                 BYT $00
2BEA  A0                 BYT $A0
2BEB  00                 BYT $00
2BEC  00                 BYT $00
2BED  00                 BYT $00
2BEE  00                 BYT $00
2BEF  00                 BYT $00
2BF0  00                 BYT $00
2BF1  00                 BYT $00
2BF2  00                 BYT $00
2BF3  00                 BYT $00
2BF4  00                 BYT $00
2BF5  00                 BYT $00
2BF6  00                 BYT $00
2BF7  00                 BYT $00
2BF8  00                 BYT $00
2BF9  00                 BYT $00
2BFA  00                 BYT $00
2BFB  00                 BYT $00
2BFC  00                 BYT $00
2BFD  00                 BYT $00
2BFE  00                 BYT $00
2BFF  00                 BYT $00
2C00  00                 BYT $00
2C01  00                 BYT $00
2C02  00                 BYT $00
2C03  00                 BYT $00
2C04  00                 BYT $00
2C05  00                 BYT $00
2C06  00                 BYT $00
2C07  00                 BYT $00
2C08  00                 BYT $00
2C09  00                 BYT $00
2C0A  00                 BYT $00
2C0B  00                 BYT $00
2C0C  00                 BYT $00
2C0D  00                 BYT $00
2C0E  00                 BYT $00
2C0F  00                 BYT $00
2C10  00                 BYT $00
2C11  00                 BYT $00
2C12  00                 BYT $00
2C13  00                 BYT $00
2C14  00                 BYT $00
2C15  C0                 BYT $C0
2C16  00                 BYT $00
2C17  00                 BYT $00
2C18  A0                 BYT $A0
2C19  2A                 BYT $2A
2C1A  00                 BYT $00
2C1B  28                 BYT $28
2C1C  A6                 BYT $A6
2C1D  00                 BYT $00
2C1E  2A                 BYT $2A
2C1F  96                 BYT $96
2C20  00                 BYT $00
2C21  0A                 BYT $0A
2C22  56                 BYT $56
2C23  00                 BYT $00
2C24  01                 BYT $01
2C25  56                 BYT $56
2C26  00                 BYT $00
2C27  05                 BYT $05
2C28  5A                 BYT $5A
2C29  00                 BYT $00
2C2A  D5                 BYT $D5
2C2B  6A                 BYT $6A
2C2C  00                 BYT $00
2C2D  D4                 BYT $D4
2C2E  AA                 BYT $AA
2C2F  00                 BYT $00
2C30  00                 BYT $00
2C31  AA                 BYT $AA
2C32  00                 BYT $00
2C33  00                 BYT $00
2C34  2A                 BYT $2A
2C35  00                 BYT $00
2C36  00                 BYT $00
2C37  3F                 BYT $3F
2C38  00                 BYT $00
2C39  00                 BYT $00
2C3A  3F                 BYT $3F
2C3B  00                 BYT $00
2C3C  00                 BYT $00
2C3D  00                 BYT $00
2C3E  00                 BYT $00
2C3F  00                 BYT $00
2C40  00                 BYT $00
2C41  15                 BYT $15
2C42  00                 BYT $00
2C43  00                 BYT $00
2C44  95                 BYT $95
2C45  00                 BYT $00
2C46  02                 BYT $02
2C47  95                 BYT $95
2C48  00                 BYT $00
2C49  0A                 BYT $0A
2C4A  55                 BYT $55
2C4B  00                 BYT $00
2C4C  2A                 BYT $2A
2C4D  54                 BYT $54
2C4E  00                 BYT $00
2C4F  2A                 BYT $2A
2C50  54                 BYT $54
2C51  00                 BYT $00
2C52  29                 BYT $29
2C53  50                 BYT $50
2C54  00                 BYT $00
2C55  29                 BYT $29
2C56  50                 BYT $50
2C57  00                 BYT $00
2C58  21                 BYT $21
2C59  40                 BYT $40
2C5A  00                 BYT $00
2C5B  A5                 BYT $A5
2C5C  40                 BYT $40
2C5D  00                 BYT $00
2C5E  85                 BYT $85
2C5F  40                 BYT $40
2C60  00                 BYT $00
2C61  05                 BYT $05
2C62  00                 BYT $00
2C63  00                 BYT $00
2C64  05                 BYT $05
2C65  00                 BYT $00
2C66  00                 BYT $00
2C67  05                 BYT $05
2C68  00                 BYT $00
2C69  00                 BYT $00
2C6A  08                 BYT $08
2C6B  00                 BYT $00
2C6C  00                 BYT $00
2C6D  28                 BYT $28
2C6E  00                 BYT $00
2C6F  00                 BYT $00
2C70  00                 BYT $00
2C71  00                 BYT $00
2C72  00                 BYT $00
2C73  00                 BYT $00
2C74  00                 BYT $00
2C75  00                 BYT $00
2C76  00                 BYT $00
2C77  00                 BYT $00
2C78  00                 BYT $00
2C79  00                 BYT $00
2C7A  00                 BYT $00
2C7B  00                 BYT $00
2C7C  00                 BYT $00
2C7D  00                 BYT $00
2C7E  00                 BYT $00
2C7F  00                 BYT $00
2C80  00                 BYT $00
2C81  00                 BYT $00
2C82  00                 BYT $00
2C83  00                 BYT $00
2C84  00                 BYT $00
2C85  00                 BYT $00
2C86  00                 BYT $00
2C87  00                 BYT $00
2C88  00                 BYT $00
2C89  00                 BYT $00
2C8A  00                 BYT $00
2C8B  00                 BYT $00
2C8C  00                 BYT $00
2C8D  00                 BYT $00
2C8E  00                 BYT $00
2C8F  00                 BYT $00
2C90  00                 BYT $00
2C91  00                 BYT $00
2C92  00                 BYT $00
2C93  00                 BYT $00
2C94  00                 BYT $00
2C95  00                 BYT $00
2C96  00                 BYT $00
2C97  00                 BYT $00
2C98  00                 BYT $00
2C99  00                 BYT $00
2C9A  00                 BYT $00
2C9B  01                 BYT $01
2C9C  00                 BYT $00
2C9D  00                 BYT $00
2C9E  14                 BYT $14
2C9F  00                 BYT $00
2CA0  00                 BYT $00
2CA1  60                 BYT $60
2CA2  00                 BYT $00
2CA3  00                 BYT $00
2CA4  90                 BYT $90
2CA5  00                 BYT $00
2CA6  00                 BYT $00
2CA7  90                 BYT $90
2CA8  01                 BYT $01
2CA9  40                 BYT $40
2CAA  90                 BYT $90
2CAB  05                 BYT $05
2CAC  50                 BYT $50
2CAD  90                 BYT $90
2CAE  05                 BYT $05
2CAF  70                 BYT $70
2CB0  20                 BYT $20
2CB1  05                 BYT $05
2CB2  F0                 BYT $F0
2CB3  20                 BYT $20
2CB4  05                 BYT $05
2CB5  F0                 BYT $F0
2CB6  80                 BYT $80
2CB7  07                 BYT $07
2CB8  C0                 BYT $C0
2CB9  80                 BYT $80
2CBA  03                 BYT $03
2CBB  C0                 BYT $C0
2CBC  00                 BYT $00
2CBD  00                 BYT $00
2CBE  00                 BYT $00
2CBF  00                 BYT $00
2CC0  00                 BYT $00
2CC1  03                 BYT $03
2CC2  00                 BYT $00
2CC3  00                 BYT $00
2CC4  03                 BYT $03
2CC5  00                 BYT $00
2CC6  00                 BYT $00
2CC7  01                 BYT $01
2CC8  00                 BYT $00
2CC9  00                 BYT $00
2CCA  01                 BYT $01
2CCB  00                 BYT $00
2CCC  00                 BYT $00
2CCD  01                 BYT $01
2CCE  00                 BYT $00
2CCF  00                 BYT $00
2CD0  01                 BYT $01
2CD1  0C                 BYT $0C
2CD2  00                 BYT $00
2CD3  01                 BYT $01
2CD4  0C                 BYT $0C
2CD5  00                 BYT $00
2CD6  01                 BYT $01
2CD7  28                 BYT $28
2CD8  01                 BYT $01
2CD9  A5                 BYT $A5
2CDA  A8                 BYT $A8
2CDB  09                 BYT $09
2CDC  55                 BYT $55
2CDD  A0                 BYT $A0
2CDE  09                 BYT $09
2CDF  55                 BYT $55
2CE0  80                 BYT $80
2CE1  09                 BYT $09
2CE2  54                 BYT $54
2CE3  00                 BYT $00
2CE4  02                 BYT $02
2CE5  58                 BYT $58
2CE6  00                 BYT $00
2CE7  02                 BYT $02
2CE8  AA                 BYT $AA
2CE9  00                 BYT $00
2CEA  00                 BYT $00
2CEB  AA                 BYT $AA
2CEC  00                 BYT $00
2CED  00                 BYT $00
2CEE  AA                 BYT $AA
2CEF  80                 BYT $80
2CF0  00                 BYT $00
2CF1  2A                 BYT $2A
2CF2  C0                 BYT $C0
2CF3  00                 BYT $00
2CF4  2B                 BYT $2B
2CF5  E0                 BYT $E0
2CF6  00                 BYT $00
2CF7  0F                 BYT $0F
2CF8  60                 BYT $60
2CF9  00                 BYT $00
2CFA  0D                 BYT $0D
2CFB  68                 BYT $68
2CFC  00                 BYT $00
2CFD  00                 BYT $00
2CFE  00                 BYT $00
2CFF  00                 BYT $00
2D00  09                 BYT $09
2D01  6A                 BYT $6A
2D02  00                 BYT $00
2D03  09                 BYT $09
2D04  5A                 BYT $5A
2D05  80                 BYT $80
2D06  09                 BYT $09
2D07  5A                 BYT $5A
2D08  A0                 BYT $A0
2D09  0A                 BYT $0A
2D0A  5A                 BYT $5A
2D0B  A0                 BYT $A0
2D0C  02                 BYT $02
2D0D  56                 BYT $56
2D0E  A8                 BYT $A8
2D0F  02                 BYT $02
2D10  94                 BYT $94
2D11  A8                 BYT $A8
2D12  00                 BYT $00
2D13  95                 BYT $95
2D14  28                 BYT $28
2D15  00                 BYT $00
2D16  A5                 BYT $A5
2D17  28                 BYT $28
2D18  00                 BYT $00
2D19  25                 BYT $25
2D1A  28                 BYT $28
2D1B  00                 BYT $00
2D1C  25                 BYT $25
2D1D  08                 BYT $08
2D1E  00                 BYT $00
2D1F  05                 BYT $05
2D20  0A                 BYT $0A
2D21  00                 BYT $00
2D22  05                 BYT $05
2D23  00                 BYT $00
2D24  00                 BYT $00
2D25  05                 BYT $05
2D26  00                 BYT $00
2D27  00                 BYT $00
2D28  05                 BYT $05
2D29  00                 BYT $00
2D2A  00                 BYT $00
2D2B  0A                 BYT $0A
2D2C  00                 BYT $00
2D2D  00                 BYT $00
2D2E  0A                 BYT $0A
2D2F  80                 BYT $80
2D30  00                 BYT $00
2D31  00                 BYT $00
2D32  00                 BYT $00
2D33  00                 BYT $00
2D34  00                 BYT $00
2D35  00                 BYT $00
2D36  00                 BYT $00
2D37  00                 BYT $00
2D38  00                 BYT $00
2D39  00                 BYT $00
2D3A  00                 BYT $00
2D3B  00                 BYT $00
2D3C  00                 BYT $00
2D3D  00                 BYT $00
2D3E  00                 BYT $00
2D3F  00                 BYT $00
2D40  00                 BYT $00
2D41  00                 BYT $00
2D42  00                 BYT $00
2D43  00                 BYT $00
2D44  00                 BYT $00
2D45  00                 BYT $00
2D46  00                 BYT $00
2D47  00                 BYT $00
2D48  00                 BYT $00
2D49  00                 BYT $00
2D4A  00                 BYT $00
2D4B  00                 BYT $00
2D4C  00                 BYT $00
2D4D  00                 BYT $00
2D4E  00                 BYT $00
2D4F  00                 BYT $00
2D50  00                 BYT $00
2D51  00                 BYT $00
2D52  00                 BYT $00
2D53  00                 BYT $00
2D54  00                 BYT $00
2D55  00                 BYT $00
2D56  00                 BYT $00
2D57  00                 BYT $00
2D58  00                 BYT $00
2D59  00                 BYT $00
2D5A  00                 BYT $00
2D5B  00                 BYT $00
2D5C  00                 BYT $00
2D5D  00                 BYT $00
2D5E  00                 BYT $00
2D5F  00                 BYT $00
2D60  01                 BYT $01
2D61  00                 BYT $00
2D62  00                 BYT $00
2D63  01                 BYT $01
2D64  05                 BYT $05
2D65  55                 BYT $55
2D66  05                 BYT $05
2D67  02                 BYT $02
2D68  5C                 BYT $5C
2D69  05                 BYT $05
2D6A  00                 BYT $00
2D6B  5C                 BYT $5C
2D6C  05                 BYT $05
2D6D  00                 BYT $00
2D6E  5C                 BYT $5C
2D6F  15                 BYT $15
2D70  00                 BYT $00
2D71  00                 BYT $00
2D72  05                 BYT $05
2D73  00                 BYT $00
2D74  00                 BYT $00
2D75  00                 BYT $00
2D76  00                 BYT $00
2D77  00                 BYT $00
2D78  00                 BYT $00
2D79  00                 BYT $00
2D7A  00                 BYT $00
2D7B  00                 BYT $00
2D7C  00                 BYT $00
2D7D  00                 BYT $00
2D7E  00                 BYT $00
2D7F  00                 BYT $00
2D80  00                 BYT $00
2D81  00                 BYT $00
2D82  00                 BYT $00
2D83  00                 BYT $00
2D84  00                 BYT $00
2D85  00                 BYT $00
2D86  00                 BYT $00
2D87  00                 BYT $00
2D88  00                 BYT $00
2D89  00                 BYT $00
2D8A  00                 BYT $00
2D8B  00                 BYT $00
2D8C  00                 BYT $00
2D8D  00                 BYT $00
2D8E  00                 BYT $00
2D8F  00                 BYT $00
2D90  00                 BYT $00
2D91  00                 BYT $00
2D92  00                 BYT $00
2D93  00                 BYT $00
2D94  00                 BYT $00
2D95  00                 BYT $00
2D96  00                 BYT $00
2D97  00                 BYT $00
2D98  00                 BYT $00
2D99  00                 BYT $00
2D9A  00                 BYT $00
2D9B  00                 BYT $00
2D9C  15                 BYT $15
2D9D  00                 BYT $00
2D9E  C0                 BYT $C0
2D9F  6A                 BYT $6A
2DA0  75                 BYT $75
2DA1  F1                 BYT $F1
2DA2  AA                 BYT $AA
2DA3  BA                 BYT $BA
2DA4  7E                 BYT $7E
2DA5  AA                 BYT $AA
2DA6  BA                 BYT $BA
2DA7  7E                 BYT $7E
2DA8  9A                 BYT $9A
2DA9  BA                 BYT $BA
2DAA  5E                 BYT $5E
2DAB  A6                 BYT $A6
2DAC  BA                 BYT $BA
2DAD  5E                 BYT $5E
2DAE  A9                 BYT $A9
2DAF  BA                 BYT $BA
2DB0  00                 BYT $00
2DB1  AA                 BYT $AA
2DB2  59                 BYT $59
2DB3  00                 BYT $00
2DB4  2A                 BYT $2A
2DB5  A9                 BYT $A9
2DB6  00                 BYT $00
2DB7  0A                 BYT $0A
2DB8  A9                 BYT $A9
2DB9  00                 BYT $00
2DBA  02                 BYT $02
2DBB  A8                 BYT $A8
2DBC  00                 BYT $00
2DBD  00                 BYT $00
2DBE  00                 BYT $00
2DBF  00                 BYT $00
2DC0  00                 BYT $00
2DC1  00                 BYT $00
2DC2  00                 BYT $00
2DC3  00                 BYT $00
2DC4  00                 BYT $00
2DC5  00                 BYT $00
2DC6  00                 BYT $00
2DC7  00                 BYT $00
2DC8  00                 BYT $00
2DC9  00                 BYT $00
2DCA  00                 BYT $00
2DCB  00                 BYT $00
2DCC  00                 BYT $00
2DCD  00                 BYT $00
2DCE  00                 BYT $00
2DCF  00                 BYT $00
2DD0  00                 BYT $00
2DD1  00                 BYT $00
2DD2  00                 BYT $00
2DD3  00                 BYT $00
2DD4  00                 BYT $00
2DD5  00                 BYT $00
2DD6  00                 BYT $00
2DD7  00                 BYT $00
2DD8  00                 BYT $00
2DD9  00                 BYT $00
2DDA  00                 BYT $00
2DDB  00                 BYT $00
2DDC  00                 BYT $00
2DDD  00                 BYT $00
2DDE  00                 BYT $00
2DDF  00                 BYT $00
2DE0  40                 BYT $40
2DE1  5A                 BYT $5A
2DE2  00                 BYT $00
2DE3  40                 BYT $40
2DE4  A5                 BYT $A5
2DE5  A5                 BYT $A5
2DE6  40                 BYT $40
2DE7  AA                 BYT $AA
2DE8  6A                 BYT $6A
2DE9  40                 BYT $40
2DEA  AA                 BYT $AA
2DEB  9A                 BYT $9A
2DEC  40                 BYT $40
2DED  AA                 BYT $AA
2DEE  A4                 BYT $A4
2DEF  00                 BYT $00
2DF0  0A                 BYT $0A
2DF1  A9                 BYT $A9
2DF2  10                 BYT $10
2DF3  00                 BYT $00
2DF4  AA                 BYT $AA
2DF5  90                 BYT $90
2DF6  00                 BYT $00
2DF7  2A                 BYT $2A
2DF8  40                 BYT $40
2DF9  00                 BYT $00
2DFA  00                 BYT $00
2DFB  40                 BYT $40
2DFC  00                 BYT $00
2DFD  00                 BYT $00
2DFE  00                 BYT $00
2DFF  00                 BYT $00
2E00  00                 BYT $00
2E01  00                 BYT $00
2E02  00                 BYT $00
2E03  00                 BYT $00
2E04  00                 BYT $00
2E05  00                 BYT $00
2E06  00                 BYT $00
2E07  00                 BYT $00
2E08  00                 BYT $00
2E09  00                 BYT $00
2E0A  00                 BYT $00
2E0B  00                 BYT $00
2E0C  00                 BYT $00
2E0D  00                 BYT $00
2E0E  00                 BYT $00
2E0F  00                 BYT $00
2E10  00                 BYT $00
2E11  00                 BYT $00
2E12  00                 BYT $00
2E13  00                 BYT $00
2E14  00                 BYT $00
2E15  00                 BYT $00
2E16  00                 BYT $00
2E17  00                 BYT $00
2E18  00                 BYT $00
2E19  00                 BYT $00
2E1A  00                 BYT $00
2E1B  00                 BYT $00
2E1C  00                 BYT $00
2E1D  40                 BYT $40
2E1E  00                 BYT $00
2E1F  00                 BYT $00
2E20  14                 BYT $14
2E21  00                 BYT $00
2E22  00                 BYT $00
2E23  09                 BYT $09
2E24  00                 BYT $00
2E25  00                 BYT $00
2E26  06                 BYT $06
2E27  01                 BYT $01
2E28  40                 BYT $40
2E29  06                 BYT $06
2E2A  05                 BYT $05
2E2B  50                 BYT $50
2E2C  06                 BYT $06
2E2D  0D                 BYT $0D
2E2E  50                 BYT $50
2E2F  06                 BYT $06
2E30  0F                 BYT $0F
2E31  50                 BYT $50
2E32  08                 BYT $08
2E33  0F                 BYT $0F
2E34  50                 BYT $50
2E35  08                 BYT $08
2E36  03                 BYT $03
2E37  D0                 BYT $D0
2E38  02                 BYT $02
2E39  03                 BYT $03
2E3A  C0                 BYT $C0
2E3B  02                 BYT $02
2E3C  00                 BYT $00
2E3D  00                 BYT $00
2E3E  00                 BYT $00
2E3F  00                 BYT $00
2E40  00                 BYT $00
2E41  C0                 BYT $C0
2E42  00                 BYT $00
2E43  00                 BYT $00
2E44  C0                 BYT $C0
2E45  00                 BYT $00
2E46  00                 BYT $00
2E47  40                 BYT $40
2E48  00                 BYT $00
2E49  00                 BYT $00
2E4A  40                 BYT $40
2E4B  00                 BYT $00
2E4C  00                 BYT $00
2E4D  40                 BYT $40
2E4E  00                 BYT $00
2E4F  30                 BYT $30
2E50  40                 BYT $40
2E51  00                 BYT $00
2E52  30                 BYT $30
2E53  40                 BYT $40
2E54  00                 BYT $00
2E55  28                 BYT $28
2E56  40                 BYT $40
2E57  00                 BYT $00
2E58  2A                 BYT $2A
2E59  5A                 BYT $5A
2E5A  80                 BYT $80
2E5B  0A                 BYT $0A
2E5C  55                 BYT $55
2E5D  60                 BYT $60
2E5E  02                 BYT $02
2E5F  55                 BYT $55
2E60  60                 BYT $60
2E61  00                 BYT $00
2E62  15                 BYT $15
2E63  60                 BYT $60
2E64  00                 BYT $00
2E65  25                 BYT $25
2E66  80                 BYT $80
2E67  00                 BYT $00
2E68  AA                 BYT $AA
2E69  80                 BYT $80
2E6A  00                 BYT $00
2E6B  AA                 BYT $AA
2E6C  00                 BYT $00
2E6D  02                 BYT $02
2E6E  AA                 BYT $AA
2E6F  00                 BYT $00
2E70  03                 BYT $03
2E71  A8                 BYT $A8
2E72  00                 BYT $00
2E73  0B                 BYT $0B
2E74  E8                 BYT $E8
2E75  00                 BYT $00
2E76  09                 BYT $09
2E77  F0                 BYT $F0
2E78  00                 BYT $00
2E79  29                 BYT $29
2E7A  70                 BYT $70
2E7B  00                 BYT $00
2E7C  00                 BYT $00
2E7D  00                 BYT $00
2E7E  00                 BYT $00
2E7F  00                 BYT $00
2E80  00                 BYT $00
2E81  A9                 BYT $A9
2E82  60                 BYT $60
2E83  02                 BYT $02
2E84  A5                 BYT $A5
2E85  60                 BYT $60
2E86  0A                 BYT $0A
2E87  A5                 BYT $A5
2E88  60                 BYT $60
2E89  0A                 BYT $0A
2E8A  A5                 BYT $A5
2E8B  A0                 BYT $A0
2E8C  2A                 BYT $2A
2E8D  95                 BYT $95
2E8E  80                 BYT $80
2E8F  2A                 BYT $2A
2E90  16                 BYT $16
2E91  80                 BYT $80
2E92  28                 BYT $28
2E93  56                 BYT $56
2E94  00                 BYT $00
2E95  28                 BYT $28
2E96  5A                 BYT $5A
2E97  00                 BYT $00
2E98  28                 BYT $28
2E99  58                 BYT $58
2E9A  00                 BYT $00
2E9B  20                 BYT $20
2E9C  58                 BYT $58
2E9D  00                 BYT $00
2E9E  A0                 BYT $A0
2E9F  50                 BYT $50
2EA0  00                 BYT $00
2EA1  00                 BYT $00
2EA2  50                 BYT $50
2EA3  00                 BYT $00
2EA4  00                 BYT $00
2EA5  50                 BYT $50
2EA6  00                 BYT $00
2EA7  00                 BYT $00
2EA8  50                 BYT $50
2EA9  00                 BYT $00
2EAA  00                 BYT $00
2EAB  A0                 BYT $A0
2EAC  00                 BYT $00
2EAD  02                 BYT $02
2EAE  A0                 BYT $A0
2EAF  00                 BYT $00
2EB0  00                 BYT $00
2EB1  00                 BYT $00
2EB2  00                 BYT $00
2EB3  00                 BYT $00
2EB4  00                 BYT $00
2EB5  00                 BYT $00
2EB6  00                 BYT $00
2EB7  00                 BYT $00
2EB8  00                 BYT $00
2EB9  00                 BYT $00
2EBA  00                 BYT $00
2EBB  00                 BYT $00
2EBC  00                 BYT $00
2EBD  00                 BYT $00
2EBE  00                 BYT $00
2EBF  00                 BYT $00
2EC0  00                 BYT $00
2EC1  00                 BYT $00
2EC2  00                 BYT $00
2EC3  00                 BYT $00
2EC4  00                 BYT $00
2EC5  00                 BYT $00
2EC6  00                 BYT $00
2EC7  00                 BYT $00
2EC8  00                 BYT $00
2EC9  00                 BYT $00
2ECA  00                 BYT $00
2ECB  00                 BYT $00
2ECC  00                 BYT $00
2ECD  00                 BYT $00
2ECE  00                 BYT $00
2ECF  00                 BYT $00
2ED0  00                 BYT $00
2ED1  00                 BYT $00
2ED2  00                 BYT $00
2ED3  00                 BYT $00
2ED4  00                 BYT $00
2ED5  00                 BYT $00
2ED6  00                 BYT $00
2ED7  00                 BYT $00
2ED8  00                 BYT $00
2ED9  00                 BYT $00
2EDA  00                 BYT $00
2EDB  00                 BYT $00
2EDC  00                 BYT $00
2EDD  00                 BYT $00
2EDE  40                 BYT $40
2EDF  00                 BYT $00
2EE0  00                 BYT $00
2EE1  40                 BYT $40
2EE2  00                 BYT $00
2EE3  00                 BYT $00
2EE4  50                 BYT $50
2EE5  55                 BYT $55
2EE6  50                 BYT $50
2EE7  50                 BYT $50
2EE8  25                 BYT $25
2EE9  80                 BYT $80
2EEA  50                 BYT $50
2EEB  25                 BYT $25
2EEC  00                 BYT $00
2EED  51                 BYT $51
2EEE  25                 BYT $25
2EEF  00                 BYT $00
2EF0  50                 BYT $50
2EF1  00                 BYT $00
2EF2  00                 BYT $00
2EF3  00                 BYT $00
2EF4  00                 BYT $00
2EF5  00                 BYT $00
2EF6  00                 BYT $00
2EF7  00                 BYT $00
2EF8  00                 BYT $00
2EF9  00                 BYT $00
2EFA  00                 BYT $00
2EFB  00                 BYT $00
2EFC  00                 BYT $00
2EFD  00                 BYT $00
2EFE  00                 BYT $00
2EFF  00                 BYT $00
2F00  00                 BYT $00
2F01  00                 BYT $00
2F02  00                 BYT $00
2F03  00                 BYT $00
2F04  00                 BYT $00
2F05  00                 BYT $00
2F06  00                 BYT $00
2F07  00                 BYT $00
2F08  00                 BYT $00
2F09  00                 BYT $00
2F0A  00                 BYT $00
2F0B  00                 BYT $00
2F0C  00                 BYT $00
2F0D  00                 BYT $00
2F0E  00                 BYT $00
2F0F  00                 BYT $00
2F10  00                 BYT $00
2F11  00                 BYT $00
2F12  00                 BYT $00
2F13  00                 BYT $00
2F14  00                 BYT $00
2F15  00                 BYT $00
2F16  00                 BYT $00
2F17  00                 BYT $00
2F18  00                 BYT $00
2F19  00                 BYT $00
2F1A  00                 BYT $00
2F1B  00                 BYT $00
2F1C  54                 BYT $54
2F1D  00                 BYT $00
2F1E  5D                 BYT $5D
2F1F  A9                 BYT $A9
2F20  03                 BYT $03
2F21  A6                 BYT $A6
2F22  AA                 BYT $AA
2F23  4F                 BYT $4F
2F24  A6                 BYT $A6
2F25  AA                 BYT $AA
2F26  BD                 BYT $BD
2F27  AE                 BYT $AE
2F28  56                 BYT $56
2F29  BD                 BYT $BD
2F2A  AD                 BYT $AD
2F2B  9A                 BYT $9A
2F2C  B5                 BYT $B5
2F2D  AE                 BYT $AE
2F2E  6A                 BYT $6A
2F2F  B5                 BYT $B5
2F30  65                 BYT $65
2F31  AA                 BYT $AA
2F32  00                 BYT $00
2F33  6A                 BYT $6A
2F34  A8                 BYT $A8
2F35  00                 BYT $00
2F36  6A                 BYT $6A
2F37  A0                 BYT $A0
2F38  00                 BYT $00
2F39  2A                 BYT $2A
2F3A  80                 BYT $80
2F3B  00                 BYT $00
2F3C  00                 BYT $00
2F3D  00                 BYT $00
2F3E  00                 BYT $00
2F3F  00                 BYT $00
2F40  00                 BYT $00
2F41  00                 BYT $00
2F42  00                 BYT $00
2F43  00                 BYT $00
2F44  00                 BYT $00
2F45  00                 BYT $00
2F46  00                 BYT $00
2F47  00                 BYT $00
2F48  00                 BYT $00
2F49  00                 BYT $00
2F4A  00                 BYT $00
2F4B  00                 BYT $00
2F4C  00                 BYT $00
2F4D  00                 BYT $00
2F4E  00                 BYT $00
2F4F  00                 BYT $00
2F50  00                 BYT $00
2F51  00                 BYT $00
2F52  00                 BYT $00
2F53  00                 BYT $00
2F54  00                 BYT $00
2F55  00                 BYT $00
2F56  00                 BYT $00
2F57  00                 BYT $00
2F58  00                 BYT $00
2F59  00                 BYT $00
2F5A  00                 BYT $00
2F5B  00                 BYT $00
2F5C  00                 BYT $00
2F5D  00                 BYT $00
2F5E  01                 BYT $01
2F5F  00                 BYT $00
2F60  00                 BYT $00
2F61  01                 BYT $01
2F62  00                 BYT $00
2F63  A5                 BYT $A5
2F64  01                 BYT $01
2F65  5A                 BYT $5A
2F66  5A                 BYT $5A
2F67  01                 BYT $01
2F68  A9                 BYT $A9
2F69  AA                 BYT $AA
2F6A  01                 BYT $01
2F6B  A6                 BYT $A6
2F6C  AA                 BYT $AA
2F6D  00                 BYT $00
2F6E  1A                 BYT $1A
2F6F  AA                 BYT $AA
2F70  04                 BYT $04
2F71  EA                 BYT $EA
2F72  A0                 BYT $A0
2F73  06                 BYT $06
2F74  AA                 BYT $AA
2F75  00                 BYT $00
2F76  01                 BYT $01
2F77  A8                 BYT $A8
2F78  00                 BYT $00
2F79  01                 BYT $01
2F7A  00                 BYT $00
2F7B  00                 BYT $00
2F7C  00                 BYT $00
2F7D  00                 BYT $00
2F7E  00                 BYT $00
2F7F  00                 BYT $00
2F80  00                 BYT $00
2F81  00                 BYT $00
2F82  00                 BYT $00
2F83  00                 BYT $00
2F84  00                 BYT $00
2F85  00                 BYT $00
2F86  00                 BYT $00
2F87  00                 BYT $00
2F88  00                 BYT $00
2F89  00                 BYT $00
2F8A  00                 BYT $00
2F8B  00                 BYT $00
2F8C  00                 BYT $00
2F8D  00                 BYT $00
2F8E  00                 BYT $00
2F8F  00                 BYT $00
2F90  00                 BYT $00
2F91  00                 BYT $00
2F92  00                 BYT $00
2F93  00                 BYT $00
2F94  00                 BYT $00
2F95  00                 BYT $00
2F96  00                 BYT $00
2F97  00                 BYT $00
2F98  00                 BYT $00
2F99  3C                 BYT $3C
2F9A  00                 BYT $00
2F9B  00                 BYT $00
2F9C  7E                 BYT $7E
2F9D  00                 BYT $00
2F9E  00                 BYT $00
2F9F  DB                 BYT $DB
2FA0  00                 BYT $00
2FA1  00                 BYT $00
2FA2  DB                 BYT $DB
2FA3  00                 BYT $00
2FA4  00                 BYT $00
2FA5  DB                 BYT $DB
2FA6  00                 BYT $00
2FA7  00                 BYT $00
2FA8  DB                 BYT $DB
2FA9  00                 BYT $00
2FAA  00                 BYT $00
2FAB  DB                 BYT $DB
2FAC  00                 BYT $00
2FAD  00                 BYT $00
2FAE  C3                 BYT $C3
2FAF  00                 BYT $00
2FB0  00                 BYT $00
2FB1  C3                 BYT $C3
2FB2  00                 BYT $00
2FB3  00                 BYT $00
2FB4  66                 BYT $66
2FB5  00                 BYT $00
2FB6  00                 BYT $00
2FB7  3C                 BYT $3C
2FB8  00                 BYT $00
2FB9  00                 BYT $00
2FBA  18                 BYT $18
2FBB  00                 BYT $00
2FBC  00                 BYT $00
2FBD  00                 BYT $00
2FBE  00                 BYT $00
2FBF  00                 BYT $00
2FC0  00                 BYT $00
2FC1  00                 BYT $00
2FC2  03                 BYT $03
2FC3  00                 BYT $00
2FC4  00                 BYT $00
2FC5  06                 BYT $06
2FC6  00                 BYT $00
2FC7  00                 BYT $00
2FC8  0C                 BYT $0C
2FC9  00                 BYT $00
2FCA  00                 BYT $00
2FCB  30                 BYT $30
2FCC  00                 BYT $00
2FCD  00                 BYT $00
2FCE  60                 BYT $60
2FCF  00                 BYT $00
2FD0  00                 BYT $00
2FD1  C0                 BYT $C0
2FD2  00                 BYT $00
2FD3  00                 BYT $00
2FD4  60                 BYT $60
2FD5  00                 BYT $00
2FD6  00                 BYT $00
2FD7  30                 BYT $30
2FD8  00                 BYT $00
2FD9  00                 BYT $00
2FDA  0C                 BYT $0C
2FDB  00                 BYT $00
2FDC  00                 BYT $00
2FDD  0C                 BYT $0C
2FDE  00                 BYT $00
2FDF  00                 BYT $00
2FE0  30                 BYT $30
2FE1  00                 BYT $00
2FE2  00                 BYT $00
2FE3  60                 BYT $60
2FE4  00                 BYT $00
2FE5  00                 BYT $00
2FE6  C0                 BYT $C0
2FE7  00                 BYT $00
2FE8  03                 BYT $03
2FE9  00                 BYT $00
2FEA  00                 BYT $00
2FEB  06                 BYT $06
2FEC  00                 BYT $00
2FED  00                 BYT $00
2FEE  0C                 BYT $0C
2FEF  00                 BYT $00
2FF0  00                 BYT $00
2FF1  0C                 BYT $0C
2FF2  00                 BYT $00
2FF3  00                 BYT $00
2FF4  38                 BYT $38
2FF5  00                 BYT $00
2FF6  00                 BYT $00
2FF7  30                 BYT $30
2FF8  00                 BYT $00
2FF9  00                 BYT $00
2FFA  30                 BYT $30
2FFB  00                 BYT $00
2FFC  00                 BYT $00
2FFD  30                 BYT $30
2FFE  00                 BYT $00
2FFF  00                 BYT $00
3000  00                 BYT $00
3001  60                 BYT $60
3002  00                 BYT $00
3003  00                 BYT $00
3004  A9                 BYT $A9
3005  80                 BYT $80
3006  01                 BYT $01
3007  AA                 BYT $AA
3008  C0                 BYT $C0
3009  03                 BYT $03
300A  AA                 BYT $AA
300B  70                 BYT $70
300C  03                 BYT $03
300D  AB                 BYT $AB
300E  A0                 BYT $A0
300F  03                 BYT $03
3010  AD                 BYT $AD
3011  A8                 BYT $A8
3012  0A                 BYT $0A
3013  AE                 BYT $AE
3014  A8                 BYT $A8
3015  1A                 BYT $1A
3016  AA                 BYT $AA
3017  78                 BYT $78
3018  1E                 BYT $1E
3019  A7                 BYT $A7
301A  AC                 BYT $AC
301B  3D                 BYT $3D
301C  CA                 BYT $CA
301D  AE                 BYT $AE
301E  7B                 BYT $7B
301F  AA                 BYT $AA
3020  3E                 BYT $3E
3021  7B                 BYT $7B
3022  AE                 BYT $AE
3023  AC                 BYT $AC
3024  3D                 BYT $3D
3025  AD                 BYT $AD
3026  A8                 BYT $A8
3027  1E                 BYT $1E
3028  AB                 BYT $AB
3029  A0                 BYT $A0
302A  1A                 BYT $1A
302B  AB                 BYT $AB
302C  E0                 BYT $E0
302D  0B                 BYT $0B
302E  A7                 BYT $A7
302F  A0                 BYT $A0
3030  01                 BYT $01
3031  AA                 BYT $AA
3032  A0                 BYT $A0
3033  01                 BYT $01
3034  AA                 BYT $AA
3035  E0                 BYT $E0
3036  00                 BYT $00
3037  AB                 BYT $AB
3038  80                 BYT $80
3039  00                 BYT $00
303A  60                 BYT $60
303B  00                 BYT $00
303C  00                 BYT $00
303D  00                 BYT $00
303E  00                 BYT $00
303F  00                 BYT $00
3040  00                 BYT $00
3041  00                 BYT $00
3042  40                 BYT $40
3043  00                 BYT $00
3044  00                 BYT $00
3045  70                 BYT $70
3046  00                 BYT $00
3047  00                 BYT $00
3048  42                 BYT $42
3049  00                 BYT $00
304A  00                 BYT $00
304B  8F                 BYT $8F
304C  00                 BYT $00
304D  01                 BYT $01
304E  12                 BYT $12
304F  00                 BYT $00
3050  31                 BYT $31
3051  20                 BYT $20
3052  01                 BYT $01
3053  7B                 BYT $7B
3054  20                 BYT $20
3055  03                 BYT $03
3056  FF                 BYT $FF
3057  F0                 BYT $F0
3058  07                 BYT $07
3059  FF                 BYT $FF
305A  FC                 BYT $FC
305B  0F                 BYT $0F
305C  FF                 BYT $FF
305D  FE                 BYT $FE
305E  1F                 BYT $1F
305F  FF                 BYT $FF
3060  FB                 BYT $FB
3061  3F                 BYT $3F
3062  FF                 BYT $FF
3063  F1                 BYT $F1
3064  7F                 BYT $7F
3065  FF                 BYT $FF
3066  E0                 BYT $E0
3067  FF                 BYT $FF
3068  FF                 BYT $FF
3069  F1                 BYT $F1
306A  7F                 BYT $7F
306B  FF                 BYT $FF
306C  FB                 BYT $FB
306D  3F                 BYT $3F
306E  FF                 BYT $FF
306F  FE                 BYT $FE
3070  18                 BYT $18
3071  C3                 BYT $C3
3072  10                 BYT $10
3073  25                 BYT $25
3074  24                 BYT $24
3075  A8                 BYT $A8
3076  42                 BYT $42
3077  18                 BYT $18
3078  44                 BYT $44
3079  85                 BYT $85
307A  18                 BYT $18
307B  A2                 BYT $A2
307C  85                 BYT $85
307D  1A                 BYT $1A
307E  A2                 BYT $A2
307F  00                 BYT $00
3080  00                 BYT $00
3081  08                 BYT $08
3082  08                 BYT $08
3083  00                 BYT $00
3084  1C                 BYT $1C
3085  1C                 BYT $1C
3086  00                 BYT $00
3087  0A                 BYT $0A
3088  08                 BYT $08
3089  00                 BYT $00
308A  02                 BYT $02
308B  10                 BYT $10
308C  00                 BYT $00
308D  01                 BYT $01
308E  20                 BYT $20
308F  00                 BYT $00
3090  31                 BYT $31
3091  40                 BYT $40
3092  01                 BYT $01
3093  7B                 BYT $7B
3094  20                 BYT $20
3095  03                 BYT $03
3096  FF                 BYT $FF
3097  F0                 BYT $F0
3098  07                 BYT $07
3099  FF                 BYT $FF
309A  FC                 BYT $FC
309B  0F                 BYT $0F
309C  FF                 BYT $FF
309D  FE                 BYT $FE
309E  1F                 BYT $1F
309F  FF                 BYT $FF
30A0  FB                 BYT $FB
30A1  3F                 BYT $3F
30A2  FF                 BYT $FF
30A3  F1                 BYT $F1
30A4  7F                 BYT $7F
30A5  FF                 BYT $FF
30A6  E0                 BYT $E0
30A7  FF                 BYT $FF
30A8  FF                 BYT $FF
30A9  F1                 BYT $F1
30AA  7F                 BYT $7F
30AB  FF                 BYT $FF
30AC  FB                 BYT $FB
30AD  3F                 BYT $3F
30AE  FF                 BYT $FF
30AF  FE                 BYT $FE
30B0  18                 BYT $18
30B1  C3                 BYT $C3
30B2  10                 BYT $10
30B3  18                 BYT $18
30B4  C3                 BYT $C3
30B5  10                 BYT $10
30B6  18                 BYT $18
30B7  C3                 BYT $C3
30B8  10                 BYT $10
30B9  18                 BYT $18
30BA  C3                 BYT $C3
30BB  10                 BYT $10
30BC  18                 BYT $18
30BD  C3                 BYT $C3
30BE  10                 BYT $10
30BF  00                 BYT $00
30C0  01                 BYT $01
30C1  00                 BYT $00
30C2  00                 BYT $00
30C3  0D                 BYT $0D
30C4  00                 BYT $00
30C5  00                 BYT $00
30C6  81                 BYT $81
30C7  00                 BYT $00
30C8  00                 BYT $00
30C9  F2                 BYT $F2
30CA  00                 BYT $00
30CB  00                 BYT $00
30CC  84                 BYT $84
30CD  40                 BYT $40
30CE  00                 BYT $00
30CF  08                 BYT $08
30D0  4C                 BYT $4C
30D1  00                 BYT $00
30D2  08                 BYT $08
30D3  ED                 BYT $ED
30D4  40                 BYT $40
30D5  0F                 BYT $0F
30D6  FF                 BYT $FF
30D7  C0                 BYT $C0
30D8  3F                 BYT $3F
30D9  FF                 BYT $FF
30DA  D0                 BYT $D0
30DB  BF                 BYT $BF
30DC  FF                 BYT $FF
30DD  F0                 BYT $F0
30DE  EF                 BYT $EF
30DF  FF                 BYT $FF
30E0  F4                 BYT $F4
30E1  4F                 BYT $4F
30E2  FF                 BYT $FF
30E3  FC                 BYT $FC
30E4  0B                 BYT $0B
30E5  FF                 BYT $FF
30E6  FD                 BYT $FD
30E7  4F                 BYT $4F
30E8  FF                 BYT $FF
30E9  FF                 BYT $FF
30EA  EF                 BYT $EF
30EB  FF                 BYT $FF
30EC  FD                 BYT $FD
30ED  BF                 BYT $BF
30EE  FF                 BYT $FF
30EF  FC                 BYT $FC
30F0  04                 BYT $04
30F1  C3                 BYT $C3
30F2  24                 BYT $24
30F3  2A                 BYT $2A
30F4  18                 BYT $18
30F5  58                 BYT $58
30F6  11                 BYT $11
30F7  24                 BYT $24
30F8  81                 BYT $81
30F9  8A                 BYT $8A
30FA  24                 BYT $24
30FB  52                 BYT $52
30FC  8A                 BYT $8A
30FD  A4                 BYT $A4
30FE  52                 BYT $52
30FF  00                 BYT $00
3100  20                 BYT $20
3101  20                 BYT $20
3102  00                 BYT $00
3103  34                 BYT $34
3104  34                 BYT $34
3105  00                 BYT $00
3106  20                 BYT $20
3107  A0                 BYT $A0
3108  00                 BYT $00
3109  04                 BYT $04
310A  80                 BYT $80
310B  00                 BYT $00
310C  08                 BYT $08
310D  40                 BYT $40
310E  00                 BYT $00
310F  01                 BYT $01
3110  4C                 BYT $4C
3111  00                 BYT $00
3112  08                 BYT $08
3113  ED                 BYT $ED
3114  40                 BYT $40
3115  0F                 BYT $0F
3116  FF                 BYT $FF
3117  C0                 BYT $C0
3118  3F                 BYT $3F
3119  FF                 BYT $FF
311A  D0                 BYT $D0
311B  BF                 BYT $BF
311C  FF                 BYT $FF
311D  F0                 BYT $F0
311E  EF                 BYT $EF
311F  FF                 BYT $FF
3120  F4                 BYT $F4
3121  4F                 BYT $4F
3122  FF                 BYT $FF
3123  FC                 BYT $FC
3124  0B                 BYT $0B
3125  FF                 BYT $FF
3126  FD                 BYT $FD
3127  4F                 BYT $4F
3128  FF                 BYT $FF
3129  FF                 BYT $FF
312A  EF                 BYT $EF
312B  FF                 BYT $FF
312C  FD                 BYT $FD
312D  BF                 BYT $BF
312E  FF                 BYT $FF
312F  FC                 BYT $FC
3130  04                 BYT $04
3131  C3                 BYT $C3
3132  24                 BYT $24
3133  04                 BYT $04
3134  C3                 BYT $C3
3135  24                 BYT $24
3136  04                 BYT $04
3137  C3                 BYT $C3
3138  24                 BYT $24
3139  04                 BYT $04
313A  C3                 BYT $C3
313B  24                 BYT $24
313C  04                 BYT $04
313D  C3                 BYT $C3
313E  24                 BYT $24
313F  00                 BYT $00
3140  00                 BYT $00
3141  00                 BYT $00
3142  00                 BYT $00
3143  00                 BYT $00
3144  00                 BYT $00
3145  00                 BYT $00
3146  00                 BYT $00
3147  00                 BYT $00
3148  00                 BYT $00
3149  10                 BYT $10
314A  00                 BYT $00
314B  10                 BYT $10
314C  18                 BYT $18
314D  00                 BYT $00
314E  38                 BYT $38
314F  3C                 BYT $3C
3150  00                 BYT $00
3151  7C                 BYT $7C
3152  3E                 BYT $3E
3153  00                 BYT $00
3154  FE                 BYT $FE
3155  7F                 BYT $7F
3156  01                 BYT $01
3157  FE                 BYT $FE
3158  7F                 BYT $7F
3159  83                 BYT $83
315A  F7                 BYT $F7
315B  FF                 BYT $FF
315C  C7                 BYT $C7
315D  E7                 BYT $E7
315E  F7                 BYT $F7
315F  E7                 BYT $E7
3160  C3                 BYT $C3
3161  E3                 BYT $E3
3162  FF                 BYT $FF
3163  83                 BYT $83
3164  C1                 BYT $C1
3165  FF                 BYT $FF
3166  01                 BYT $01
3167  80                 BYT $80
3168  BD                 BYT $BD
3169  01                 BYT $01
316A  00                 BYT $00
316B  FE                 BYT $FE
316C  00                 BYT $00
316D  00                 BYT $00
316E  7C                 BYT $7C
316F  00                 BYT $00
3170  00                 BYT $00
3171  D6                 BYT $D6
3172  00                 BYT $00
3173  01                 BYT $01
3174  83                 BYT $83
3175  00                 BYT $00
3176  01                 BYT $01
3177  01                 BYT $01
3178  00                 BYT $00
3179  01                 BYT $01
317A  83                 BYT $83
317B  00                 BYT $00
317C  00                 BYT $00
317D  00                 BYT $00
317E  00                 BYT $00
317F  00                 BYT $00
3180  80                 BYT $80
3181  00                 BYT $00
3182  01                 BYT $01
3183  80                 BYT $80
3184  00                 BYT $00
3185  02                 BYT $02
3186  40                 BYT $40
3187  00                 BYT $00
3188  06                 BYT $06
3189  60                 BYT $60
318A  00                 BYT $00
318B  0C                 BYT $0C
318C  30                 BYT $30
318D  00                 BYT $00
318E  1C                 BYT $1C
318F  38                 BYT $38
3190  00                 BYT $00
3191  38                 BYT $38
3192  1C                 BYT $1C
3193  00                 BYT $00
3194  78                 BYT $78
3195  1E                 BYT $1E
3196  00                 BYT $00
3197  F0                 BYT $F0
3198  0F                 BYT $0F
3199  01                 BYT $01
319A  F0                 BYT $F0
319B  0F                 BYT $0F
319C  83                 BYT $83
319D  E0                 BYT $E0
319E  07                 BYT $07
319F  C7                 BYT $C7
31A0  E0                 BYT $E0
31A1  07                 BYT $07
31A2  FF                 BYT $FF
31A3  C0                 BYT $C0
31A4  03                 BYT $03
31A5  FF                 BYT $FF
31A6  C0                 BYT $C0
31A7  03                 BYT $03
31A8  BD                 BYT $BD
31A9  80                 BYT $80
31AA  00                 BYT $00
31AB  FE                 BYT $FE
31AC  00                 BYT $00
31AD  00                 BYT $00
31AE  7C                 BYT $7C
31AF  00                 BYT $00
31B0  00                 BYT $00
31B1  D6                 BYT $D6
31B2  00                 BYT $00
31B3  01                 BYT $01
31B4  83                 BYT $83
31B5  00                 BYT $00
31B6  01                 BYT $01
31B7  01                 BYT $01
31B8  00                 BYT $00
31B9  01                 BYT $01
31BA  83                 BYT $83
31BB  00                 BYT $00
31BC  00                 BYT $00
31BD  00                 BYT $00
31BE  00                 BYT $00
31BF  00                 BYT $00
31C0  7E                 BYT $7E
31C1  00                 BYT $00
31C2  00                 BYT $00
31C3  CF                 BYT $CF
31C4  00                 BYT $00
31C5  00                 BYT $00
31C6  F3                 BYT $F3
31C7  00                 BYT $00
31C8  00                 BYT $00
31C9  CF                 BYT $CF
31CA  00                 BYT $00
31CB  00                 BYT $00
31CC  F3                 BYT $F3
31CD  00                 BYT $00
31CE  00                 BYT $00
31CF  CF                 BYT $CF
31D0  00                 BYT $00
31D1  00                 BYT $00
31D2  F3                 BYT $F3
31D3  00                 BYT $00
31D4  00                 BYT $00
31D5  7E                 BYT $7E
31D6  00                 BYT $00
31D7  00                 BYT $00
31D8  00                 BYT $00
31D9  00                 BYT $00
31DA  00                 BYT $00
31DB  00                 BYT $00
31DC  00                 BYT $00
31DD  00                 BYT $00
31DE  00                 BYT $00
31DF  00                 BYT $00
31E0  00                 BYT $00
31E1  00                 BYT $00
31E2  00                 BYT $00
31E3  00                 BYT $00
31E4  00                 BYT $00
31E5  00                 BYT $00
31E6  00                 BYT $00
31E7  00                 BYT $00
31E8  00                 BYT $00
31E9  00                 BYT $00
31EA  00                 BYT $00
31EB  00                 BYT $00
31EC  00                 BYT $00
31ED  00                 BYT $00
31EE  00                 BYT $00
31EF  00                 BYT $00
31F0  00                 BYT $00
31F1  00                 BYT $00
31F2  00                 BYT $00
31F3  00                 BYT $00
31F4  00                 BYT $00
31F5  00                 BYT $00
31F6  00                 BYT $00
31F7  00                 BYT $00
31F8  00                 BYT $00
31F9  00                 BYT $00
31FA  00                 BYT $00
31FB  00                 BYT $00
31FC  00                 BYT $00
31FD  00                 BYT $00
31FE  00                 BYT $00
31FF  00                 BYT $00
3200  0F         L00567  BYT $0F
3201  18                 BYT $18
3202  00                 BYT $00
3203  03                 BYT $03
3204  3C                 BYT $3C
3205  00                 BYT $00
3206  03                 BYT $03
3207  1E                 BYT $1E
3208  00                 BYT $00
3209  03                 BYT $03
320A  1F                 BYT $1F
320B  00                 BYT $00
320C  03                 BYT $03
320D  1F                 BYT $1F
320E  00                 BYT $00
320F  03                 BYT $03
3210  FF                 BYT $FF
3211  F0                 BYT $F0
3212  01                 BYT $01
3213  FF                 BYT $FF
3214  F0                 BYT $F0
3215  00                 BYT $00
3216  3E                 BYT $3E
3217  30                 BYT $30
3218  00                 BYT $00
3219  1C                 BYT $1C
321A  30                 BYT $30
321B  00                 BYT $00
321C  1C                 BYT $1C
321D  30                 BYT $30
321E  00                 BYT $00
321F  1C                 BYT $1C
3220  3C                 BYT $3C
3221  00                 BYT $00
3222  3C                 BYT $3C
3223  00                 BYT $00
3224  00                 BYT $00
3225  3E                 BYT $3E
3226  00                 BYT $00
3227  00                 BYT $00
3228  7E                 BYT $7E
3229  00                 BYT $00
322A  00                 BYT $00
322B  3C                 BYT $3C
322C  00                 BYT $00
322D  00                 BYT $00
322E  3F                 BYT $3F
322F  00                 BYT $00
3230  00                 BYT $00
3231  37                 BYT $37
3232  C0                 BYT $C0
3233  00                 BYT $00
3234  20                 BYT $20
3235  40                 BYT $40
3236  00                 BYT $00
3237  20                 BYT $20
3238  40                 BYT $40
3239  00                 BYT $00
323A  E0                 BYT $E0
323B  00                 BYT $00
323C  00                 BYT $00
323D  00                 BYT $00
323E  00                 BYT $00
323F  00                 BYT $00
3240  F0                 BYT $F0
3241  18                 BYT $18
3242  00                 BYT $00
3243  38                 BYT $38
3244  2C                 BYT $2C
3245  00                 BYT $00
3246  1C                 BYT $1C
3247  1A                 BYT $1A
3248  00                 BYT $00
3249  0E                 BYT $0E
324A  17                 BYT $17
324B  00                 BYT $00
324C  07                 BYT $07
324D  1D                 BYT $1D
324E  00                 BYT $00
324F  03                 BYT $03
3250  FF                 BYT $FF
3251  C0                 BYT $C0
3252  01                 BYT $01
3253  FF                 BYT $FF
3254  E0                 BYT $E0
3255  00                 BYT $00
3256  3F                 BYT $3F
3257  70                 BYT $70
3258  00                 BYT $00
3259  1E                 BYT $1E
325A  38                 BYT $38
325B  00                 BYT $00
325C  1C                 BYT $1C
325D  1C                 BYT $1C
325E  00                 BYT $00
325F  14                 BYT $14
3260  0F                 BYT $0F
3261  00                 BYT $00
3262  28                 BYT $28
3263  00                 BYT $00
3264  00                 BYT $00
3265  56                 BYT $56
3266  00                 BYT $00
3267  03                 BYT $03
3268  EA                 BYT $EA
3269  00                 BYT $00
326A  03                 BYT $03
326B  FC                 BYT $FC
326C  00                 BYT $00
326D  02                 BYT $02
326E  0C                 BYT $0C
326F  00                 BYT $00
3270  0E                 BYT $0E
3271  0C                 BYT $0C
3272  00                 BYT $00
3273  00                 BYT $00
3274  0C                 BYT $0C
3275  00                 BYT $00
3276  00                 BYT $00
3277  08                 BYT $08
3278  00                 BYT $00
3279  00                 BYT $00
327A  38                 BYT $38
327B  00                 BYT $00
327C  00                 BYT $00
327D  00                 BYT $00
327E  00                 BYT $00
327F  00                 BYT $00
3280  00                 BYT $00
3281  18                 BYT $18
3282  F0                 BYT $F0
3283  00                 BYT $00
3284  3C                 BYT $3C
3285  C0                 BYT $C0
3286  00                 BYT $00
3287  78                 BYT $78
3288  C0                 BYT $C0
3289  00                 BYT $00
328A  F8                 BYT $F8
328B  C0                 BYT $C0
328C  00                 BYT $00
328D  F8                 BYT $F8
328E  C0                 BYT $C0
328F  0F                 BYT $0F
3290  FF                 BYT $FF
3291  C0                 BYT $C0
3292  0F                 BYT $0F
3293  FF                 BYT $FF
3294  80                 BYT $80
3295  0C                 BYT $0C
3296  7C                 BYT $7C
3297  00                 BYT $00
3298  0C                 BYT $0C
3299  38                 BYT $38
329A  00                 BYT $00
329B  0C                 BYT $0C
329C  38                 BYT $38
329D  00                 BYT $00
329E  3C                 BYT $3C
329F  38                 BYT $38
32A0  00                 BYT $00
32A1  00                 BYT $00
32A2  3C                 BYT $3C
32A3  00                 BYT $00
32A4  00                 BYT $00
32A5  7C                 BYT $7C
32A6  00                 BYT $00
32A7  00                 BYT $00
32A8  7E                 BYT $7E
32A9  00                 BYT $00
32AA  00                 BYT $00
32AB  3C                 BYT $3C
32AC  00                 BYT $00
32AD  00                 BYT $00
32AE  FC                 BYT $FC
32AF  00                 BYT $00
32B0  03                 BYT $03
32B1  EC                 BYT $EC
32B2  00                 BYT $00
32B3  02                 BYT $02
32B4  04                 BYT $04
32B5  00                 BYT $00
32B6  02                 BYT $02
32B7  04                 BYT $04
32B8  00                 BYT $00
32B9  00                 BYT $00
32BA  07                 BYT $07
32BB  00                 BYT $00
32BC  00                 BYT $00
32BD  00                 BYT $00
32BE  00                 BYT $00
32BF  00                 BYT $00
32C0  00                 BYT $00
32C1  18                 BYT $18
32C2  0F                 BYT $0F
32C3  00                 BYT $00
32C4  34                 BYT $34
32C5  1C                 BYT $1C
32C6  00                 BYT $00
32C7  58                 BYT $58
32C8  38                 BYT $38
32C9  00                 BYT $00
32CA  E8                 BYT $E8
32CB  70                 BYT $70
32CC  00                 BYT $00
32CD  B8                 BYT $B8
32CE  E0                 BYT $E0
32CF  03                 BYT $03
32D0  FF                 BYT $FF
32D1  C0                 BYT $C0
32D2  07                 BYT $07
32D3  FF                 BYT $FF
32D4  80                 BYT $80
32D5  0E                 BYT $0E
32D6  FC                 BYT $FC
32D7  00                 BYT $00
32D8  1C                 BYT $1C
32D9  78                 BYT $78
32DA  00                 BYT $00
32DB  38                 BYT $38
32DC  38                 BYT $38
32DD  00                 BYT $00
32DE  F0                 BYT $F0
32DF  28                 BYT $28
32E0  00                 BYT $00
32E1  00                 BYT $00
32E2  14                 BYT $14
32E3  00                 BYT $00
32E4  00                 BYT $00
32E5  6A                 BYT $6A
32E6  00                 BYT $00
32E7  00                 BYT $00
32E8  57                 BYT $57
32E9  C0                 BYT $C0
32EA  00                 BYT $00
32EB  3F                 BYT $3F
32EC  C0                 BYT $C0
32ED  00                 BYT $00
32EE  30                 BYT $30
32EF  40                 BYT $40
32F0  00                 BYT $00
32F1  30                 BYT $30
32F2  70                 BYT $70
32F3  00                 BYT $00
32F4  30                 BYT $30
32F5  00                 BYT $00
32F6  00                 BYT $00
32F7  10                 BYT $10
32F8  00                 BYT $00
32F9  00                 BYT $00
32FA  1C                 BYT $1C
32FB  00                 BYT $00
32FC  00                 BYT $00
32FD  00                 BYT $00
32FE  00                 BYT $00
32FF  00                 BYT $00
3300  01                 BYT $01
3301  FF                 BYT $FF
3302  80                 BYT $80
3303  00                 BYT $00
3304  00                 BYT $00
3305  00                 BYT $00
3306  07                 BYT $07
3307  FF                 BYT $FF
3308  E0                 BYT $E0
3309  00                 BYT $00
330A  00                 BYT $00
330B  00                 BYT $00
330C  1F                 BYT $1F
330D  FF                 BYT $FF
330E  F8                 BYT $F8
330F  00                 BYT $00
3310  00                 BYT $00
3311  00                 BYT $00
3312  7F                 BYT $7F
3313  FF                 BYT $FF
3314  FE                 BYT $FE
3315  01                 BYT $01
3316  CF                 BYT $CF
3317  80                 BYT $80
3318  FE                 BYT $FE
3319  2C                 BYT $2C
331A  7F                 BYT $7F
331B  01                 BYT $01
331C  2C                 BYT $2C
331D  80                 BYT $80
331E  FF                 BYT $FF
331F  EF                 BYT $EF
3320  FF                 BYT $FF
3321  01                 BYT $01
3322  D7                 BYT $D7
3323  80                 BYT $80
3324  FF                 BYT $FF
3325  DF                 BYT $DF
3326  FF                 BYT $FF
3327  00                 BYT $00
3328  FF                 BYT $FF
3329  00                 BYT $00
332A  FE                 BYT $FE
332B  C3                 BYT $C3
332C  7F                 BYT $7F
332D  01                 BYT $01
332E  81                 BYT $81
332F  80                 BYT $80
3330  FF                 BYT $FF
3331  00                 BYT $00
3332  FF                 BYT $FF
3333  01                 BYT $01
3334  FF                 BYT $FF
3335  80                 BYT $80
3336  FE                 BYT $FE
3337  7E                 BYT $7E
3338  7F                 BYT $7F
3339  00                 BYT $00
333A  3C                 BYT $3C
333B  00                 BYT $00
333C  FE                 BYT $FE
333D  00                 BYT $00
333E  7F                 BYT $7F
333F  00                 BYT $00
3340  00                 BYT $00
3341  00                 BYT $00
3342  00                 BYT $00
3343  00                 BYT $00
3344  00                 BYT $00
3345  00                 BYT $00
3346  00                 BYT $00
3347  00                 BYT $00
3348  00                 BYT $00
3349  00                 BYT $00
334A  00                 BYT $00
334B  00                 BYT $00
334C  00                 BYT $00
334D  00                 BYT $00
334E  00                 BYT $00
334F  00                 BYT $00
3350  00                 BYT $00
3351  00                 BYT $00
3352  00                 BYT $00
3353  00                 BYT $00
3354  00                 BYT $00
3355  00                 BYT $00
3356  00                 BYT $00
3357  00                 BYT $00
3358  00                 BYT $00
3359  00                 BYT $00
335A  00                 BYT $00
335B  00                 BYT $00
335C  00                 BYT $00
335D  00                 BYT $00
335E  24                 BYT $24
335F  50                 BYT $50
3360  20                 BYT $20
3361  75                 BYT $75
3362  54                 BYT $54
3363  70                 BYT $70
3364  BD                 BYT $BD
3365  54                 BYT $54
3366  88                 BYT $88
3367  B9                 BYT $B9
3368  5F                 BYT $5F
3369  05                 BYT $05
336A  FF                 BYT $FF
336B  5A                 BYT $5A
336C  22                 BYT $22
336D  E1                 BYT $E1
336E  FF                 BYT $FF
336F  E1                 BYT $E1
3370  40                 BYT $40
3371  10                 BYT $10
3372  30                 BYT $30
3373  00                 BYT $00
3374  41                 BYT $41
3375  09                 BYT $09
3376  00                 BYT $00
3377  22                 BYT $22
3378  05                 BYT $05
3379  00                 BYT $00
337A  1F                 BYT $1F
337B  02                 BYT $02
337C  00                 BYT $00
337D  00                 BYT $00
337E  00                 BYT $00
337F  00                 BYT $00
3380  00                 BYT $00
3381  00                 BYT $00
3382  00                 BYT $00
3383  00                 BYT $00
3384  00                 BYT $00
3385  00                 BYT $00
3386  00                 BYT $00
3387  00                 BYT $00
3388  00                 BYT $00
3389  00                 BYT $00
338A  00                 BYT $00
338B  00                 BYT $00
338C  00                 BYT $00
338D  00                 BYT $00
338E  00                 BYT $00
338F  00                 BYT $00
3390  00                 BYT $00
3391  00                 BYT $00
3392  00                 BYT $00
3393  00                 BYT $00
3394  00                 BYT $00
3395  00                 BYT $00
3396  00                 BYT $00
3397  00                 BYT $00
3398  00                 BYT $00
3399  00                 BYT $00
339A  00                 BYT $00
339B  00                 BYT $00
339C  00                 BYT $00
339D  00                 BYT $00
339E  04                 BYT $04
339F  0A                 BYT $0A
33A0  24                 BYT $24
33A1  0E                 BYT $0E
33A2  2A                 BYT $2A
33A3  AE                 BYT $AE
33A4  11                 BYT $11
33A5  2A                 BYT $2A
33A6  BD                 BYT $BD
33A7  A0                 BYT $A0
33A8  FA                 BYT $FA
33A9  9D                 BYT $9D
33AA  44                 BYT $44
33AB  5A                 BYT $5A
33AC  FF                 BYT $FF
33AD  87                 BYT $87
33AE  FF                 BYT $FF
33AF  87                 BYT $87
33B0  0C                 BYT $0C
33B1  11                 BYT $11
33B2  02                 BYT $02
33B3  90                 BYT $90
33B4  82                 BYT $82
33B5  00                 BYT $00
33B6  A0                 BYT $A0
33B7  44                 BYT $44
33B8  00                 BYT $00
33B9  40                 BYT $40
33BA  F8                 BYT $F8
33BB  00                 BYT $00
33BC  00                 BYT $00
33BD  00                 BYT $00
33BE  00                 BYT $00
33BF  00                 BYT $00
33C0  00                 BYT $00
33C1  00                 BYT $00
33C2  00                 BYT $00
33C3  00                 BYT $00
33C4  00                 BYT $00
33C5  00                 BYT $00
33C6  00                 BYT $00
33C7  00                 BYT $00
33C8  00                 BYT $00
33C9  00                 BYT $00
33CA  08                 BYT $08
33CB  00                 BYT $00
33CC  08                 BYT $08
33CD  88                 BYT $88
33CE  10                 BYT $10
33CF  06                 BYT $06
33D0  5A                 BYT $5A
33D1  20                 BYT $20
33D2  03                 BYT $03
33D3  FE                 BYT $FE
33D4  E0                 BYT $E0
33D5  01                 BYT $01
33D6  FF                 BYT $FF
33D7  C0                 BYT $C0
33D8  03                 BYT $03
33D9  FF                 BYT $FF
33DA  80                 BYT $80
33DB  01                 BYT $01
33DC  FF                 BYT $FF
33DD  00                 BYT $00
33DE  1F                 BYT $1F
33DF  FF                 BYT $FF
33E0  E0                 BYT $E0
33E1  03                 BYT $03
33E2  FF                 BYT $FF
33E3  80                 BYT $80
33E4  01                 BYT $01
33E5  FF                 BYT $FF
33E6  C0                 BYT $C0
33E7  07                 BYT $07
33E8  FE                 BYT $FE
33E9  F0                 BYT $F0
33EA  08                 BYT $08
33EB  DF                 BYT $DF
33EC  38                 BYT $38
33ED  01                 BYT $01
33EE  8D                 BYT $8D
33EF  0C                 BYT $0C
33F0  03                 BYT $03
33F1  0D                 BYT $0D
33F2  80                 BYT $80
33F3  06                 BYT $06
33F4  0C                 BYT $0C
33F5  80                 BYT $80
33F6  00                 BYT $00
33F7  04                 BYT $04
33F8  00                 BYT $00
33F9  00                 BYT $00
33FA  00                 BYT $00
33FB  00                 BYT $00
33FC  00                 BYT $00
33FD  00                 BYT $00
33FE  00                 BYT $00
33FF  00                 BYT $00
                 ;
                 ;   Sprite definitions end
                 ;
                 ;________________________________________
                 ;
                 ;   Scroll screen down
                 ;
3400  A9 00      L00587  LDA #$00
3402  85 1A              STA $1A             ; Scrolling is possible
3404  A5 11              LDA $11             ; Position on map HI
3406  C9 40              CMP #$40            ; Check against top border HI
3408  D0 08              BNE L00588
340A  A5 10              LDA $10             ; Position on map LO
340C  C9 A0              CMP #$A0            ; Check against top border LO
340E  B0 02              BCS L00588
3410  E6 1A              INC $1A             ; Scrolling not possible
3412  AD 11 D0   L00588  LDA $D011           ; VIC CONTROL REGISTER 1
3415  29 07      L00590  AND #$07
3417  C9 07              CMP #$07            ; Y-SCROLL = 7?
3419  F0 0B              BEQ L00594
341B  AD 12 D0   L00591  LDA $D012           ; VIC RASTER REGISTER
341E  C9 00              CMP #$00
3420  D0 F9      L00592  BNE L00591          ; Wait for line 0
3422  EE 11 D0           INC $D011           ; Move screen down 1 pixel
3425  60         L00593  RTS
3426  A5 1A      L00594  LDA $1A             ; Was scrolling possible?
3428  D0 FB              BNE L00593
342A  38                 SEC
342B  A5 10              LDA $10             ; Position on map LO
342D  E9 A0              SBC #$A0
342F  85 10              STA $10             ; Point to previous line on map
3431  B0 02              BCS L00595
3433  C6 11              DEC $11             ; Position on map HI
3435  38         L00595  SEC
3436  A5 16              LDA $16
3438  E9 A0              SBC #$A0
343A  85 16              STA $16             ; Left border LO
343C  B0 02              BCS L00596
343E  C6 17              DEC $17             ; Left border HI
3440  38         L00596  SEC
3441  A5 18              LDA $18
3443  E9 A0              SBC #$A0
3445  85 18              STA $18             ; Right border LO
3447  B0 02              BCS L00597
3449  C6 19              DEC $19             ; Right border HI
344B  A9 01      L00597  LDA #$01
344D  85 1B              STA $1B
344F  A2 00              LDX #$00
3451  BD 00 04   L00598  LDA $0400,X
3454  9D 00 08           STA $0800,X         ; Copy screen from $0400 to $0800
3457  BD 00 05           LDA $0500,X
345A  9D 00 09           STA $0900,X
345D  BD 00 06           LDA $0600,X
3460  9D 00 0A           STA $0A00,X
3463  E8                 INX
3464  D0 EB              BNE L00598
3466  BD 00 07   L00599  LDA $0700,X
3469  9D 00 0B           STA $0B00,X
346C  E8                 INX
346D  E0 E8              CPX #$E8
346F  D0 F5              BNE L00599
3471  AD 12 D0   L00601  LDA $D012           ; VIC RASTER REGISTER
3474  C9 DC              CMP #$DC
3476  D0 F9              BNE L00601          ; Wait for line 220
3478  AD 11 D0           LDA $D011           ; VIC CONTROL REGISTER 1
347B  29 F8              AND #$F8
347D  8D 11 D0           STA $D011           ; Y-SCROLL = 0
3480  A2 00              LDX #$00
3482  BD 00 08   L00602  LDA $0800,X
3485  9D 28 04           STA $0428,X         ; Move screen down 1 line using copy
3488  E8                 INX
3489  D0 F7              BNE L00602
348B  BD 00 09   L00603  LDA $0900,X
348E  9D 28 05           STA $0528,X
3491  E8                 INX
3492  D0 F7              BNE L00603
3494  BD 00 0A   L00604  LDA $0A00,X
3497  9D 28 06           STA $0628,X
349A  E8                 INX
349B  D0 F7              BNE L00604
349D  BD 00 0B   L00605  LDA $0B00,X
34A0  9D 28 07           STA $0728,X
34A3  E8                 INX
34A4  E0 C0              CPX #$C0
34A6  D0 F5              BNE L00605
34A8  A2 27              LDX #$27
34AA  A0 27              LDY #$27
34AC  B1 10      L00606  LDA ($10),Y
34AE  9D 00 04           STA $0400,X         ; Move data from map to top screen line
34B1  88                 DEY
34B2  CA                 DEX
34B3  10 F7              BPL L00606
34B5  60                 RTS
                 ;________________________________________
34B6  EA                 NOP
34B7  EA                 NOP
34B8  EA                 NOP
34B9  EA                 NOP
34BA  EA                 NOP
34BB  EA                 NOP
34BC  00                 BYT $00
34BD  00                 BYT $00
34BE  00                 BYT $00
34BF  00                 BYT $00
                 ;________________________________________
                 ;
                 ;   Scroll screen up
                 ;
34C0  A9 00      L00607  LDA #$00
34C2  85 1A              STA $1A             ; Scrolling is possible
34C4  A5 11              LDA $11             ; Position on map HI
34C6  C9 6F              CMP #$6F            ; Check against bottom border HI
34C8  B0 0A              BCS L00608
34CA  C9 6E              CMP #$6E
34CC  D0 08              BNE L00609
34CE  A5 10              LDA $10             ; Position on map LO
34D0  C9 E0              CMP #$E0            ; Check against bottom border LO
34D2  90 02              BCC L00609
34D4  E6 1A      L00608  INC $1A             ; Scrolling not possible
34D6  AD 11 D0   L00609  LDA $D011           ; VIC CONTROL REGISTER 1
34D9  29 07              AND #$07            ; IF RAS-HI,ECM,BITMAP,SCREEN,25-ROWS OFF
34DB  F0 0B              BEQ L00612          ; Y-SCROLL = 0?
34DD  AD 12 D0   L00610  LDA $D012           ; VIC RASTER REGISTER
34E0  C9 10              CMP #$10
34E2  D0 F9              BNE L00610          ; Wait for line 16
34E4  CE 11 D0           DEC $D011           ; Move screen up 1 pixel
34E7  60         L00611  RTS
34E8  A5 1A      L00612  LDA $1A             ; Was scrolling possible?
34EA  D0 FB              BNE L00611
34EC  18                 CLC
34ED  A5 10              LDA $10             ; Position on map LO
34EF  69 A0              ADC #$A0
34F1  85 10              STA $10             ; Point to next line on map
34F3  90 02              BCC L00613
34F5  E6 11              INC $11             ; Position on map HI
34F7  18         L00613  CLC
34F8  A5 16              LDA $16
34FA  69 A0              ADC #$A0
34FC  85 16              STA $16             ; Left border LO
34FE  90 02              BCC L00614
3500  E6 17              INC $17             ; Left border HI
3502  18         L00614  CLC
3503  A5 18              LDA $18
3505  69 A0              ADC #$A0
3507  85 18              STA $18             ; Right border LO
3509  90 02              BCC L00615
350B  E6 19              INC $19             ; Right border HI
350D  A9 02      L00615  LDA #$02
350F  85 1B              STA $1B
3511  18                 CLC
3512  A5 10              LDA $10             ; Position on map LO
3514  69 A0              ADC #$A0
3516  85 12              STA $12             ; Add 25 lines to ($10) to get ($12)
3518  A5 11              LDA $11             ; Position on map HI
351A  69 0F              ADC #$0F
351C  85 13              STA $13
351E  AD 12 D0   L00616  LDA $D012           ; VIC RASTER REGISTER
3521  C9 F8              CMP #$F8
3523  D0 F9              BNE L00616          ; Wait for line 248
3525  AD 11 D0           LDA $D011           ; VIC CONTROL REGISTER 1
3528  29 F8              AND #$F8
352A  09 07              ORA #$07            ; Y-SCROLL = 7
352C  8D 11 D0           STA $D011           ; VIC CONTROL REGISTER 1
352F  A2 00              LDX #$00
3531  BD 28 04   L00617  LDA $0428,X
3534  9D 00 04           STA $0400,X         ; Move screen up 1 line
3537  E8                 INX
3538  D0 F7              BNE L00617
353A  BD 28 05   L00618  LDA $0528,X
353D  9D 00 05           STA $0500,X
3540  E8                 INX
3541  D0 F7              BNE L00618
3543  BD 28 06   L00619  LDA $0628,X
3546  9D 00 06           STA $0600,X
3549  E8                 INX
354A  D0 F7              BNE L00619
354C  BD 28 07   L00620  LDA $0728,X
354F  9D 00 07           STA $0700,X
3552  E8                 INX
3553  E0 C0              CPX #$C0
3555  D0 F5              BNE L00620
3557  A2 27              LDX #$27
3559  A0 27              LDY #$27
355B  B1 12      L00621  LDA ($12),Y
355D  9D C0 07           STA $07C0,X         ; Move data from map to bottom screen line
3560  88                 DEY
3561  CA                 DEX
3562  10 F7              BPL L00621
3564  60                 RTS
                 ;________________________________________
3565  00                 BYT $00
3566  00                 BYT $00
3567  00                 BYT $00
3568  00                 BYT $00
3569  00                 BYT $00
356A  00                 BYT $00
356B  00                 BYT $00
356C  00                 BYT $00
356D  00                 BYT $00
356E  00                 BYT $00
356F  00                 BYT $00
                 ;________________________________________
                 ;
                 ;   Scroll screen right
                 ;
3570  A9 00      L00622  LDA #$00
3572  85 1A              STA $1A             ; Scrolling is possible
3574  A5 11              LDA $11             ; Position on map HI
3576  C5 17              CMP $17             ; Check against left border HI
3578  D0 08              BNE L00623
357A  A5 10              LDA $10             ; Position on map LO
357C  C5 16              CMP $16             ; Check against left border LO
357E  D0 02              BNE L00623
3580  E6 1A              INC $1A             ; Scrolling not possible
3582  AD 16 D0   L00623  LDA $D016           ; VIC CONTROL REGISTER 2
3585  29 07              AND #$07
3587  C9 07              CMP #$07            ; X-SCROLL = 7?
3589  F0 04              BEQ L00625
358B  EE 16 D0           INC $D016           ; Move screen right 1 pixel
358E  60         L00624  RTS
358F  A5 1A      L00625  LDA $1A             ; Was scrolling possible?
3591  D0 FB              BNE L00624
3593  C6 10              DEC $10             ; Position on map LO
3595  A5 10              LDA $10
3597  C9 FF              CMP #$FF
3599  D0 02              BNE L00626
359B  C6 11              DEC $11             ; Position on map HI
359D  A5 10      L00626  LDA $10             ; Position on map LO
359F  85 12              STA $12
35A1  A5 11              LDA $11             ; Position on map HI
35A3  85 13              STA $13
35A5  A9 00              LDA #$00
35A7  85 14              STA $14
35A9  A9 04              LDA #$04
35AB  85 15              STA $15             ; ($14) = $0400 (Screen)
35AD  A9 00              LDA #$00
35AF  85 1B              STA $1B
35B1  A9 01              LDA #$01
35B3  85 1D              STA $1D
35B5  A9 04              LDA #$04
35B7  85 1C              STA $1C             ; ($1B) = $0400
35B9  A9 08              LDA #$08
35BB  85 1E              STA $1E             ; ($1D) = $0801
35BD  A2 18              LDX #$18
35BF  A0 26      L00627  LDY #$26
35C1  B1 1B      L00628  LDA ($1B),Y
35C3  91 1D              STA ($1D),Y         ; Copy screen from $0400 to $0801
35C5  88                 DEY
35C6  10 F9              BPL L00628
35C8  18                 CLC
35C9  A5 1B              LDA $1B
35CB  69 28              ADC #$28
35CD  85 1B              STA $1B
35CF  90 02              BCC L00629
35D1  E6 1C              INC $1C
35D3  18         L00629  CLC
35D4  A5 1D              LDA $1D
35D6  69 28              ADC #$28
35D8  85 1D              STA $1D
35DA  90 02              BCC L00630
35DC  E6 1E              INC $1E
35DE  CA         L00630  DEX
35DF  10 DE              BPL L00627
35E1  AD 12 D0   L00631  LDA $D012           ; VIC RASTER REGISTER
35E4  C9 FA              CMP #$FA
35E6  D0 F9              BNE L00631          ; Wait for line 250
35E8  AD 16 D0           LDA $D016           ; VIC CONTROL REGISTER 2
35EB  29 F8              AND #$F8
35ED  8D 16 D0           STA $D016           ; X-SCROLL = 0
35F0  A2 00              LDX #$00
35F2  BD 00 08   L00632  LDA $0800,X
35F5  9D 00 04           STA $0400,X         ; Move screen right 1 char using copy
35F8  E8                 INX
35F9  D0 F7              BNE L00632
35FB  BD 00 09   L00633  LDA $0900,X
35FE  9D 00 05           STA $0500,X
3601  E8                 INX
3602  D0 F7              BNE L00633
3604  BD 00 0A   L00634  LDA $0A00,X
3607  9D 00 06           STA $0600,X
360A  E8                 INX
360B  D0 F7              BNE L00634
360D  BD 00 0B   L00635  LDA $0B00,X
3610  9D 00 07           STA $0700,X
3613  E8                 INX
3614  E0 E8              CPX #$E8
3616  D0 F5              BNE L00635
3618  A2 18              LDX #$18
361A  A0 00      L00636  LDY #$00
361C  B1 12              LDA ($12),Y
361E  91 14              STA ($14),Y         ; Copy data from map to 1st screen column
3620  18                 CLC
3621  A5 12              LDA $12
3623  69 A0              ADC #$A0
3625  85 12              STA $12
3627  90 02              BCC L00637
3629  E6 13              INC $13
362B  18         L00637  CLC
362C  A5 14              LDA $14
362E  69 28              ADC #$28
3630  85 14              STA $14
3632  90 02              BCC L00638
3634  E6 15              INC $15
3636  CA         L00638  DEX
3637  10 E1              BPL L00636
3639  60                 RTS
                 ;________________________________________
363A  EA                 NOP
363B  EA                 NOP
363C  EA                 NOP
363D  EA                 NOP
363E  EA                 NOP
363F  EA                 NOP
                 ;________________________________________
                 ;
                 ;   Scroll screen left
                 ;
3640  A9 00      L00639  LDA #$00
3642  85 1A              STA $1A             ; Scrolling is possible
3644  A5 11              LDA $11             ; Position on map HI
3646  C5 19              CMP $19             ; Check against right border HI
3648  D0 08              BNE L00640
364A  A5 10              LDA $10             ; Position on map LO
364C  C5 18              CMP $18             ; Check against right border LO
364E  D0 02              BNE L00640
3650  E6 1A              INC $1A             ; Scrolling not possible
3652  AD 16 D0   L00640  LDA $D016           ; VIC CONTROL REGISTER 2
3655  29 07              AND #$07
3657  F0 04              BEQ L00642          ; X-SCROLL = 0?
3659  CE 16 D0           DEC $D016           ; Move screen left 1 pixel
365C  60         L00641  RTS
365D  A5 1A      L00642  LDA $1A             ; Was scrolling possible?
365F  D0 FB              BNE L00641
3661  E6 10              INC $10             ; Position on map LO
3663  D0 02              BNE L00643
3665  E6 11              INC $11             ; Position on map HI
3667  A5 10      L00643  LDA $10             ; Position on map LO
3669  85 12              STA $12
366B  A5 11              LDA $11             ; Position on map HI
366D  85 13              STA $13
366F  A9 00              LDA #$00
3671  85 14              STA $14
3673  A9 04              LDA #$04
3675  85 15              STA $15
3677  A9 01              LDA #$01
3679  85 1B              STA $1B
367B  A9 00              LDA #$00
367D  85 1D              STA $1D
367F  A9 04              LDA #$04
3681  85 1C              STA $1C             ; ($1B) = $0401
3683  A9 08              LDA #$08
3685  85 1E              STA $1E             ; ($1D) = $0800
3687  A2 18              LDX #$18
3689  A0 00      L00644  LDY #$00
368B  B1 1B      L00645  LDA ($1B),Y
368D  91 1D              STA ($1D),Y         ; Copy screen from $0401 to $0800
368F  C8                 INY
3690  C0 27              CPY #$27
3692  D0 F7              BNE L00645
3694  18                 CLC
3695  A5 1B              LDA $1B
3697  69 28              ADC #$28
3699  85 1B              STA $1B
369B  90 02              BCC L00646
369D  E6 1C              INC $1C
369F  18         L00646  CLC
36A0  A5 1D              LDA $1D
36A2  69 28              ADC #$28
36A4  85 1D              STA $1D
36A6  90 02              BCC L00647
36A8  E6 1E              INC $1E
36AA  CA         L00647  DEX
36AB  10 DC              BPL L00644
36AD  AD 12 D0   L00648  LDA $D012           ; VIC RASTER REGISTER
36B0  C9 FA              CMP #$FA
36B2  D0 F9              BNE L00648          ; Wait for line 250
36B4  AD 16 D0           LDA $D016           ; VIC CONTROL REGISTER 2
36B7  29 F8              AND #$F8
36B9  09 07              ORA #$07            ; X-SCROLL = 7
36BB  8D 16 D0           STA $D016           ; VIC CONTROL REGISTER 2
36BE  A2 00              LDX #$00
36C0  BD 00 08   L00649  LDA $0800,X
36C3  9D 00 04           STA $0400,X         ; Move screen left 1 char using copy
36C6  E8                 INX
36C7  D0 F7              BNE L00649
36C9  BD 00 09   L00650  LDA $0900,X
36CC  9D 00 05           STA $0500,X
36CF  E8                 INX
36D0  D0 F7              BNE L00650
36D2  BD 00 0A   L00651  LDA $0A00,X
36D5  9D 00 06           STA $0600,X
36D8  E8                 INX
36D9  D0 F7              BNE L00651
36DB  BD 00 0B   L00652  LDA $0B00,X
36DE  9D 00 07           STA $0700,X
36E1  E8                 INX
36E2  E0 E8              CPX #$E8
36E4  D0 F5              BNE L00652
36E6  A2 18              LDX #$18
36E8  A0 27      L00653  LDY #$27
36EA  B1 12              LDA ($12),Y
36EC  91 14              STA ($14),Y         ; Copy data from map to rightmost screen column
36EE  18                 CLC
36EF  A5 12              LDA $12
36F1  69 A0              ADC #$A0
36F3  85 12              STA $12
36F5  90 02              BCC L00654
36F7  E6 13              INC $13
36F9  18         L00654  CLC
36FA  A5 14              LDA $14
36FC  69 28              ADC #$28
36FE  85 14              STA $14
3700  90 02              BCC L00655
3702  E6 15              INC $15
3704  CA         L00655  DEX
3705  10 E1              BPL L00653
3707  60                 RTS
                 ;________________________________________
3708  00                 BYT $00
3709  00                 BYT $00
370A  00                 BYT $00
370B  00                 BYT $00
370C  00                 BYT $00
370D  00                 BYT $00
370E  00                 BYT $00
370F  00                 BYT $00
                 ;________________________________________
3710  A9 3C              LDA #$3C
3712  85 10              STA $10             ; Position on map LO
3714  A9 40              LDA #$40
3716  85 11      L00656  STA $11             ; Position on map HI
3718  85 17              STA $17
371A  85 19              STA $19
371C  A9 00              LDA #$00
371E  85 16              STA $16
3720  A9 78      L00658  LDA #$78
3722  85 18              STA $18
3724  AD 18 D0           LDA $D018           ; VIC MEMORY CONTROL REGISTER
3727  29 F0              AND #$F0
3729  09 0E              ORA #$0E            ; Chars at $3800
372B  8D 18 D0           STA $D018           ; VIC MEMORY CONTROL REGISTER
372E  AD 16 D0           LDA $D016           ; VIC CONTROL REGISTER 2
3731  09 10              ORA #$10            ; MCM ON
3733  8D 16 D0           STA $D016
3736  A9 0C              LDA #$0C            ; GRAY 2
3738  8D 22 D0           STA $D022           ; BACKGROUND COLOR 1
373B  A9 08              LDA #$08            ; ORANGE
373D  8D 23 D0           STA $D023           ; BACKGROUND COLOR 2
3740  AD 11 D0           LDA $D011           ; VIC CONTROL REGISTER 1
3743  29 F0              AND #$F0
3745  09 07              ORA #$07            ; Y-SCROLL = 7
3747  8D 11 D0           STA $D011           ; VIC CONTROL REGISTER 1
374A  AD 16 D0           LDA $D016           ; VIC CONTROL REGISTER 2
374D  29 F0              AND #$F0
374F  09 07              ORA #$07            ; X-SCROLL = 7
3751  8D 16 D0           STA $D016           ; VIC CONTROL REGISTER 2
3754  A9 06              LDA #$06            ; BLUE
3756  8D 20 D0           STA $D020           ; BORDER COLOR
3759  A9 00              LDA #$00            ; BLACK
375B  8D 21 D0           STA $D021           ; BACKGROUND COLOR
375E  A2 00              LDX #$00
3760  A9 0E              LDA #$0E
3762  9D 00 D8   L00660  STA $D800,X
3765  9D 00 D9           STA $D900,X
3768  9D 00 DA           STA $DA00,X
376B  E8                 INX
376C  D0 F4              BNE L00660
376E  9D 00 DB   L00661  STA $DB00,X
3771  E8                 INX
3772  E0 E8              CPX #$E8
3774  D0 F8              BNE L00661
3776  4C 00 32           JMP L00567
                 ;________________________________________
3779  00                 BYT $00
377A  00                 BYT $00
377B  00                 BYT $00
377C  00                 BYT $00
377D  00                 BYT $00
377E  00                 BYT $00
377F  00                 BYT $00
                 ;________________________________________
3780  20 A0 9F   L00662  JSR L01571
3783  20 EA FF   L00663  JSR $FFEA           ; Update the software clock
3786  20 E1 FF           JSR $FFE1           ; Check the STOP key
3789  F0 F8              BEQ L00663
378B  20 EA FF   L00664  JSR $FFEA           ; Update the software clock 
378E  20 E1 FF           JSR $FFE1           ; Check the STOP key
3791  D0 F8              BNE L00664
3793  20 A0 9F           JSR L01571
3796  60                 RTS
                 ;________________________________________
3797  EA                 NOP
3798  EA                 NOP
3799  EA                 NOP
379A  00                 BYT $00
379B  00                 BYT $00
379C  00                 BYT $00
379D  00                 BYT $00
379E  00                 BYT $00
379F  00                 BYT $00
37A0  00                 BYT $00
37A1  00                 BYT $00
37A2  00                 BYT $00
37A3  00                 BYT $00
37A4  00                 BYT $00
37A5  00                 BYT $00
37A6  00                 BYT $00
37A7  00                 BYT $00
37A8  00                 BYT $00
37A9  00                 BYT $00
37AA  00                 BYT $00
37AB  00                 BYT $00
37AC  00                 BYT $00
37AD  00                 BYT $00
37AE  00                 BYT $00
37AF  00                 BYT $00
37B0  00                 BYT $00
37B1  00                 BYT $00
37B2  00                 BYT $00
37B3  00                 BYT $00
37B4  00                 BYT $00
37B5  00                 BYT $00
37B6  00                 BYT $00
37B7  00                 BYT $00
                 ;________________________________________
37B8  AD 15 D0   L00665  LDA $D015           ; SPRITE DISPLAY
37BB  29 20              AND #$20            ; IF BIT 5 OFF
37BD  F0 03              BEQ L00666
37BF  20 6E 99           JSR L01502
37C2  4C A0 1B   L00666  JMP L00318
                 ;________________________________________
37C5  A9 00      L00667  LDA #$00
37C7  85 5A              STA $5A
37C9  85 67              STA $67
37CB  60                 RTS
                 ;________________________________________
37CC  AD 15 D0   L00668  LDA $D015           ; SPRITE DISPLAY
37CF  29 40              AND #$40            ; IF BIT 6 OFF
37D1  F0 03              BEQ L00669
37D3  20 81 99           JSR L01503
37D6  4C 00 1D   L00669  JMP L00347
                 ;________________________________________
37D9  AD 15 D0   L00670  LDA $D015           ; SPRITE DISPLAY
37DC  09 10              ORA #$10            ; BIT 4 ON
37DE  8D 15 D0           STA $D015
37E1  A5 67              LDA $67
37E3  C9 88              CMP #$88
37E5  D0 08              BNE L00671
37E7  A9 00              LDA #$00
37E9  ED 09 D0           SBC $D009           ; SPRITE 4 Y POS
37EC  8D 0F D4           STA $D40F           ; FREQUENCY VOICE 3 - HI
37EF  EE 09 D0   L00671  INC $D009           ; SPRITE 4 Y POS
37F2  D0 09              BNE L00672
37F4  A9 00              LDA #$00
37F6  85 67              STA $67
37F8  85 55              STA $55
37FA  4C D9 1C           JMP L00344
37FD  4C E4 1C   L00672  JMP L00346
                 ;________________________________________
                 ;
                 ;   Charset start
                 ;
3800  00                 BYT $00
3801  00                 BYT $00
3802  00                 BYT $00
3803  00                 BYT $00
3804  07                 BYT $07
3805  02                 BYT $02
3806  7F                 BYT $7F
3807  00                 BYT $00
3808  00                 BYT $00
3809  00                 BYT $00
380A  00                 BYT $00
380B  FC                 BYT $FC
380C  FF                 BYT $FF
380D  FF                 BYT $FF
380E  FF                 BYT $FF
380F  7F                 BYT $7F
3810  01                 BYT $01
3811  03                 BYT $03
3812  00                 BYT $00
3813  00                 BYT $00
3814  80                 BYT $80
3815  F0                 BYT $F0
3816  FC                 BYT $FC
3817  FF                 BYT $FF
3818  FF                 BYT $FF
3819  FF                 BYT $FF
381A  FF                 BYT $FF
381B  7F                 BYT $7F
381C  1F                 BYT $1F
381D  0F                 BYT $0F
381E  03                 BYT $03
381F  01                 BYT $01
3820  00                 BYT $00
3821  C0                 BYT $C0
3822  E0                 BYT $E0
3823  F0                 BYT $F0
3824  F8                 BYT $F8
3825  FC                 BYT $FC
3826  FE                 BYT $FE
3827  FE                 BYT $FE
3828  00                 BYT $00
3829  3C                 BYT $3C
382A  1F                 BYT $1F
382B  0F                 BYT $0F
382C  07                 BYT $07
382D  03                 BYT $03
382E  20                 BYT $20
382F  01                 BYT $01
3830  00                 BYT $00
3831  00                 BYT $00
3832  80                 BYT $80
3833  F0                 BYT $F0
3834  FC                 BYT $FC
3835  FC                 BYT $FC
3836  FC                 BYT $FC
3837  FC                 BYT $FC
3838  00                 BYT $00
3839  00                 BYT $00
383A  00                 BYT $00
383B  00                 BYT $00
383C  00                 BYT $00
383D  00                 BYT $00
383E  0C                 BYT $0C
383F  0F                 BYT $0F
3840  00                 BYT $00
3841  00                 BYT $00
3842  00                 BYT $00
3843  01                 BYT $01
3844  07                 BYT $07
3845  1F                 BYT $1F
3846  7F                 BYT $7F
3847  F0                 BYT $F0
3848  00                 BYT $00
3849  0F                 BYT $0F
384A  20                 BYT $20
384B  FF                 BYT $FF
384C  FF                 BYT $FF
384D  F8                 BYT $F8
384E  00                 BYT $00
384F  00                 BYT $00
3850  00                 BYT $00
3851  80                 BYT $80
3852  FE                 BYT $FE
3853  FF                 BYT $FF
3854  FF                 BYT $FF
3855  01                 BYT $01
3856  00                 BYT $00
3857  3C                 BYT $3C
3858  03                 BYT $03
3859  00                 BYT $00
385A  00                 BYT $00
385B  F8                 BYT $F8
385C  FF                 BYT $FF
385D  FF                 BYT $FF
385E  07                 BYT $07
385F  00                 BYT $00
3860  FF                 BYT $FF
3861  7F                 BYT $7F
3862  0F                 BYT $0F
3863  03                 BYT $03
3864  80                 BYT $80
3865  F8                 BYT $F8
3866  FE                 BYT $FE
3867  7F                 BYT $7F
3868  C0                 BYT $C0
3869  F0                 BYT $F0
386A  F8                 BYT $F8
386B  FC                 BYT $FC
386C  FF                 BYT $FF
386D  3F                 BYT $3F
386E  0F                 BYT $0F
386F  83                 BYT $83
3870  7F                 BYT $7F
3871  3F                 BYT $3F
3872  1F                 BYT $1F
3873  0F                 BYT $0F
3874  07                 BYT $07
3875  83                 BYT $83
3876  C1                 BYT $C1
3877  E0                 BYT $E0
3878  01                 BYT $01
3879  80                 BYT $80
387A  80                 BYT $80
387B  C0                 BYT $C0
387C  E0                 BYT $E0
387D  F0                 BYT $F0
387E  F8                 BYT $F8
387F  F8                 BYT $F8
3880  FE                 BYT $FE
3881  FE                 BYT $FE
3882  FE                 BYT $FE
3883  FE                 BYT $FE
3884  7E                 BYT $7E
3885  7E                 BYT $7E
3886  3F                 BYT $3F
3887  3F                 BYT $3F
3888  0F                 BYT $0F
3889  0F                 BYT $0F
388A  07                 BYT $07
388B  07                 BYT $07
388C  07                 BYT $07
388D  07                 BYT $07
388E  07                 BYT $07
388F  07                 BYT $07
3890  E0                 BYT $E0
3891  F8                 BYT $F8
3892  FC                 BYT $FC
3893  FC                 BYT $FC
3894  FC                 BYT $FC
3895  FE                 BYT $FE
3896  FE                 BYT $FE
3897  FE                 BYT $FE
3898  01                 BYT $01
3899  00                 BYT $00
389A  00                 BYT $00
389B  00                 BYT $00
389C  07                 BYT $07
389D  1F                 BYT $1F
389E  7F                 BYT $7F
389F  FF                 BYT $FF
38A0  00                 BYT $00
38A1  03                 BYT $03
38A2  3F                 BYT $3F
38A3  FF                 BYT $FF
38A4  FF                 BYT $FF
38A5  FE                 BYT $FE
38A6  F0                 BYT $F0
38A7  C0                 BYT $C0
38A8  1F                 BYT $1F
38A9  FF                 BYT $FF
38AA  FF                 BYT $FF
38AB  FF                 BYT $FF
38AC  E0                 BYT $E0
38AD  00                 BYT $00
38AE  00                 BYT $00
38AF  03                 BYT $03
38B0  FF                 BYT $FF
38B1  FF                 BYT $FF
38B2  FF                 BYT $FF
38B3  00                 BYT $00
38B4  00                 BYT $00
38B5  00                 BYT $00
38B6  3F                 BYT $3F
38B7  FF                 BYT $FF
38B8  F0                 BYT $F0
38B9  FF                 BYT $FF
38BA  FF                 BYT $FF
38BB  3F                 BYT $3F
38BC  00                 BYT $00
38BD  00                 BYT $00
38BE  FF                 BYT $FF
38BF  FF                 BYT $FF
38C0  0F                 BYT $0F
38C1  C1                 BYT $C1
38C2  F8                 BYT $F8
38C3  FE                 BYT $FE
38C4  7F                 BYT $7F
38C5  03                 BYT $03
38C6  80                 BYT $80
38C7  FC                 BYT $FC
38C8  E8                 BYT $E8
38C9  F8                 BYT $F8
38CA  EC                 BYT $EC
38CB  1F                 BYT $1F
38CC  C7                 BYT $C7
38CD  F1                 BYT $F1
38CE  20                 BYT $20
38CF  1E                 BYT $1E
38D0  F0                 BYT $F0
38D1  F8                 BYT $F8
38D2  3C                 BYT $3C
38D3  1E                 BYT $1E
38D4  8F                 BYT $8F
38D5  C7                 BYT $C7
38D6  E3                 BYT $E3
38D7  71                 BYT $71
38D8  78                 BYT $78
38D9  7C                 BYT $7C
38DA  3C                 BYT $3C
38DB  1E                 BYT $1E
38DC  1E                 BYT $1E
38DD  8F                 BYT $8F
38DE  87                 BYT $87
38DF  C7                 BYT $C7
38E0  3F                 BYT $3F
38E1  1F                 BYT $1F
38E2  1F                 BYT $1F
38E3  1F                 BYT $1F
38E4  1F                 BYT $1F
38E5  0F                 BYT $0F
38E6  0F                 BYT $0F
38E7  8F                 BYT $8F
38E8  03                 BYT $03
38E9  03                 BYT $03
38EA  03                 BYT $03
38EB  83                 BYT $83
38EC  83                 BYT $83
38ED  83                 BYT $83
38EE  87                 BYT $87
38EF  87                 BYT $87
38F0  FE                 BYT $FE
38F1  FE                 BYT $FE
38F2  FC                 BYT $FC
38F3  FC                 BYT $FC
38F4  FC                 BYT $FC
38F5  FC                 BYT $FC
38F6  FC                 BYT $FC
38F7  F8                 BYT $F8
38F8  03                 BYT $03
38F9  03                 BYT $03
38FA  03                 BYT $03
38FB  07                 BYT $07
38FC  07                 BYT $07
38FD  07                 BYT $07
38FE  0F                 BYT $0F
38FF  0F                 BYT $0F
3900  00                 BYT $00
3901  00                 BYT $00
3902  00                 BYT $00
3903  00                 BYT $00
3904  00                 BYT $00
3905  00                 BYT $00
3906  00                 BYT $00
3907  00                 BYT $00
3908  00                 BYT $00
3909  80                 BYT $80
390A  C0                 BYT $C0
390B  E0                 BYT $E0
390C  F0                 BYT $F0
390D  F8                 BYT $F8
390E  F8                 BYT $F8
390F  FC                 BYT $FC
3910  01                 BYT $01
3911  01                 BYT $01
3912  03                 BYT $03
3913  07                 BYT $07
3914  07                 BYT $07
3915  0E                 BYT $0E
3916  0C                 BYT $0C
3917  10                 BYT $10
3918  FF                 BYT $FF
3919  FC                 BYT $FC
391A  F0                 BYT $F0
391B  C0                 BYT $C0
391C  80                 BYT $80
391D  00                 BYT $00
391E  03                 BYT $03
391F  07                 BYT $07
3920  00                 BYT $00
3921  00                 BYT $00
3922  03                 BYT $03
3923  0F                 BYT $0F
3924  3F                 BYT $3F
3925  FF                 BYT $FF
3926  FF                 BYT $FF
3927  FF                 BYT $FF
3928  1F                 BYT $1F
3929  FF                 BYT $FF
392A  FF                 BYT $FF
392B  FE                 BYT $FE
392C  F8                 BYT $F8
392D  F0                 BYT $F0
392E  C0                 BYT $C0
392F  00                 BYT $00
3930  FF                 BYT $FF
3931  FE                 BYT $FE
3932  E0                 BYT $E0
3933  00                 BYT $00
3934  01                 BYT $01
3935  07                 BYT $07
3936  1F                 BYT $1F
3937  7F                 BYT $7F
3938  F8                 BYT $F8
3939  00                 BYT $00
393A  01                 BYT $01
393B  1F                 BYT $1F
393C  FE                 BYT $FE
393D  F0                 BYT $F0
393E  80                 BYT $80
393F  07                 BYT $07
3940  0F                 BYT $0F
3941  00                 BYT $00
3942  E0                 BYT $E0
3943  FE                 BYT $FE
3944  01                 BYT $01
3945  00                 BYT $00
3946  78                 BYT $78
3947  FF                 BYT $FF
3948  87                 BYT $87
3949  F1                 BYT $F1
394A  18                 BYT $18
394B  0C                 BYT $0C
394C  C3                 BYT $C3
394D  70                 BYT $70
394E  08                 BYT $08
394F  04                 BYT $04
3950  39                 BYT $39
3951  98                 BYT $98
3952  CC                 BYT $CC
3953  66                 BYT $66
3954  32                 BYT $32
3955  93                 BYT $93
3956  49                 BYT $49
3957  24                 BYT $24
3958  C3                 BYT $C3
3959  E3                 BYT $E3
395A  E3                 BYT $E3
395B  71                 BYT $71
395C  31                 BYT $31
395D  31                 BYT $31
395E  31                 BYT $31
395F  99                 BYT $99
3960  8F                 BYT $8F
3961  87                 BYT $87
3962  87                 BYT $87
3963  C7                 BYT $C7
3964  C7                 BYT $C7
3965  C7                 BYT $C7
3966  C7                 BYT $C7
3967  C7                 BYT $C7
3968  87                 BYT $87
3969  87                 BYT $87
396A  87                 BYT $87
396B  87                 BYT $87
396C  8F                 BYT $8F
396D  0F                 BYT $0F
396E  20                 BYT $20
396F  0F                 BYT $0F
3970  F8                 BYT $F8
3971  F8                 BYT $F8
3972  F0                 BYT $F0
3973  F0                 BYT $F0
3974  F0                 BYT $F0
3975  E0                 BYT $E0
3976  E0                 BYT $E0
3977  C0                 BYT $C0
3978  0F                 BYT $0F
3979  1F                 BYT $1F
397A  1F                 BYT $1F
397B  1F                 BYT $1F
397C  3F                 BYT $3F
397D  3F                 BYT $3F
397E  7F                 BYT $7F
397F  7F                 BYT $7F
3980  F8                 BYT $F8
3981  F0                 BYT $F0
3982  F0                 BYT $F0
3983  E0                 BYT $E0
3984  E0                 BYT $E0
3985  C0                 BYT $C0
3986  C0                 BYT $C0
3987  80                 BYT $80
3988  00                 BYT $00
3989  00                 BYT $00
398A  00                 BYT $00
398B  00                 BYT $00
398C  01                 BYT $01
398D  03                 BYT $03
398E  07                 BYT $07
398F  0F                 BYT $0F
3990  0F                 BYT $0F
3991  3F                 BYT $3F
3992  7F                 BYT $7F
3993  FF                 BYT $FF
3994  FF                 BYT $FF
3995  FF                 BYT $FF
3996  FE                 BYT $FE
3997  FC                 BYT $FC
3998  FC                 BYT $FC
3999  F8                 BYT $F8
399A  F0                 BYT $F0
399B  C0                 BYT $C0
399C  80                 BYT $80
399D  00                 BYT $00
399E  01                 BYT $01
399F  03                 BYT $03
39A0  01                 BYT $01
39A1  03                 BYT $03
39A2  0F                 BYT $0F
39A3  1F                 BYT $1F
39A4  3F                 BYT $3F
39A5  7F                 BYT $7F
39A6  FE                 BYT $FE
39A7  FC                 BYT $FC
39A8  FC                 BYT $FC
39A9  F8                 BYT $F8
39AA  E0                 BYT $E0
39AB  C1                 BYT $C1
39AC  83                 BYT $83
39AD  07                 BYT $07
39AE  0F                 BYT $0F
39AF  1F                 BYT $1F
39B0  1F                 BYT $1F
39B1  7F                 BYT $7F
39B2  FE                 BYT $FE
39B3  F8                 BYT $F8
39B4  F0                 BYT $F0
39B5  C0                 BYT $C0
39B6  80                 BYT $80
39B7  81                 BYT $81
39B8  F0                 BYT $F0
39B9  80                 BYT $80
39BA  00                 BYT $00
39BB  03                 BYT $03
39BC  1E                 BYT $1E
39BD  38                 BYT $38
39BE  E0                 BYT $E0
39BF  C4                 BYT $C4
39C0  C0                 BYT $C0
39C1  00                 BYT $00
39C2  07                 BYT $07
39C3  1F                 BYT $1F
39C4  3F                 BYT $3F
39C5  7E                 BYT $7E
39C6  78                 BYT $78
39C7  F0                 BYT $F0
39C8  02                 BYT $02
39C9  00                 BYT $00
39CA  F0                 BYT $F0
39CB  F8                 BYT $F8
39CC  FC                 BYT $FC
39CD  3E                 BYT $3E
39CE  0F                 BYT $0F
39CF  0F                 BYT $0F
39D0  49                 BYT $49
39D1  49                 BYT $49
39D2  49                 BYT $49
39D3  89                 BYT $89
39D4  19                 BYT $19
39D5  11                 BYT $11
39D6  33                 BYT $33
39D7  23                 BYT $23
39D8  87                 BYT $87
39D9  8E                 BYT $8E
39DA  8E                 BYT $8E
39DB  8E                 BYT $8E
39DC  9C                 BYT $9C
39DD  1C                 BYT $1C
39DE  38                 BYT $38
39DF  30                 BYT $30
39E0  1F                 BYT $1F
39E1  1F                 BYT $1F
39E2  1F                 BYT $1F
39E3  3F                 BYT $3F
39E4  3F                 BYT $3F
39E5  7F                 BYT $7F
39E6  7E                 BYT $7E
39E7  FE                 BYT $FE
39E8  C0                 BYT $C0
39E9  C0                 BYT $C0
39EA  81                 BYT $81
39EB  81                 BYT $81
39EC  03                 BYT $03
39ED  07                 BYT $07
39EE  07                 BYT $07
39EF  0F                 BYT $0F
39F0  FF                 BYT $FF
39F1  FF                 BYT $FF
39F2  FE                 BYT $FE
39F3  FE                 BYT $FE
39F4  FC                 BYT $FC
39F5  FC                 BYT $FC
39F6  F8                 BYT $F8
39F7  F0                 BYT $F0
39F8  00                 BYT $00
39F9  00                 BYT $00
39FA  00                 BYT $00
39FB  01                 BYT $01
39FC  01                 BYT $01
39FD  03                 BYT $03
39FE  07                 BYT $07
39FF  07                 BYT $07
3A00  40                 BYT $40
3A01  C0                 BYT $C0
3A02  E0                 BYT $E0
3A03  E0                 BYT $E0
3A04  F0                 BYT $F0
3A05  F0                 BYT $F0
3A06  F0                 BYT $F0
3A07  F0                 BYT $F0
3A08  1F                 BYT $1F
3A09  7F                 BYT $7F
3A0A  FF                 BYT $FF
3A0B  FF                 BYT $FF
3A0C  FF                 BYT $FF
3A0D  FF                 BYT $FF
3A0E  20                 BYT $20
3A0F  7E                 BYT $7E
3A10  F8                 BYT $F8
3A11  F0                 BYT $F0
3A12  E0                 BYT $E0
3A13  C0                 BYT $C0
3A14  80                 BYT $80
3A15  00                 BYT $00
3A16  00                 BYT $00
3A17  01                 BYT $01
3A18  07                 BYT $07
3A19  0F                 BYT $0F
3A1A  1F                 BYT $1F
3A1B  3F                 BYT $3F
3A1C  3F                 BYT $3F
3A1D  7F                 BYT $7F
3A1E  FF                 BYT $FF
3A1F  FF                 BYT $FF
3A20  F8                 BYT $F8
3A21  F0                 BYT $F0
3A22  F0                 BYT $F0
3A23  E0                 BYT $E0
3A24  C1                 BYT $C1
3A25  81                 BYT $81
3A26  03                 BYT $03
3A27  03                 BYT $03
3A28  3F                 BYT $3F
3A29  3E                 BYT $3E
3A2A  7E                 BYT $7E
3A2B  FC                 BYT $FC
3A2C  FC                 BYT $FC
3A2D  F8                 BYT $F8
3A2E  F8                 BYT $F8
3A2F  F8                 BYT $F8
3A30  07                 BYT $07
3A31  0F                 BYT $0F
3A32  0E                 BYT $0E
3A33  1E                 BYT $1E
3A34  1C                 BYT $1C
3A35  3C                 BYT $3C
3A36  38                 BYT $38
3A37  78                 BYT $78
3A38  88                 BYT $88
3A39  11                 BYT $11
3A3A  31                 BYT $31
3A3B  20                 BYT $20
3A3C  64                 BYT $64
3A3D  64                 BYT $64
3A3E  64                 BYT $64
3A3F  C4                 BYT $C4
3A40  E0                 BYT $E0
3A41  E0                 BYT $E0
3A42  E0                 BYT $E0
3A43  E0                 BYT $E0
3A44  F0                 BYT $F0
3A45  78                 BYT $78
3A46  7E                 BYT $7E
3A47  3F                 BYT $3F
3A48  07                 BYT $07
3A49  00                 BYT $00
3A4A  00                 BYT $00
3A4B  07                 BYT $07
3A4C  0F                 BYT $0F
3A4D  0F                 BYT $0F
3A4E  3E                 BYT $3E
3A4F  FC                 BYT $FC
3A50  06                 BYT $06
3A51  0C                 BYT $0C
3A52  08                 BYT $08
3A53  11                 BYT $11
3A54  23                 BYT $23
3A55  0E                 BYT $0E
3A56  18                 BYT $18
3A57  70                 BYT $70
3A58  71                 BYT $71
3A59  61                 BYT $61
3A5A  C3                 BYT $C3
3A5B  87                 BYT $87
3A5C  0F                 BYT $0F
3A5D  1F                 BYT $1F
3A5E  3E                 BYT $3E
3A5F  FC                 BYT $FC
3A60  FC                 BYT $FC
3A61  F8                 BYT $F8
3A62  F0                 BYT $F0
3A63  E0                 BYT $E0
3A64  C1                 BYT $C1
3A65  83                 BYT $83
3A66  07                 BYT $07
3A67  1F                 BYT $1F
3A68  1F                 BYT $1F
3A69  3F                 BYT $3F
3A6A  7F                 BYT $7F
3A6B  FF                 BYT $FF
3A6C  FF                 BYT $FF
3A6D  FE                 BYT $FE
3A6E  FC                 BYT $FC
3A6F  F0                 BYT $F0
3A70  E0                 BYT $E0
3A71  E0                 BYT $E0
3A72  C0                 BYT $C0
3A73  80                 BYT $80
3A74  00                 BYT $00
3A75  01                 BYT $01
3A76  03                 BYT $03
3A77  07                 BYT $07
3A78  0F                 BYT $0F
3A79  02                 BYT $02
3A7A  3F                 BYT $3F
3A7B  7F                 BYT $7F
3A7C  FF                 BYT $FF
3A7D  FF                 BYT $FF
3A7E  FE                 BYT $FE
3A7F  FC                 BYT $FC
3A80  F0                 BYT $F0
3A81  E0                 BYT $E0
3A82  E0                 BYT $E0
3A83  C0                 BYT $C0
3A84  80                 BYT $80
3A85  00                 BYT $00
3A86  00                 BYT $00
3A87  00                 BYT $00
3A88  7C                 BYT $7C
3A89  7C                 BYT $7C
3A8A  78                 BYT $78
3A8B  30                 BYT $30
3A8C  30                 BYT $30
3A8D  10                 BYT $10
3A8E  00                 BYT $00
3A8F  00                 BYT $00
3A90  01                 BYT $01
3A91  03                 BYT $03
3A92  03                 BYT $03
3A93  07                 BYT $07
3A94  07                 BYT $07
3A95  0F                 BYT $0F
3A96  1F                 BYT $1F
3A97  1F                 BYT $1F
3A98  FE                 BYT $FE
3A99  FE                 BYT $FE
3A9A  FC                 BYT $FC
3A9B  FC                 BYT $FC
3A9C  F8                 BYT $F8
3A9D  F8                 BYT $F8
3A9E  F0                 BYT $F0
3A9F  F0                 BYT $F0
3AA0  07                 BYT $07
3AA1  0F                 BYT $0F
3AA2  0F                 BYT $0F
3AA3  0F                 BYT $0F
3AA4  1F                 BYT $1F
3AA5  1F                 BYT $1F
3AA6  1F                 BYT $1F
3AA7  3F                 BYT $3F
3AA8  F0                 BYT $F0
3AA9  F0                 BYT $F0
3AAA  F0                 BYT $F0
3AAB  E0                 BYT $E0
3AAC  E0                 BYT $E0
3AAD  C0                 BYT $C0
3AAE  20                 BYT $20
3AAF  C0                 BYT $C0
3AB0  78                 BYT $78
3AB1  F0                 BYT $F0
3AB2  F0                 BYT $F0
3AB3  F1                 BYT $F1
3AB4  F1                 BYT $F1
3AB5  F1                 BYT $F1
3AB6  F1                 BYT $F1
3AB7  E1                 BYT $E1
3AB8  CC                 BYT $CC
3AB9  CC                 BYT $CC
3ABA  CC                 BYT $CC
3ABB  C4                 BYT $C4
3ABC  E6                 BYT $E6
3ABD  E6                 BYT $E6
3ABE  E6                 BYT $E6
3ABF  E3                 BYT $E3
3AC0  9F                 BYT $9F
3AC1  87                 BYT $87
3AC2  80                 BYT $80
3AC3  88                 BYT $88
3AC4  48                 BYT $48
3AC5  44                 BYT $44
3AC6  24                 BYT $24
3AC7  23                 BYT $23
3AC8  F8                 BYT $F8
3AC9  F0                 BYT $F0
3ACA  01                 BYT $01
3ACB  00                 BYT $00
3ACC  84                 BYT $84
3ACD  43                 BYT $43
3ACE  30                 BYT $30
3ACF  1C                 BYT $1C
3AD0  03                 BYT $03
3AD1  0F                 BYT $0F
3AD2  FC                 BYT $FC
3AD3  00                 BYT $00
3AD4  00                 BYT $00
3AD5  87                 BYT $87
3AD6  FF                 BYT $FF
3AD7  3F                 BYT $3F
3AD8  F0                 BYT $F0
3AD9  C0                 BYT $C0
3ADA  03                 BYT $03
3ADB  0F                 BYT $0F
3ADC  7F                 BYT $7F
3ADD  FF                 BYT $FF
3ADE  FF                 BYT $FF
3ADF  F0                 BYT $F0
3AE0  3F                 BYT $3F
3AE1  FF                 BYT $FF
3AE2  FF                 BYT $FF
3AE3  FC                 BYT $FC
3AE4  F0                 BYT $F0
3AE5  C0                 BYT $C0
3AE6  00                 BYT $00
3AE7  01                 BYT $01
3AE8  E0                 BYT $E0
3AE9  80                 BYT $80
3AEA  00                 BYT $00
3AEB  01                 BYT $01
3AEC  03                 BYT $03
3AED  0F                 BYT $0F
3AEE  3F                 BYT $3F
3AEF  FF                 BYT $FF
3AF0  0F                 BYT $0F
3AF1  3F                 BYT $3F
3AF2  7F                 BYT $7F
3AF3  FF                 BYT $FF
3AF4  FF                 BYT $FF
3AF5  FC                 BYT $FC
3AF6  F0                 BYT $F0
3AF7  C0                 BYT $C0
3AF8  F8                 BYT $F8
3AF9  F0                 BYT $F0
3AFA  E0                 BYT $E0
3AFB  C0                 BYT $C0
3AFC  00                 BYT $00
3AFD  01                 BYT $01
3AFE  07                 BYT $07
3AFF  0F                 BYT $0F
3B00  00                 BYT $00
3B01  10                 BYT $10
3B02  20                 BYT $20
3B03  60                 BYT $60
3B04  C0                 BYT $C0
3B05  C0                 BYT $C0
3B06  80                 BYT $80
3B07  80                 BYT $80
3B08  3F                 BYT $3F
3B09  3F                 BYT $3F
3B0A  3F                 BYT $3F
3B0B  7F                 BYT $7F
3B0C  FF                 BYT $FF
3B0D  FF                 BYT $FF
3B0E  FF                 BYT $FF
3B0F  FF                 BYT $FF
3B10  E0                 BYT $E0
3B11  E0                 BYT $E0
3B12  E0                 BYT $E0
3B13  C0                 BYT $C0
3B14  C0                 BYT $C0
3B15  C0                 BYT $C0
3B16  C0                 BYT $C0
3B17  C0                 BYT $C0
3B18  3F                 BYT $3F
3B19  3F                 BYT $3F
3B1A  7F                 BYT $7F
3B1B  7F                 BYT $7F
3B1C  7F                 BYT $7F
3B1D  FF                 BYT $FF
3B1E  FF                 BYT $FF
3B1F  FF                 BYT $FF
3B20  C1                 BYT $C1
3B21  81                 BYT $81
3B22  81                 BYT $81
3B23  81                 BYT $81
3B24  83                 BYT $83
3B25  83                 BYT $83
3B26  83                 BYT $83
3B27  03                 BYT $03
3B28  E1                 BYT $E1
3B29  E0                 BYT $E0
3B2A  F0                 BYT $F0
3B2B  F0                 BYT $F0
3B2C  F0                 BYT $F0
3B2D  F0                 BYT $F0
3B2E  F0                 BYT $F0
3B2F  F8                 BYT $F8
3B30  E3                 BYT $E3
3B31  F3                 BYT $F3
3B32  F1                 BYT $F1
3B33  F1                 BYT $F1
3B34  78                 BYT $78
3B35  78                 BYT $78
3B36  7C                 BYT $7C
3B37  3C                 BYT $3C
3B38  31                 BYT $31
3B39  98                 BYT $98
3B3A  8C                 BYT $8C
3B3B  CE                 BYT $CE
3B3C  C7                 BYT $C7
3B3D  E3                 BYT $E3
3B3E  71                 BYT $71
3B3F  38                 BYT $38
3B40  02                 BYT $02
3B41  C3                 BYT $C3
3B42  60                 BYT $60
3B43  38                 BYT $38
3B44  0E                 BYT $0E
3B45  87                 BYT $87
3B46  C1                 BYT $C1
3B47  F0                 BYT $F0
3B48  00                 BYT $00
3B49  C0                 BYT $C0
3B4A  FC                 BYT $FC
3B4B  3F                 BYT $3F
3B4C  07                 BYT $07
3B4D  C0                 BYT $C0
3B4E  20                 BYT $20
3B4F  3F                 BYT $3F
3B50  00                 BYT $00
3B51  00                 BYT $00
3B52  1F                 BYT $1F
3B53  FF                 BYT $FF
3B54  FF                 BYT $FF
3B55  3E                 BYT $3E
3B56  00                 BYT $00
3B57  80                 BYT $80
3B58  0F                 BYT $0F
3B59  FF                 BYT $FF
3B5A  FF                 BYT $FF
3B5B  FF                 BYT $FF
3B5C  C0                 BYT $C0
3B5D  00                 BYT $00
3B5E  00                 BYT $00
3B5F  1F                 BYT $1F
3B60  FF                 BYT $FF
3B61  FC                 BYT $FC
3B62  F0                 BYT $F0
3B63  00                 BYT $00
3B64  00                 BYT $00
3B65  03                 BYT $03
3B66  3F                 BYT $3F
3B67  FF                 BYT $FF
3B68  00                 BYT $00
3B69  00                 BYT $00
3B6A  07                 BYT $07
3B6B  1F                 BYT $1F
3B6C  FF                 BYT $FF
3B6D  FF                 BYT $FF
3B6E  FE                 BYT $FE
3B6F  F0                 BYT $F0
3B70  3F                 BYT $3F
3B71  FF                 BYT $FF
3B72  FE                 BYT $FE
3B73  FC                 BYT $FC
3B74  F8                 BYT $F8
3B75  E0                 BYT $E0
3B76  00                 BYT $00
3B77  00                 BYT $00
3B78  7F                 BYT $7F
3B79  7F                 BYT $7F
3B7A  3F                 BYT $3F
3B7B  1F                 BYT $1F
3B7C  0F                 BYT $0F
3B7D  07                 BYT $07
3B7E  03                 BYT $03
3B7F  01                 BYT $01
3B80  81                 BYT $81
3B81  81                 BYT $81
3B82  81                 BYT $81
3B83  81                 BYT $81
3B84  01                 BYT $01
3B85  01                 BYT $01
3B86  00                 BYT $00
3B87  00                 BYT $00
3B88  FF                 BYT $FF
3B89  FF                 BYT $FF
3B8A  FF                 BYT $FF
3B8B  FF                 BYT $FF
3B8C  FF                 BYT $FF
3B8D  FF                 BYT $FF
3B8E  FF                 BYT $FF
3B8F  FF                 BYT $FF
3B90  03                 BYT $03
3B91  03                 BYT $03
3B92  03                 BYT $03
3B93  01                 BYT $01
3B94  01                 BYT $01
3B95  01                 BYT $01
3B96  00                 BYT $00
3B97  00                 BYT $00
3B98  F8                 BYT $F8
3B99  F8                 BYT $F8
3B9A  FC                 BYT $FC
3B9B  FC                 BYT $FC
3B9C  FC                 BYT $FC
3B9D  FE                 BYT $FE
3B9E  FE                 BYT $FE
3B9F  FE                 BYT $FE
3BA0  3E                 BYT $3E
3BA1  1E                 BYT $1E
3BA2  1F                 BYT $1F
3BA3  0F                 BYT $0F
3BA4  0F                 BYT $0F
3BA5  0F                 BYT $0F
3BA6  07                 BYT $07
3BA7  07                 BYT $07
3BA8  3C                 BYT $3C
3BA9  1E                 BYT $1E
3BAA  0F                 BYT $0F
3BAB  87                 BYT $87
3BAC  83                 BYT $83
3BAD  C1                 BYT $C1
3BAE  E0                 BYT $E0
3BAF  F0                 BYT $F0
3BB0  7C                 BYT $7C
3BB1  1F                 BYT $1F
3BB2  07                 BYT $07
3BB3  83                 BYT $83
3BB4  E0                 BYT $E0
3BB5  F0                 BYT $F0
3BB6  FC                 BYT $FC
3BB7  7E                 BYT $7E
3BB8  07                 BYT $07
3BB9  01                 BYT $01
3BBA  C0                 BYT $C0
3BBB  F8                 BYT $F8
3BBC  FF                 BYT $FF
3BBD  3F                 BYT $3F
3BBE  0F                 BYT $0F
3BBF  03                 BYT $03
3BC0  F8                 BYT $F8
3BC1  FF                 BYT $FF
3BC2  3F                 BYT $3F
3BC3  07                 BYT $07
3BC4  00                 BYT $00
3BC5  E0                 BYT $E0
3BC6  FF                 BYT $FF
3BC7  FF                 BYT $FF
3BC8  FF                 BYT $FF
3BC9  FF                 BYT $FF
3BCA  FF                 BYT $FF
3BCB  F8                 BYT $F8
3BCC  00                 BYT $00
3BCD  00                 BYT $00
3BCE  80                 BYT $80
3BCF  FF                 BYT $FF
3BD0  FF                 BYT $FF
3BD1  FC                 BYT $FC
3BD2  C0                 BYT $C0
3BD3  00                 BYT $00
3BD4  00                 BYT $00
3BD5  01                 BYT $01
3BD6  FF                 BYT $FF
3BD7  FF                 BYT $FF
3BD8  00                 BYT $00
3BD9  00                 BYT $00
3BDA  00                 BYT $00
3BDB  03                 BYT $03
3BDC  1E                 BYT $1E
3BDD  FC                 BYT $FC
3BDE  F8                 BYT $F8
3BDF  E0                 BYT $E0
3BE0  FF                 BYT $FF
3BE1  FF                 BYT $FF
3BE2  FF                 BYT $FF
3BE3  FF                 BYT $FF
3BE4  FF                 BYT $FF
3BE5  7F                 BYT $7F
3BE6  1F                 BYT $1F
3BE7  0F                 BYT $0F
3BE8  00                 BYT $00
3BE9  00                 BYT $00
3BEA  80                 BYT $80
3BEB  80                 BYT $80
3BEC  80                 BYT $80
3BED  80                 BYT $80
3BEE  20                 BYT $20
3BEF  C0                 BYT $C0
3BF0  FF                 BYT $FF
3BF1  FF                 BYT $FF
3BF2  7F                 BYT $7F
3BF3  7F                 BYT $7F
3BF4  7F                 BYT $7F
3BF5  7F                 BYT $7F
3BF6  3F                 BYT $3F
3BF7  3F                 BYT $3F
3BF8  04                 BYT $04
3BF9  04                 BYT $04
3BFA  04                 BYT $04
3BFB  04                 BYT $04
3BFC  04                 BYT $04
3BFD  04                 BYT $04
3BFE  04                 BYT $04
3BFF  04                 BYT $04
3C00  55                 BYT $55
3C01  55                 BYT $55
3C02  55                 BYT $55
3C03  55                 BYT $55
3C04  55                 BYT $55
3C05  55                 BYT $55
3C06  55                 BYT $55
3C07  55                 BYT $55
3C08  40                 BYT $40
3C09  50                 BYT $50
3C0A  50                 BYT $50
3C0B  14                 BYT $14
3C0C  14                 BYT $14
3C0D  05                 BYT $05
3C0E  05                 BYT $05
3C0F  01                 BYT $01
3C10  55                 BYT $55
3C11  55                 BYT $55
3C12  41                 BYT $41
3C13  41                 BYT $41
3C14  41                 BYT $41
3C15  41                 BYT $41
3C16  41                 BYT $41
3C17  41                 BYT $41
3C18  41                 BYT $41
3C19  41                 BYT $41
3C1A  41                 BYT $41
3C1B  41                 BYT $41
3C1C  41                 BYT $41
3C1D  41                 BYT $41
3C1E  41                 BYT $41
3C1F  41                 BYT $41
3C20  AA                 BYT $AA
3C21  82                 BYT $82
3C22  AA                 BYT $AA
3C23  AA                 BYT $AA
3C24  00                 BYT $00
3C25  00                 BYT $00
3C26  00                 BYT $00
3C27  00                 BYT $00
3C28  04                 BYT $04
3C29  04                 BYT $04
3C2A  04                 BYT $04
3C2B  04                 BYT $04
3C2C  55                 BYT $55
3C2D  55                 BYT $55
3C2E  41                 BYT $41
3C2F  41                 BYT $41
3C30  41                 BYT $41
3C31  41                 BYT $41
3C32  41                 BYT $41
3C33  41                 BYT $41
3C34  AA                 BYT $AA
3C35  82                 BYT $82
3C36  AA                 BYT $AA
3C37  AA                 BYT $AA
3C38  55                 BYT $55
3C39  00                 BYT $00
3C3A  55                 BYT $55
3C3B  00                 BYT $00
3C3C  55                 BYT $55
3C3D  00                 BYT $00
3C3E  55                 BYT $55
3C3F  00                 BYT $00
3C40  01                 BYT $01
3C41  00                 BYT $00
3C42  05                 BYT $05
3C43  00                 BYT $00
3C44  15                 BYT $15
3C45  00                 BYT $00
3C46  55                 BYT $55
3C47  00                 BYT $00
3C48  40                 BYT $40
3C49  00                 BYT $00
3C4A  50                 BYT $50
3C4B  00                 BYT $00
3C4C  54                 BYT $54
3C4D  00                 BYT $00
3C4E  55                 BYT $55
3C4F  00                 BYT $00
3C50  55                 BYT $55
3C51  55                 BYT $55
3C52  41                 BYT $41
3C53  41                 BYT $41
3C54  55                 BYT $55
3C55  55                 BYT $55
3C56  55                 BYT $55
3C57  55                 BYT $55
3C58  54                 BYT $54
3C59  55                 BYT $55
3C5A  54                 BYT $54
3C5B  50                 BYT $50
3C5C  40                 BYT $40
3C5D  41                 BYT $41
3C5E  45                 BYT $45
3C5F  55                 BYT $55
3C60  15                 BYT $15
3C61  55                 BYT $55
3C62  15                 BYT $15
3C63  05                 BYT $05
3C64  01                 BYT $01
3C65  41                 BYT $41
3C66  51                 BYT $51
3C67  55                 BYT $55
3C68  05                 BYT $05
3C69  05                 BYT $05
3C6A  15                 BYT $15
3C6B  15                 BYT $15
3C6C  55                 BYT $55
3C6D  55                 BYT $55
3C6E  55                 BYT $55
3C6F  55                 BYT $55
3C70  50                 BYT $50
3C71  50                 BYT $50
3C72  54                 BYT $54
3C73  54                 BYT $54
3C74  55                 BYT $55
3C75  55                 BYT $55
3C76  55                 BYT $55
3C77  55                 BYT $55
3C78  54                 BYT $54
3C79  54                 BYT $54
3C7A  54                 BYT $54
3C7B  54                 BYT $54
3C7C  54                 BYT $54
3C7D  54                 BYT $54
3C7E  54                 BYT $54
3C7F  54                 BYT $54
3C80  15                 BYT $15
3C81  15                 BYT $15
3C82  15                 BYT $15
3C83  15                 BYT $15
3C84  15                 BYT $15
3C85  15                 BYT $15
3C86  15                 BYT $15
3C87  15                 BYT $15
3C88  00                 BYT $00
3C89  00                 BYT $00
3C8A  00                 BYT $00
3C8B  00                 BYT $00
3C8C  55                 BYT $55
3C8D  55                 BYT $55
3C8E  55                 BYT $55
3C8F  55                 BYT $55
3C90  55                 BYT $55
3C91  55                 BYT $55
3C92  55                 BYT $55
3C93  55                 BYT $55
3C94  55                 BYT $55
3C95  55                 BYT $55
3C96  55                 BYT $55
3C97  00                 BYT $00
3C98  14                 BYT $14
3C99  14                 BYT $14
3C9A  14                 BYT $14
3C9B  14                 BYT $14
3C9C  14                 BYT $14
3C9D  14                 BYT $14
3C9E  14                 BYT $14
3C9F  14                 BYT $14
3CA0  15                 BYT $15
3CA1  15                 BYT $15
3CA2  15                 BYT $15
3CA3  15                 BYT $15
3CA4  05                 BYT $05
3CA5  05                 BYT $05
3CA6  05                 BYT $05
3CA7  05                 BYT $05
3CA8  55                 BYT $55
3CA9  00                 BYT $00
3CAA  55                 BYT $55
3CAB  11                 BYT $11
3CAC  55                 BYT $55
3CAD  44                 BYT $44
3CAE  55                 BYT $55
3CAF  00                 BYT $00
3CB0  54                 BYT $54
3CB1  54                 BYT $54
3CB2  54                 BYT $54
3CB3  54                 BYT $54
3CB4  50                 BYT $50
3CB5  50                 BYT $50
3CB6  50                 BYT $50
3CB7  50                 BYT $50
3CB8  05                 BYT $05
3CB9  05                 BYT $05
3CBA  05                 BYT $05
3CBB  05                 BYT $05
3CBC  05                 BYT $05
3CBD  05                 BYT $05
3CBE  05                 BYT $05
3CBF  05                 BYT $05
3CC0  50                 BYT $50
3CC1  50                 BYT $50
3CC2  50                 BYT $50
3CC3  50                 BYT $50
3CC4  50                 BYT $50
3CC5  50                 BYT $50
3CC6  50                 BYT $50
3CC7  50                 BYT $50
3CC8  05                 BYT $05
3CC9  05                 BYT $05
3CCA  05                 BYT $05
3CCB  05                 BYT $05
3CCC  01                 BYT $01
3CCD  01                 BYT $01
3CCE  01                 BYT $01
3CCF  01                 BYT $01
3CD0  50                 BYT $50
3CD1  50                 BYT $50
3CD2  50                 BYT $50
3CD3  50                 BYT $50
3CD4  40                 BYT $40
3CD5  40                 BYT $40
3CD6  40                 BYT $40
3CD7  40                 BYT $40
3CD8  55                 BYT $55
3CD9  00                 BYT $00
3CDA  15                 BYT $15
3CDB  00                 BYT $00
3CDC  05                 BYT $05
3CDD  00                 BYT $00
3CDE  01                 BYT $01
3CDF  00                 BYT $00
3CE0  55                 BYT $55
3CE1  00                 BYT $00
3CE2  54                 BYT $54
3CE3  00                 BYT $00
3CE4  50                 BYT $50
3CE5  00                 BYT $00
3CE6  40                 BYT $40
3CE7  00                 BYT $00
3CE8  82                 BYT $82
3CE9  AA                 BYT $AA
3CEA  2A                 BYT $2A
3CEB  AA                 BYT $AA
3CEC  8A                 BYT $8A
3CED  AA                 BYT $AA
3CEE  A2                 BYT $A2
3CEF  AA                 BYT $AA
3CF0  00                 BYT $00
3CF1  00                 BYT $00
3CF2  02                 BYT $02
3CF3  0A                 BYT $0A
3CF4  0A                 BYT $0A
3CF5  0A                 BYT $0A
3CF6  2A                 BYT $2A
3CF7  AA                 BYT $AA
3CF8  AA                 BYT $AA
3CF9  88                 BYT $88
3CFA  00                 BYT $00
3CFB  00                 BYT $00
3CFC  00                 BYT $00
3CFD  00                 BYT $00
3CFE  22                 BYT $22
3CFF  AA                 BYT $AA
3D00  AA                 BYT $AA
3D01  2A                 BYT $2A
3D02  2A                 BYT $2A
3D03  1A                 BYT $1A
3D04  0A                 BYT $0A
3D05  06                 BYT $06
3D06  02                 BYT $02
3D07  01                 BYT $01
3D08  AA                 BYT $AA
3D09  A2                 BYT $A2
3D0A  AA                 BYT $AA
3D0B  8A                 BYT $8A
3D0C  AA                 BYT $AA
3D0D  2A                 BYT $2A
3D0E  AA                 BYT $AA
3D0F  82                 BYT $82
3D10  AA                 BYT $AA
3D11  AA                 BYT $AA
3D12  A6                 BYT $A6
3D13  A2                 BYT $A2
3D14  A0                 BYT $A0
3D15  A0                 BYT $A0
3D16  80                 BYT $80
3D17  40                 BYT $40
3D18  55                 BYT $55
3D19  55                 BYT $55
3D1A  41                 BYT $41
3D1B  51                 BYT $51
3D1C  55                 BYT $55
3D1D  55                 BYT $55
3D1E  55                 BYT $55
3D1F  55                 BYT $55
3D20  40                 BYT $40
3D21  40                 BYT $40
3D22  50                 BYT $50
3D23  50                 BYT $50
3D24  54                 BYT $54
3D25  54                 BYT $54
3D26  55                 BYT $55
3D27  55                 BYT $55
3D28  55                 BYT $55
3D29  55                 BYT $55
3D2A  15                 BYT $15
3D2B  15                 BYT $15
3D2C  05                 BYT $05
3D2D  05                 BYT $05
3D2E  01                 BYT $01
3D2F  01                 BYT $01
3D30  01                 BYT $01
3D31  01                 BYT $01
3D32  05                 BYT $05
3D33  05                 BYT $05
3D34  15                 BYT $15
3D35  15                 BYT $15
3D36  55                 BYT $55
3D37  55                 BYT $55
3D38  55                 BYT $55
3D39  55                 BYT $55
3D3A  54                 BYT $54
3D3B  54                 BYT $54
3D3C  50                 BYT $50
3D3D  50                 BYT $50
3D3E  40                 BYT $40
3D3F  40                 BYT $40
3D40  AA                 BYT $AA
3D41  AA                 BYT $AA
3D42  AA                 BYT $AA
3D43  AA                 BYT $AA
3D44  AA                 BYT $AA
3D45  AA                 BYT $AA
3D46  AA                 BYT $AA
3D47  AA                 BYT $AA
3D48  00                 BYT $00
3D49  00                 BYT $00
3D4A  00                 BYT $00
3D4B  20                 BYT $20
3D4C  82                 BYT $82
3D4D  08                 BYT $08
3D4E  2A                 BYT $2A
3D4F  AA                 BYT $AA
3D50  08                 BYT $08
3D51  80                 BYT $80
3D52  A2                 BYT $A2
3D53  AA                 BYT $AA
3D54  AA                 BYT $AA
3D55  AA                 BYT $AA
3D56  AA                 BYT $AA
3D57  AA                 BYT $AA
3D58  80                 BYT $80
3D59  A0                 BYT $A0
3D5A  A8                 BYT $A8
3D5B  20                 BYT $20
3D5C  A8                 BYT $A8
3D5D  8A                 BYT $8A
3D5E  A8                 BYT $A8
3D5F  A2                 BYT $A2
3D60  08                 BYT $08
3D61  2A                 BYT $2A
3D62  A2                 BYT $A2
3D63  AA                 BYT $AA
3D64  20                 BYT $20
3D65  8A                 BYT $8A
3D66  20                 BYT $20
3D67  20                 BYT $20
3D68  20                 BYT $20
3D69  20                 BYT $20
3D6A  A2                 BYT $A2
3D6B  20                 BYT $20
3D6C  08                 BYT $08
3D6D  2A                 BYT $2A
3D6E  0A                 BYT $0A
3D6F  02                 BYT $02
3D70  00                 BYT $00
3D71  02                 BYT $02
3D72  02                 BYT $02
3D73  20                 BYT $20
3D74  82                 BYT $82
3D75  2A                 BYT $2A
3D76  A8                 BYT $A8
3D77  8A                 BYT $8A
3D78  AA                 BYT $AA
3D79  A8                 BYT $A8
3D7A  8A                 BYT $8A
3D7B  A8                 BYT $A8
3D7C  A0                 BYT $A0
3D7D  88                 BYT $88
3D7E  A0                 BYT $A0
3D7F  80                 BYT $80
3D80  00                 BYT $00
3D81  00                 BYT $00
3D82  00                 BYT $00
3D83  00                 BYT $00
3D84  00                 BYT $00
3D85  00                 BYT $00
3D86  00                 BYT $00
3D87  00                 BYT $00
3D88  55                 BYT $55
3D89  45                 BYT $45
3D8A  51                 BYT $51
3D8B  45                 BYT $45
3D8C  51                 BYT $51
3D8D  45                 BYT $45
3D8E  51                 BYT $51
3D8F  55                 BYT $55
3D90  05                 BYT $05
3D91  05                 BYT $05
3D92  55                 BYT $55
3D93  55                 BYT $55
3D94  05                 BYT $05
3D95  05                 BYT $05
3D96  15                 BYT $15
3D97  55                 BYT $55
3D98  45                 BYT $45
3D99  55                 BYT $55
3D9A  54                 BYT $54
3D9B  55                 BYT $55
3D9C  55                 BYT $55
3D9D  51                 BYT $51
3D9E  55                 BYT $55
3D9F  55                 BYT $55
3DA0  04                 BYT $04
3DA1  04                 BYT $04
3DA2  51                 BYT $51
3DA3  51                 BYT $51
3DA4  04                 BYT $04
3DA5  04                 BYT $04
3DA6  44                 BYT $44
3DA7  51                 BYT $51
3DA8  51                 BYT $51
3DA9  51                 BYT $51
3DAA  51                 BYT $51
3DAB  51                 BYT $51
3DAC  51                 BYT $51
3DAD  51                 BYT $51
3DAE  11                 BYT $11
3DAF  51                 BYT $51
3DB0  00                 BYT $00
3DB1  80                 BYT $80
3DB2  80                 BYT $80
3DB3  A0                 BYT $A0
3DB4  A0                 BYT $A0
3DB5  A8                 BYT $A8
3DB6  A8                 BYT $A8
3DB7  AA                 BYT $AA
3DB8  00                 BYT $00
3DB9  02                 BYT $02
3DBA  02                 BYT $02
3DBB  0A                 BYT $0A
3DBC  0A                 BYT $0A
3DBD  2A                 BYT $2A
3DBE  2A                 BYT $2A
3DBF  AA                 BYT $AA
3DC0  AA                 BYT $AA
3DC1  2A                 BYT $2A
3DC2  2A                 BYT $2A
3DC3  0A                 BYT $0A
3DC4  0A                 BYT $0A
3DC5  02                 BYT $02
3DC6  02                 BYT $02
3DC7  00                 BYT $00
3DC8  AA                 BYT $AA
3DC9  A8                 BYT $A8
3DCA  A8                 BYT $A8
3DCB  A0                 BYT $A0
3DCC  A0                 BYT $A0
3DCD  80                 BYT $80
3DCE  80                 BYT $80
3DCF  00                 BYT $00
3DD0  EF                 BYT $EF
3DD1  C7                 BYT $C7
3DD2  AB                 BYT $AB
3DD3  8F                 BYT $8F
3DD4  E3                 BYT $E3
3DD5  AB                 BYT $AB
3DD6  C7                 BYT $C7
3DD7  EF                 BYT $EF
3DD8  00                 BYT $00
3DD9  00                 BYT $00
3DDA  00                 BYT $00
3DDB  00                 BYT $00
3DDC  00                 BYT $00
3DDD  00                 BYT $00
3DDE  00                 BYT $00
3DDF  00                 BYT $00
3DE0  00                 BYT $00
3DE1  00                 BYT $00
3DE2  00                 BYT $00
3DE3  00                 BYT $00
3DE4  00                 BYT $00
3DE5  00                 BYT $00
3DE6  00                 BYT $00
3DE7  00                 BYT $00
3DE8  00                 BYT $00
3DE9  00                 BYT $00
3DEA  00                 BYT $00
3DEB  00                 BYT $00
3DEC  00                 BYT $00
3DED  00                 BYT $00
3DEE  00                 BYT $00
3DEF  00                 BYT $00
3DF0  00                 BYT $00
3DF1  00                 BYT $00
3DF2  00                 BYT $00
3DF3  00                 BYT $00
3DF4  00                 BYT $00
3DF5  00                 BYT $00
3DF6  00                 BYT $00
3DF7  00                 BYT $00
3DF8  00                 BYT $00
3DF9  00                 BYT $00
3DFA  00                 BYT $00
3DFB  00                 BYT $00
3DFC  00                 BYT $00
3DFD  00                 BYT $00
3DFE  00                 BYT $00
3DFF  00                 BYT $00
3E00  AA                 BYT $AA
3E01  AA                 BYT $AA
3E02  FF                 BYT $FF
3E03  AF                 BYT $AF
3E04  AB                 BYT $AB
3E05  AA                 BYT $AA
3E06  AA                 BYT $AA
3E07  AA                 BYT $AA
3E08  AF                 BYT $AF
3E09  AB                 BYT $AB
3E0A  FB                 BYT $FB
3E0B  BB                 BYT $BB
3E0C  BB                 BYT $BB
3E0D  EB                 BYT $EB
3E0E  AB                 BYT $AB
3E0F  AB                 BYT $AB
3E10  AA                 BYT $AA
3E11  AA                 BYT $AA
3E12  AF                 BYT $AF
3E13  AE                 BYT $AE
3E14  AE                 BYT $AE
3E15  AB                 BYT $AB
3E16  AA                 BYT $AA
3E17  AA                 BYT $AA
3E18  AA                 BYT $AA
3E19  AA                 BYT $AA
3E1A  FF                 BYT $FF
3E1B  FA                 BYT $FA
3E1C  EA                 BYT $EA
3E1D  AA                 BYT $AA
3E1E  AA                 BYT $AA
3E1F  AA                 BYT $AA
3E20  AA                 BYT $AA
3E21  AA                 BYT $AA
3E22  AA                 BYT $AA
3E23  EA                 BYT $EA
3E24  FA                 BYT $FA
3E25  FA                 BYT $FA
3E26  BE                 BYT $BE
3E27  AE                 BYT $AE
3E28  AB                 BYT $AB
3E29  AF                 BYT $AF
3E2A  AF                 BYT $AF
3E2B  AF                 BYT $AF
3E2C  AF                 BYT $AF
3E2D  BF                 BYT $BF
3E2E  BF                 BYT $BF
3E2F  AF                 BYT $AF
3E30  AA                 BYT $AA
3E31  AA                 BYT $AA
3E32  AA                 BYT $AA
3E33  AB                 BYT $AB
3E34  AE                 BYT $AE
3E35  AA                 BYT $AA
3E36  BA                 BYT $BA
3E37  AA                 BYT $AA
3E38  AA                 BYT $AA
3E39  AA                 BYT $AA
3E3A  AA                 BYT $AA
3E3B  AA                 BYT $AA
3E3C  AB                 BYT $AB
3E3D  AA                 BYT $AA
3E3E  EA                 BYT $EA
3E3F  EA                 BYT $EA
3E40  AA                 BYT $AA
3E41  AA                 BYT $AA
3E42  AA                 BYT $AA
3E43  FF                 BYT $FF
3E44  14                 BYT $14
3E45  05                 BYT $05
3E46  41                 BYT $41
3E47  50                 BYT $50
3E48  AA                 BYT $AA
3E49  AA                 BYT $AA
3E4A  AA                 BYT $AA
3E4B  FF                 BYT $FF
3E4C  14                 BYT $14
3E4D  51                 BYT $51
3E4E  55                 BYT $55
3E4F  15                 BYT $15
3E50  AA                 BYT $AA
3E51  AA                 BYT $AA
3E52  AA                 BYT $AA
3E53  AA                 BYT $AA
3E54  EA                 BYT $EA
3E55  AA                 BYT $AA
3E56  AA                 BYT $AA
3E57  AB                 BYT $AB
3E58  15                 BYT $15
3E59  05                 BYT $05
3E5A  05                 BYT $05
3E5B  01                 BYT $01
3E5C  00                 BYT $00
3E5D  00                 BYT $00
3E5E  00                 BYT $00
3E5F  00                 BYT $00
3E60  55                 BYT $55
3E61  55                 BYT $55
3E62  55                 BYT $55
3E63  45                 BYT $45
3E64  15                 BYT $15
3E65  55                 BYT $55
3E66  15                 BYT $15
3E67  05                 BYT $05
3E68  55                 BYT $55
3E69  55                 BYT $55
3E6A  55                 BYT $55
3E6B  55                 BYT $55
3E6C  55                 BYT $55
3E6D  55                 BYT $55
3E6E  54                 BYT $54
3E6F  50                 BYT $50
3E70  54                 BYT $54
3E71  50                 BYT $50
3E72  50                 BYT $50
3E73  40                 BYT $40
3E74  00                 BYT $00
3E75  00                 BYT $00
3E76  00                 BYT $00
3E77  00                 BYT $00
3E78  44                 BYT $44
3E79  44                 BYT $44
3E7A  44                 BYT $44
3E7B  44                 BYT $44
3E7C  44                 BYT $44
3E7D  44                 BYT $44
3E7E  44                 BYT $44
3E7F  44                 BYT $44
3E80  AA                 BYT $AA
3E81  FF                 BYT $FF
3E82  AA                 BYT $AA
3E83  FF                 BYT $FF
3E84  AA                 BYT $AA
3E85  FF                 BYT $FF
3E86  AA                 BYT $AA
3E87  FF                 BYT $FF
3E88  A0                 BYT $A0
3E89  80                 BYT $80
3E8A  00                 BYT $00
3E8B  00                 BYT $00
3E8C  00                 BYT $00
3E8D  00                 BYT $00
3E8E  40                 BYT $40
3E8F  50                 BYT $50
3E90  2A                 BYT $2A
3E91  0A                 BYT $0A
3E92  02                 BYT $02
3E93  00                 BYT $00
3E94  00                 BYT $00
3E95  00                 BYT $00
3E96  01                 BYT $01
3E97  05                 BYT $05
3E98  00                 BYT $00
3E99  00                 BYT $00
3E9A  00                 BYT $00
3E9B  00                 BYT $00
3E9C  00                 BYT $00
3E9D  00                 BYT $00
3E9E  00                 BYT $00
3E9F  00                 BYT $00
3EA0  00                 BYT $00
3EA1  00                 BYT $00
3EA2  00                 BYT $00
3EA3  00                 BYT $00
3EA4  00                 BYT $00
3EA5  00                 BYT $00
3EA6  00                 BYT $00
3EA7  00                 BYT $00
3EA8  00                 BYT $00
3EA9  00                 BYT $00
3EAA  00                 BYT $00
3EAB  00                 BYT $00
3EAC  00                 BYT $00
3EAD  00                 BYT $00
3EAE  00                 BYT $00
3EAF  00                 BYT $00
3EB0  00                 BYT $00
3EB1  00                 BYT $00
3EB2  00                 BYT $00
3EB3  00                 BYT $00
3EB4  00                 BYT $00
3EB5  00                 BYT $00
3EB6  00                 BYT $00
3EB7  00                 BYT $00
3EB8  00                 BYT $00
3EB9  00                 BYT $00
3EBA  00                 BYT $00
3EBB  00                 BYT $00
3EBC  00                 BYT $00
3EBD  00                 BYT $00
3EBE  00                 BYT $00
3EBF  00                 BYT $00
3EC0  00                 BYT $00
3EC1  00                 BYT $00
3EC2  00                 BYT $00
3EC3  00                 BYT $00
3EC4  00                 BYT $00
3EC5  00                 BYT $00
3EC6  00                 BYT $00
3EC7  00                 BYT $00
3EC8  00                 BYT $00
3EC9  00                 BYT $00
3ECA  00                 BYT $00
3ECB  00                 BYT $00
3ECC  00                 BYT $00
3ECD  00                 BYT $00
3ECE  00                 BYT $00
3ECF  00                 BYT $00
3ED0  00                 BYT $00
3ED1  00                 BYT $00
3ED2  00                 BYT $00
3ED3  00                 BYT $00
3ED4  00                 BYT $00
3ED5  00                 BYT $00
3ED6  00                 BYT $00
3ED7  00                 BYT $00
3ED8  00                 BYT $00
3ED9  00                 BYT $00
3EDA  00                 BYT $00
3EDB  00                 BYT $00
3EDC  00                 BYT $00
3EDD  00                 BYT $00
3EDE  00                 BYT $00
3EDF  00                 BYT $00
3EE0  00                 BYT $00
3EE1  00                 BYT $00
3EE2  00                 BYT $00
3EE3  00                 BYT $00
3EE4  00                 BYT $00
3EE5  00                 BYT $00
3EE6  00                 BYT $00
3EE7  00                 BYT $00
3EE8  00                 BYT $00
3EE9  00                 BYT $00
3EEA  00                 BYT $00
3EEB  00                 BYT $00
3EEC  00                 BYT $00
3EED  00                 BYT $00
3EEE  00                 BYT $00
3EEF  00                 BYT $00
3EF0  00                 BYT $00
3EF1  00                 BYT $00
3EF2  00                 BYT $00
3EF3  00                 BYT $00
3EF4  00                 BYT $00
3EF5  00                 BYT $00
3EF6  00                 BYT $00
3EF7  00                 BYT $00
3EF8  03                 BYT $03
3EF9  03                 BYT $03
3EFA  81                 BYT $81
3EFB  81                 BYT $81
3EFC  C0                 BYT $C0
3EFD  C0                 BYT $C0
3EFE  E0                 BYT $E0
3EFF  E0                 BYT $E0
3F00  F8                 BYT $F8
3F01  FC                 BYT $FC
3F02  FE                 BYT $FE
3F03  FF                 BYT $FF
3F04  FF                 BYT $FF
3F05  FF                 BYT $FF
3F06  7F                 BYT $7F
3F07  3F                 BYT $3F
3F08  3F                 BYT $3F
3F09  0F                 BYT $0F
3F0A  07                 BYT $07
3F0B  03                 BYT $03
3F0C  80                 BYT $80
3F0D  C0                 BYT $C0
3F0E  E0                 BYT $E0
3F0F  F0                 BYT $F0
3F10  80                 BYT $80
3F11  E0                 BYT $E0
3F12  F8                 BYT $F8
3F13  FF                 BYT $FF
3F14  FF                 BYT $FF
3F15  3F                 BYT $3F
3F16  0F                 BYT $0F
3F17  07                 BYT $07
3F18  7F                 BYT $7F
3F19  03                 BYT $03
3F1A  00                 BYT $00
3F1B  00                 BYT $00
3F1C  E0                 BYT $E0
3F1D  FC                 BYT $FC
3F1E  FF                 BYT $FF
3F1F  FF                 BYT $FF
3F20  FF                 BYT $FF
3F21  FF                 BYT $FF
3F22  03                 BYT $03
3F23  00                 BYT $00
3F24  00                 BYT $00
3F25  00                 BYT $00
3F26  FC                 BYT $FC
3F27  F8                 BYT $F8
3F28  FF                 BYT $FF
3F29  FF                 BYT $FF
3F2A  FC                 BYT $FC
3F2B  00                 BYT $00
3F2C  00                 BYT $00
3F2D  00                 BYT $00
3F2E  00                 BYT $00
3F2F  00                 BYT $00
3F30  C0                 BYT $C0
3F31  00                 BYT $00
3F32  00                 BYT $00
3F33  00                 BYT $00
3F34  00                 BYT $00
3F35  00                 BYT $00
3F36  00                 BYT $00
3F37  00                 BYT $00
3F38  03                 BYT $03
3F39  00                 BYT $00
3F3A  00                 BYT $00
3F3B  00                 BYT $00
3F3C  00                 BYT $00
3F3D  00                 BYT $00
3F3E  00                 BYT $00
3F3F  00                 BYT $00
3F40  E0                 BYT $E0
3F41  60                 BYT $60
3F42  00                 BYT $00
3F43  00                 BYT $00
3F44  00                 BYT $00
3F45  00                 BYT $00
3F46  00                 BYT $00
3F47  00                 BYT $00
3F48  3F                 BYT $3F
3F49  1F                 BYT $1F
3F4A  1F                 BYT $1F
3F4B  0F                 BYT $0F
3F4C  0F                 BYT $0F
3F4D  00                 BYT $00
3F4E  00                 BYT $00
3F4F  00                 BYT $00
3F50  F0                 BYT $F0
3F51  F8                 BYT $F8
3F52  F8                 BYT $F8
3F53  FC                 BYT $FC
3F54  FC                 BYT $FC
3F55  FE                 BYT $FE
3F56  0F                 BYT $0F
3F57  00                 BYT $00
3F58  1F                 BYT $1F
3F59  1F                 BYT $1F
3F5A  0F                 BYT $0F
3F5B  07                 BYT $07
3F5C  03                 BYT $03
3F5D  01                 BYT $01
3F5E  00                 BYT $00
3F5F  00                 BYT $00
3F60  F8                 BYT $F8
3F61  FE                 BYT $FE
3F62  FF                 BYT $FF
3F63  FF                 BYT $FF
3F64  FF                 BYT $FF
3F65  FC                 BYT $FC
3F66  C0                 BYT $C0
3F67  00                 BYT $00
3F68  01                 BYT $01
3F69  00                 BYT $00
3F6A  00                 BYT $00
3F6B  80                 BYT $80
3F6C  E0                 BYT $E0
3F6D  00                 BYT $00
3F6E  00                 BYT $00
3F6F  00                 BYT $00
3F70  FF                 BYT $FF
3F71  7F                 BYT $7F
3F72  18                 BYT $18
3F73  00                 BYT $00
3F74  00                 BYT $00
3F75  00                 BYT $00
3F76  00                 BYT $00
3F77  00                 BYT $00
3F78  F0                 BYT $F0
3F79  80                 BYT $80
3F7A  00                 BYT $00
3F7B  00                 BYT $00
3F7C  00                 BYT $00
3F7D  00                 BYT $00
3F7E  00                 BYT $00
3F7F  00                 BYT $00
3F80  28                 BYT $28
3F81  2A                 BYT $2A
3F82  A2                 BYT $A2
3F83  2A                 BYT $2A
3F84  00                 BYT $00
3F85  28                 BYT $28
3F86  A8                 BYT $A8
3F87  20                 BYT $20
3F88  08                 BYT $08
3F89  A2                 BYT $A2
3F8A  2A                 BYT $2A
3F8B  08                 BYT $08
3F8C  88                 BYT $88
3F8D  20                 BYT $20
3F8E  AA                 BYT $AA
3F8F  02                 BYT $02
3F90  08                 BYT $08
3F91  82                 BYT $82
3F92  82                 BYT $82
3F93  A2                 BYT $A2
3F94  08                 BYT $08
3F95  88                 BYT $88
3F96  00                 BYT $00
3F97  20                 BYT $20
3F98  00                 BYT $00
3F99  A8                 BYT $A8
3F9A  00                 BYT $00
3F9B  2A                 BYT $2A
3F9C  08                 BYT $08
3F9D  A8                 BYT $A8
3F9E  02                 BYT $02
3F9F  A8                 BYT $A8
3FA0  28                 BYT $28
3FA1  00                 BYT $00
3FA2  A2                 BYT $A2
3FA3  08                 BYT $08
3FA4  88                 BYT $88
3FA5  2A                 BYT $2A
3FA6  08                 BYT $08
3FA7  20                 BYT $20
3FA8  00                 BYT $00
3FA9  A2                 BYT $A2
3FAA  A2                 BYT $A2
3FAB  AA                 BYT $AA
3FAC  88                 BYT $88
3FAD  8A                 BYT $8A
3FAE  00                 BYT $00
3FAF  00                 BYT $00
3FB0  0A                 BYT $0A
3FB1  20                 BYT $20
3FB2  AA                 BYT $AA
3FB3  20                 BYT $20
3FB4  82                 BYT $82
3FB5  A8                 BYT $A8
3FB6  82                 BYT $82
3FB7  80                 BYT $80
3FB8  00                 BYT $00
3FB9  08                 BYT $08
3FBA  22                 BYT $22
3FBB  00                 BYT $00
3FBC  A2                 BYT $A2
3FBD  8A                 BYT $8A
3FBE  02                 BYT $02
3FBF  88                 BYT $88
3FC0  00                 BYT $00
3FC1  00                 BYT $00
3FC2  00                 BYT $00
3FC3  00                 BYT $00
3FC4  AA                 BYT $AA
3FC5  A8                 BYT $A8
3FC6  82                 BYT $82
3FC7  AA                 BYT $AA
3FC8  08                 BYT $08
3FC9  2A                 BYT $2A
3FCA  08                 BYT $08
3FCB  2A                 BYT $2A
3FCC  A8                 BYT $A8
3FCD  88                 BYT $88
3FCE  20                 BYT $20
3FCF  20                 BYT $20
3FD0  08                 BYT $08
3FD1  08                 BYT $08
3FD2  2A                 BYT $2A
3FD3  00                 BYT $00
3FD4  88                 BYT $88
3FD5  00                 BYT $00
3FD6  A0                 BYT $A0
3FD7  80                 BYT $80
3FD8  00                 BYT $00
3FD9  00                 BYT $00
3FDA  A2                 BYT $A2
3FDB  AA                 BYT $AA
3FDC  A8                 BYT $A8
3FDD  00                 BYT $00
3FDE  00                 BYT $00
3FDF  00                 BYT $00
3FE0  00                 BYT $00
3FE1  00                 BYT $00
3FE2  AA                 BYT $AA
3FE3  AA                 BYT $AA
3FE4  AA                 BYT $AA
3FE5  A2                 BYT $A2
3FE6  00                 BYT $00
3FE7  00                 BYT $00
3FE8  08                 BYT $08
3FE9  2A                 BYT $2A
3FEA  02                 BYT $02
3FEB  82                 BYT $82
3FEC  82                 BYT $82
3FED  2A                 BYT $2A
3FEE  00                 BYT $00
3FEF  2A                 BYT $2A
3FF0  82                 BYT $82
3FF1  08                 BYT $08
3FF2  A2                 BYT $A2
3FF3  00                 BYT $00
3FF4  82                 BYT $82
3FF5  82                 BYT $82
3FF6  A2                 BYT $A2
3FF7  00                 BYT $00
3FF8  00                 BYT $00
3FF9  00                 BYT $00
3FFA  AA                 BYT $AA
3FFB  2A                 BYT $2A
3FFC  00                 BYT $00
3FFD  AA                 BYT $AA
3FFE  2A                 BYT $2A
3FFF  00                 BYT $00
                 ;
                 ;   Charset end
                 ;
                 ;________________________________________
                 ;
                 ;   Map start
                 ;
4000                     BYT $20 $20 $20 $20 $20 $20 $20 $20 $20 $20 $20 $20 $20 $20 $20 $20 $20 $20 $20 $20 $20 $20 $20 $20 $20 $20 $20 $20 $20 $20 $20 $20 $20 $20 $20 $20 $20 $20 $20 $20 $20 $20 $20 $20 $20 $20 $20 $20 $20 $20 $20 $20 $20 $20 $20 $20 $20 $20 $20 $20 $20 $20 $20 $20 $20 $20 $20 $20 $20 $20 $20 $20 $20 $20 $20 $20 $20 $20 $20 $20 $20 $20 $20 $20 $20 $20 $20 $20 $20 $43 $11 $56 $14 $2C $6A $34 $32 $54 $20 $20 $20 $20 $20 $20 $20 $20 $20 $20 $20 $20 $20 $20 $20 $20 $20 $20 $20 $20 $20 $20 $20 $20 $20 $20 $20 $20 $20 $20 $20 $20 $20 $20 $20 $20 $20 $20 $20 $20 $20 $20 $20 $20 $20 $20 $20 $20 $20 $20 $20 $20 $20 $7B $1B $49 $14 $0A $00 $58 $78 $6E
40A0                     BYT $20 $20 $20 $20 $20 $20 $20 $20 $20 $20 $20 $20 $20 $20 $20 $20 $20 $20 $20 $20 $20 $20 $20 $20 $20 $20 $20 $20 $20 $20 $20 $20 $20 $20 $20 $20 $20 $20 $20 $20 $20 $20 $20 $20 $20 $20 $20 $20 $20 $20 $20 $20 $20 $20 $20 $20 $20 $20 $20 $20 $20 $20 $20 $20 $20 $20 $20 $20 $20 $20 $20 $20 $20 $20 $20 $20 $20 $91 $91 $91 $91 $20 $20 $20 $20 $20 $20 $20 $28 $4B $1D $07 $3F $56 $22 $45 $71 $23 $20 $20 $20 $20 $20 $20 $20 $20 $20 $20 $20 $20 $20 $20 $20 $20 $20 $20 $20 $20 $20 $20 $20 $20 $20 $20 $20 $20 $20 $20 $20 $20 $20 $20 $20 $20 $20 $20 $20 $20 $20 $20 $20 $20 $20 $20 $20 $20 $20 $20 $20 $20 $20 $20 $7A $44 $3A $14 $09 $28 $49 $23
4140                     BYT $20 $20 $20 $20 $20 $20 $20 $20 $20 $20 $20 $20 $20 $20 $20 $20 $20 $20 $20 $20 $20 $20 $20 $20 $20 $20 $20 $20 $20 $20 $20 $20 $20 $20 $20 $20 $20 $20 $20 $20 $20 $20 $20 $20 $20 $20 $20 $20 $20 $20 $20 $20 $20 $20 $20 $20 $20 $20 $20 $20 $20 $20 $20 $20 $20 $20 $20 $20 $20 $20 $20 $20 $20 $20 $20 $20 $20 $85 $85 $85 $85 $91 $91 $91 $91 $91 $20 $20 $20 $16 $17 $18 $19 $39 $12 $14 $30 $31 $32 $20 $20 $20 $20 $20 $20 $20 $20 $20 $20 $20 $20 $20 $20 $20 $20 $20 $20 $20 $20 $20 $20 $20 $20 $20 $20 $20 $20 $20 $20 $20 $20 $20 $20 $20 $20 $20 $20 $20 $20 $20 $20 $20 $20 $20 $20 $20 $20 $20 $20 $20 $20 $39 $2D $07 $7D $48 $11 $6B $61 $57
41E0                     BYT $20 $20 $20 $20 $20 $20 $20 $20 $20 $20 $20 $20 $20 $20 $20 $20 $20 $20 $20 $20 $20 $20 $20 $20 $20 $20 $20 $20 $20 $20 $20 $20 $20 $20 $20 $20 $20 $20 $20 $20 $20 $20 $20 $20 $20 $20 $20 $20 $20 $20 $20 $20 $20 $20 $20 $20 $20 $20 $20 $20 $20 $20 $20 $20 $20 $20 $20 $20 $20 $20 $20 $20 $20 $20 $20 $20 $20 $20 $7F $20 $20 $81 $97 $81 $81 $80 $20 $20 $30 $31 $32 $34 $40 $25 $41 $42 $43 $44 $45 $20 $20 $20 $20 $20 $20 $20 $20 $20 $20 $20 $20 $20 $20 $20 $20 $20 $20 $20 $20 $20 $20 $20 $20 $20 $20 $20 $20 $20 $20 $20 $20 $20 $20 $20 $20 $20 $20 $20 $20 $20 $20 $20 $20 $20 $20 $20 $20 $60 $56 $4C $42 $6F $3A $5B $52 $7F $4A $40 $36 $0E
4280                     BYT $20 $20 $20 $20 $20 $20 $20 $20 $20 $20 $20 $20 $20 $20 $20 $20 $20 $20 $20 $20 $20 $20 $20 $20 $20 $20 $20 $20 $20 $20 $20 $20 $20 $20 $20 $20 $20 $20 $20 $20 $20 $20 $20 $20 $20 $20 $20 $20 $20 $20 $20 $20 $20 $20 $20 $20 $20 $20 $20 $20 $20 $20 $20 $20 $20 $20 $20 $20 $20 $20 $20 $20 $20 $20 $20 $20 $20 $20 $7F $20 $20 $20 $80 $20 $81 $80 $20 $20 $37 $38 $39 $3A $3B $3C $3D $3E $3F $40 $20 $20 $20 $20 $20 $20 $20 $20 $20 $20 $20 $20 $20 $20 $20 $20 $20 $20 $20 $20 $20 $20 $20 $20 $20 $20 $20 $20 $20 $20 $20 $20 $97 $20 $20 $20 $20 $20 $20 $20 $20 $20 $20 $20 $20 $20 $20 $20 $20 $20 $28 $02 $21 $16 $0C $66 $30 $7A $70 $11 $3F $5E
4320                     BYT $20 $20 $20 $20 $20 $20 $20 $20 $20 $20 $20 $20 $20 $20 $20 $20 $20 $20 $20 $20 $20 $20 $20 $20 $20 $20 $20 $20 $20 $20 $20 $20 $20 $20 $20 $20 $20 $20 $20 $20 $20 $20 $20 $20 $20 $20 $20 $20 $20 $20 $20 $20 $20 $20 $20 $20 $20 $20 $20 $20 $20 $20 $20 $20 $20 $20 $20 $20 $20 $20 $20 $20 $20 $20 $20 $20 $20 $85 $85 $85 $20 $20 $97 $81 $20 $80 $20 $20 $50 $51 $52 $53 $54 $55 $56 $57 $58 $59 $60 $51 $62 $20 $20 $20 $20 $20 $20 $20 $20 $20 $8D $8E $20 $8E $20 $20 $20 $20 $20 $20 $20 $20 $20 $20 $20 $20 $20 $20 $20 $20 $91 $80 $20 $20 $20 $20 $20 $20 $20 $20 $20 $20 $20 $20 $20 $20 $20 $20 $41 $61 $55 $76 $50 $70 $64 $5A $34 $7F $48 $3E
43C0                     BYT $20 $20 $20 $20 $20 $20 $20 $20 $20 $20 $20 $20 $20 $20 $20 $20 $20 $20 $20 $20 $20 $20 $20 $20 $20 $20 $20 $20 $20 $20 $20 $20 $20 $20 $20 $20 $20 $20 $20 $20 $20 $20 $20 $20 $20 $20 $20 $20 $20 $20 $20 $20 $20 $20 $20 $20 $20 $20 $B2 $B4 $20 $20 $20 $20 $20 $20 $20 $20 $20 $20 $20 $20 $20 $20 $20 $20 $20 $83 $83 $83 $20 $20 $97 $20 $81 $80 $20 $77 $6B $11 $12 $13 $14 $15 $16 $67 $20 $20 $20 $20 $20 $20 $20 $20 $20 $20 $20 $20 $20 $20 $8F $92 $92 $9A $20 $88 $87 $87 $89 $20 $20 $20 $20 $20 $20 $20 $20 $20 $20 $20 $20 $93 $20 $20 $20 $20 $20 $20 $20 $20 $20 $20 $20 $20 $20 $20 $20 $20 $20 $31 $0B $01 $22 $40 $6F $10 $06 $4F $7E $74
4460                     BYT $6A $5E $20 $20 $4E $6D $20 $67 $20 $20 $20 $20 $41 $0B $55 $2F $25 $1A $20 $20 $20 $20 $20 $20 $18 $20 $20 $20 $20 $20 $20 $20 $0B $56 $20 $20 $20 $20 $20 $20 $20 $20 $20 $20 $20 $20 $20 $20 $20 $20 $20 $20 $20 $20 $20 $20 $37 $38 $B3 $B5 $20 $20 $20 $20 $20 $20 $20 $20 $01 $20 $20 $20 $20 $20 $20 $20 $20 $86 $86 $86 $20 $20 $80 $20 $20 $80 $37 $55 $4B $41 $1B $20 $20 $25 $2A $73 $20 $20 $20 $20 $20 $20 $20 $20 $20 $20 $20 $20 $20 $20 $90 $80 $80 $8F $20 $87 $8A $8A $87 $20 $20 $20 $20 $20 $20 $20 $20 $20 $88 $95 $89 $8E $20 $20 $20 $20 $20 $20 $20 $20 $20 $20 $20 $20 $20 $20 $20 $20 $20 $20 $6C $62 $65 $5A $50 $46 $74 $3E $34 $55
4500                     BYT $75 $3F $35 $2B $04 $23 $19 $0F $2F $07 $7D $1E $3E $6B $0C $02 $4D $7A $70 $66 $5C $5E $54 $4A $6B $6D $20 $20 $20 $20 $47 $3D $33 $27 $2B $20 $20 $20 $3A $32 $20 $20 $20 $20 $20 $20 $20 $20 $20 $20 $20 $20 $20 $20 $20 $20 $64 $65 $66 $52 $48 $13 $5C $61 $57 $22 $6B $45 $3B $31 $4F $29 $20 $20 $20 $20 $20 $20 $20 $20 $20 $08 $7C $1C $76 $6C $0B $00 $05 $7B $1A $0F $69 $5F $29 $73 $4D $43 $20 $20 $20 $20 $20 $20 $20 $20 $20 $20 $20 $20 $94 $95 $95 $96 $20 $87 $16 $8C $22 $20 $20 $20 $20 $20 $20 $20 $20 $88 $95 $8D $95 $95 $89 $20 $20 $20 $20 $20 $20 $20 $20 $20 $20 $20 $20 $20 $20 $20 $20 $20 $24 $19 $38 $2E $08 $28 $1C $12 $6C $37
45A0                     BYT $00 $76 $17 $46 $64 $05 $7B $55 $73 $69 $5F $39 $02 $4D $43 $48 $11 $5C $52 $2C $20 $40 $36 $10 $2F $24 $1A $3B $3E $08 $29 $1F $4D $17 $0D $03 $5C $7B $71 $67 $6B $20 $20 $20 $20 $20 $20 $20 $20 $20 $20 $20 $20 $20 $20 $20 $56 $57 $3B $31 $27 $54 $1F $15 $0B $63 $03 $24 $1A $72 $12 $08 $20 $20 $20 $20 $20 $20 $20 $20 $20 $3B $69 $5F $55 $4A $4D $43 $39 $59 $31 $27 $48 $68 $40 $36 $1E $69 $16 $20 $20 $20 $20 $20 $20 $20 $20 $20 $20 $20 $97 $87 $87 $98 $20 $48 $3E $5F $20 $20 $20 $20 $20 $A4 $31 $27 $71 $95 $34 $95 $20 $53 $28 $95 $89 $2E $08 $7E $20 $20 $6C $62 $20 $20 $20 $20 $20 $20 $20 $55 $4B $69 $43 $39 $5A $78 $6E $48 $3E $07
4640                     BYT $52 $2C $22 $16 $36 $10 $31 $25 $1A $1F $15 $34 $29 $03 $79 $43 $0D $67 $5D $52 $71 $12 $6C $61 $00 $76 $50 $70 $64 $5A $34 $20 $48 $3E $43 $0E $57 $4D $27 $1D $3B $31 $0B $01 $20 $20 $20 $20 $20 $20 $20 $20 $20 $20 $20 $58 $77 $6C $0D $67 $06 $7B $71 $4B $15 $5F $55 $2F $24 $43 $39 $5A $20 $20 $20 $20 $20 $20 $20 $20 $20 $1A $10 $31 $60 $7E $1F $15 $6F $0D $03 $79 $53 $1C $67 $5D $62 $2B $20 $20 $20 $20 $20 $20 $20 $20 $20 $20 $20 $20 $99 $87 $87 $9A $20 $27 $1D $76 $15 $20 $20 $20 $A5 $A3 $10 $30 $08 $7E $74 $3F $6C $62 $58 $4E $50 $71 $67 $5D $5F $55 $4B $20 $20 $20 $20 $20 $20 $20 $20 $20 $28 $2C $22 $18 $37 $10 $06 $7C $46 $74
46E0                     BYT $15 $0B $55 $03 $79 $6F $64 $67 $5D $53 $73 $4B $6C $62 $02 $76 $50 $46 $11 $5A $34 $2A $20 $3E $18 $39 $2F $4D $27 $1D $13 $5C $7D $73 $69 $5D $61 $02 $78 $6C $0C $66 $5C $7B $70 $20 $20 $20 $20 $20 $20 $20 $20 $20 $33 $28 $47 $21 $17 $37 $2B $05 $26 $46 $0F $30 $0A $55 $1E $14 $6E $64 $20 $20 $20 $20 $20 $20 $20 $20 $20 $6B $45 $3B $2F $4F $29 $4A $3E $33 $38 $2E $4D $42 $38 $12 $5C $20 $20 $20 $20 $20 $20 $20 $20 $20 $20 $20 $20 $20 $20 $80 $80 $20 $02 $5C $27 $70 $66 $5C $36 $54 $4A $40 $45 $63 $2E $4F $29 $72 $3D $33 $0D $01 $21 $17 $71 $10 $05 $26 $00 $20 $20 $20 $20 $20 $20 $20 $20 $20 $5C $52 $73 $4C $6B $61 $57 $5B $4F $45
4780                     BYT $3B $6A $33 $29 $4A $79 $42 $3A $30 $26 $28 $1E $14 $0A $37 $02 $23 $1A $47 $12 $08 $7E $56 $76 $6C $62 $65 $5A $50 $71 $74 $69 $5F $55 $1F $4D $43 $39 $2E $31 $27 $48 $3D $15 $36 $2C $20 $20 $20 $20 $20 $20 $20 $74 $6A $6C $0D $03 $79 $17 $71 $67 $5D $26 $55 $4B $6C $35 $64 $5A $50 $44 $48 $20 $20 $20 $20 $20 $20 $20 $20 $31 $27 $71 $1F $15 $0B $00 $1F $79 $6F $0F $03 $20 $20 $20 $20 $20 $20 $20 $20 $20 $20 $20 $20 $20 $20 $20 $20 $20 $20 $90 $78 $43 $1D $13 $07 $27 $2C $22 $16 $36 $10 $06 $25 $1A $74 $6A $26 $70 $4A $6B $35 $20 $59 $4F $44 $63 $59 $33 $53 $47 $20 $20 $20 $20 $20 $20 $20 $3B $31 $0B $01 $1F $15 $1A $11 $2F $25 $20
4820                     BYT $75 $3E $09 $20 $59 $4D $6D $63 $68 $5C $7C $72 $4C $6B $60 $56 $30 $7A $44 $3A $3F $09 $28 $49 $23 $18 $37 $2D $07 $27 $1B $11 $07 $36 $20 $20 $16 $45 $0E $04 $7A $54 $72 $68 $5E $63 $01 $20 $20 $20 $20 $20 $20 $2B $1F $3F $35 $56 $2E $23 $44 $3A $3D $32 $28 $1E $4C $16 $0C $02 $5B $7A $1B $11 $6A $20 $20 $20 $20 $20 $20 $59 $24 $51 $47 $68 $33 $60 $56 $4C $42 $44 $20 $20 $20 $20 $20 $20 $20 $20 $20 $20 $20 $20 $20 $20 $20 $20 $20 $20 $88 $2B $04 $7A $70 $3A $68 $5E $54 $49 $4C $42 $63 $58 $5B $51 $47 $67 $3F $35 $2B $76 $3F $19 $3A $05 $23 $28 $1E $14 $32 $0C $20 $20 $20 $20 $20 $20 $50 $20 $75 $6B $5F $63 $59 $4F $6E $63 $3D $5E
48C0                     BYT $7D $47 $4C $42 $0C $56 $30 $26 $1B $3A $14 $0A $2A $1E $23 $19 $39 $2D $07 $7D $48 $11 $07 $61 $57 $75 $16 $72 $68 $06 $7C $56 $4C $15 $60 $3A $5B $25 $45 $4A $40 $34 $54 $2E $24 $43 $38 $12 $20 $20 $20 $20 $20 $20 $2B $21 $7B $70 $0F $05 $5F $20 $73 $69 $60 $00 $74 $6A $44 $0F $58 $4E $28 $1E $3C $20 $20 $20 $20 $20 $20 $11 $5A $25 $1B $75 $69 $09 $20 $04 $78 $18 $20 $20 $20 $20 $20 $20 $20 $20 $20 $20 $20 $20 $20 $20 $20 $20 $20 $40 $44 $38 $2E $4F $54 $1D $3E $34 $63 $2C $22 $18 $72 $10 $06 $7C $01 $1F $15 $0B $01 $2E $79 $6F $65 $3D $5D $53 $74 $4C $41 $20 $20 $20 $20 $20 $20 $20 $34 $2A $20 $15 $18 $39 $2F $24 $27 $1D $13 $33
4960                     BYT $0B $01 $77 $42 $6F $10 $06 $51 $7E $74 $6A $60 $62 $58 $4E $6F $0D $3C $5D $53 $1C $4B $41 $37 $2B $2F $25 $1B $3A $13 $34 $2A $49 $22 $18 $0E $58 $06 $7C $72 $67 $6A $60 $01 $76 $15 $6F $65 $20 $20 $20 $20 $20 $20 $37 $58 $23 $6C $46 $3C $32 $50 $2A $20 $16 $5F $0E $2F $25 $6E $39 $13 $09 $7D $1D $20 $20 $20 $20 $20 $20 $20 $10 $6A $60 $2A $74 $4E $44 $39 $58 $32 $20 $20 $20 $20 $20 $20 $20 $20 $20 $20 $20 $25 $20 $75 $13 $34 $0E $04 $22 $18 $72 $68 $31 $7C $56 $77 $40 $0B $01 $5B $4F $6F $65 $3F $5E $53 $49 $23 $6D $37 $58 $32 $7C $46 $3C $16 $0B $2A $20 $20 $20 $20 $20 $20 $20 $20 $20 $09 $38 $01 $77 $6D $47 $65 $5B $7C $56 $74
4A00                     BYT $5C $52 $2C $75 $40 $36 $10 $04 $24 $45 $20 $14 $34 $2A $20 $23 $18 $0E $04 $32 $7C $72 $13 $41 $0B $01 $77 $50 $6F $65 $5B $5F $53 $49 $6A $6E $37 $58 $4E $19 $46 $3C $32 $28 $2A $20 $16 $37 $20 $20 $20 $20 $20 $13 $09 $20 $57 $77 $6D $0E $66 $06 $7C $72 $11 $20 $20 $20 $20 $20 $44 $65 $2F $32 $53 $20 $20 $20 $20 $20 $20 $20 $1B $11 $5C $09 $2A $20 $6B $34 $0E $20 $20 $20 $20 $20 $20 $20 $20 $20 $20 $20 $65 $5B $51 $45 $49 $3F $35 $54 $2D $4E $44 $63 $58 $32 $28 $72 $3C $16 $0C $01 $20 $25 $1B $10 $2F $09 $20 $1F $13 $6D $63 $2E $77 $51 $72 $3D $06 $60 $56 $20 $20 $20 $20 $20 $20 $20 $20 $3F $08 $53 $2D $23 $17 $37 $11 $07 $26 $1B
4AA0                     BYT $75 $16 $35 $2A $04 $7A $44 $0E $04 $5E $53 $72 $68 $6D $62 $01 $77 $51 $71 $65 $5B $35 $00 $49 $3F $44 $0F $2D $4E $28 $1E $3C $32 $28 $02 $4B $16 $0C $11 $5A $25 $1B $75 $69 $09 $20 $59 $20 $20 $20 $20 $20 $20 $20 $4C $16 $60 $56 $4C $25 $44 $3A $30 $34 $20 $20 $20 $20 $20 $20 $23 $52 $1B $11 $07 $20 $20 $20 $20 $20 $20 $20 $7A $54 $1D $68 $5E $20 $2C $4C $6D $20 $20 $20 $20 $20 $20 $20 $20 $20 $20 $15 $36 $2C $5A $24 $1A $10 $69 $08 $7E $74 $14 $6C $62 $03 $23 $7B $71 $67 $32 $5F $55 $4B $20 $20 $20 $5A $50 $20 $20 $20 $20 $20 $20 $20 $20 $20 $10 $06 $27 $1B $20 $20 $20 $20 $20 $20 $20 $39 $67 $5D $7E $48 $4B $6C $62 $57 $5A $50
4B40                     BYT $46 $66 $5A $34 $2A $75 $3E $43 $39 $20 $20 $20 $1D $13 $31 $0B $01 $22 $40 $1A $10 $06 $4F $7E $74 $6A $5E $7E $58 $79 $6D $62 $67 $5D $7C $71 $4B $41 $0B $55 $2F $25 $1A $39 $3E $34 $20 $20 $20 $20 $20 $20 $20 $20 $20 $10 $06 $0B $56 $1F $20 $20 $20 $20 $20 $20 $20 $20 $20 $20 $20 $20 $20 $20 $20 $20 $20 $20 $20 $20 $20 $20 $2F $4E $43 $39 $13 $5D $27 $1D $77 $6C $20 $20 $20 $20 $20 $20 $20 $0A $7E $74 $4E $19 $62 $58 $79 $28 $46 $67 $5D $37 $55 $4B $41 $1B $64 $2F $25 $2A $73 $3E $34 $20 $20 $20 $20 $20 $20 $20 $20 $20 $20 $20 $20 $20 $20 $20 $20 $65 $3E $20 $20 $20 $20 $20 $20 $20 $20 $50 $46 $3C $6B $34 $2A $20 $16 $18 $39 $2F
4BE0                     BYT $25 $27 $1D $13 $09 $36 $01 $77 $20 $20 $20 $20 $20 $20 $20 $20 $20 $63 $58 $4E $44 $0E $3C $5D $53 $1D $4B $41 $37 $2C $2F $25 $0D $2D $05 $7B $1C $3C $14 $0A $00 $20 $20 $20 $64 $20 $20 $20 $20 $20 $20 $20 $20 $20 $20 $20 $3B $31 $25 $20 $20 $20 $20 $20 $20 $20 $20 $20 $20 $20 $20 $20 $20 $20 $20 $20 $20 $20 $20 $20 $20 $20 $20 $73 $4D $6E $0E $57 $5C $52 $1D $66 $40 $A3 $A4 $20 $20 $20 $20 $59 $4F $29 $1F $68 $33 $0D $03 $77 $17 $71 $12 $06 $7B $00 $76 $15 $0A $64 $5A $24 $6E $48 $3E $20 $20 $20 $20 $20 $20 $20 $20 $20 $20 $20 $20 $20 $20 $20 $20 $6F $20 $20 $20 $20 $20 $20 $20 $20 $20 $20 $17 $71 $3A $05 $20 $20 $49 $69 $5F $39
4C80                     BYT $58 $4D $6E $48 $67 $5C $52 $20 $20 $20 $20 $20 $20 $20 $20 $20 $20 $20 $29 $1F $23 $17 $0D $03 $32 $7B $71 $12 $41 $0A $02 $78 $52 $70 $66 $A3 $A4 $20 $20 $6B $20 $20 $20 $20 $20 $20 $20 $20 $20 $20 $20 $20 $20 $20 $20 $20 $20 $4B $20 $20 $20 $20 $20 $20 $20 $20 $20 $20 $20 $20 $20 $20 $20 $20 $20 $20 $20 $20 $20 $20 $20 $20 $43 $39 $2F $25 $52 $1D $13 $34 $61 $2C $22 $A5 $20 $20 $20 $20 $20 $20 $20 $20 $20 $58 $79 $6F $39 $67 $5D $53 $48 $4B $41 $37 $57 $2F $50 $46 $66 $5A $34 $2A $75 $20 $20 $20 $20 $20 $20 $20 $20 $20 $20 $20 $20 $20 $20 $20 $20 $20 $20 $20 $20 $20 $20 $20 $20 $20 $20 $20 $20 $20 $38 $20 $20 $20 $20 $21 $17 $0C
4D20                     BYT $2B $05 $7B $1B $0F $69 $20 $20 $20 $20 $20 $20 $20 $20 $20 $20 $20 $20 $62 $59 $77 $6D $47 $3D $06 $51 $2B $21 $20 $20 $20 $20 $20 $20 $20 $A5 $20 $20 $20 $20 $20 $20 $20 $20 $20 $20 $20 $20 $20 $20 $20 $20 $20 $20 $20 $20 $20 $20 $20 $20 $20 $20 $20 $20 $20 $3A $30 $26 $2B $49 $3F $35 $0F $20 $20 $20 $20 $20 $20 $20 $20 $20 $20 $0C $66 $05 $7A $20 $20 $14 $5E $54 $4A $20 $20 $20 $20 $20 $20 $20 $20 $20 $20 $20 $20 $50 $19 $0F $30 $5F $28 $1E $14 $0A $0C $02 $78 $6E $1B $66 $07 $7D $20 $20 $20 $20 $20 $20 $20 $20 $20 $20 $20 $20 $20 $20 $20 $20 $20 $20 $20 $20 $20 $20 $20 $20 $20 $20 $20 $20 $20 $20 $20 $20 $20 $20 $20 $20 $4D $4F
4DC0                     BYT $70 $66 $5C $7A $54 $4A $20 $20 $20 $20 $20 $20 $20 $20 $20 $20 $20 $20 $20 $36 $0F $20 $20 $20 $20 $20 $20 $20 $20 $20 $20 $20 $20 $20 $20 $20 $20 $20 $20 $20 $20 $20 $20 $20 $20 $20 $20 $20 $20 $20 $20 $20 $20 $20 $20 $20 $20 $20 $20 $20 $20 $20 $20 $20 $6E $0E $68 $5E $7D $72 $4C $42 $0C $56 $5B $51 $20 $20 $20 $20 $20 $20 $3F $19 $39 $2D $20 $20 $20 $20 $20 $20 $20 $20 $20 $20 $20 $20 $20 $20 $20 $20 $20 $20 $20 $20 $20 $20 $3D $31 $51 $47 $4C $40 $60 $56 $30 $4F $44 $3A $14 $20 $20 $20 $20 $20 $20 $20 $20 $20 $20 $20 $20 $20 $20 $20 $20 $20 $20 $20 $20 $20 $20 $20 $20 $20 $20 $20 $20 $20 $20 $20 $20 $20 $20 $20 $20 $20 $05 $25
4E60                     BYT $1B $3C $14 $09 $2A $20 $23 $20 $20 $20 $20 $20 $20 $20 $20 $20 $20 $20 $20 $20 $20 $20 $20 $20 $20 $20 $20 $20 $20 $20 $20 $20 $20 $20 $20 $20 $20 $20 $20 $20 $20 $20 $20 $20 $20 $20 $20 $20 $20 $20 $20 $20 $20 $20 $20 $20 $20 $20 $20 $20 $20 $20 $20 $A6 $A3 $28 $49 $3E $41 $37 $2D $4D $25 $1B $11 $5C $20 $20 $20 $20 $20 $20 $04 $7A $18 $72 $20 $20 $20 $20 $20 $20 $20 $20 $20 $20 $20 $20 $20 $20 $20 $20 $20 $20 $20 $20 $20 $20 $20 $3C $16 $0C $01 $20 $7A $1B $10 $04 $09 $20 $20 $20 $20 $20 $20 $20 $20 $20 $20 $20 $7C $56 $4C $6A $20 $20 $20 $20 $20 $20 $20 $20 $20 $20 $20 $20 $20 $20 $20 $20 $20 $20 $20 $20 $20 $20 $20 $44 $0E $04
4F00                     BYT $50 $45 $64 $5A $34 $54 $48 $69 $20 $20 $20 $20 $20 $20 $20 $20 $20 $20 $20 $20 $20 $20 $20 $20 $20 $20 $20 $20 $20 $20 $20 $20 $20 $20 $20 $20 $20 $20 $20 $20 $20 $20 $20 $20 $20 $20 $20 $20 $20 $20 $20 $20 $20 $20 $20 $20 $20 $20 $20 $20 $20 $20 $20 $20 $A7 $7A $54 $72 $68 $5E $63 $01 $77 $6D $63 $20 $20 $20 $20 $20 $20 $20 $20 $20 $20 $20 $20 $20 $20 $20 $20 $20 $20 $20 $20 $20 $20 $20 $20 $20 $20 $20 $20 $20 $20 $20 $20 $20 $20 $72 $68 $33 $60 $56 $4C $42 $44 $20 $20 $20 $20 $20 $20 $20 $20 $20 $20 $20 $20 $11 $07 $7D $1C $75 $20 $20 $20 $20 $20 $20 $20 $20 $20 $20 $20 $20 $20 $20 $20 $20 $20 $20 $20 $20 $20 $20 $76 $3F $19 $3A
4FA0                     BYT $05 $4E $28 $1E $14 $32 $0C $02 $78 $20 $20 $20 $20 $20 $20 $20 $20 $20 $20 $20 $20 $20 $20 $20 $20 $20 $20 $20 $20 $20 $20 $20 $20 $20 $20 $20 $20 $20 $20 $20 $20 $20 $20 $20 $20 $20 $20 $20 $20 $20 $20 $20 $20 $20 $20 $20 $20 $20 $20 $20 $20 $20 $20 $20 $20 $20 $31 $51 $47 $21 $40 $35 $2B $30 $4F $20 $20 $20 $20 $20 $20 $20 $20 $20 $20 $20 $20 $20 $20 $20 $20 $20 $20 $20 $20 $20 $20 $20 $20 $20 $20 $20 $20 $20 $20 $20 $20 $20 $20 $18 $72 $66 $20 $27 $01 $75 $15 $0B $01 $20 $20 $20 $20 $20 $20 $20 $20 $20 $6C $62 $58 $31 $50 $46 $3C $B0 $20 $20 $20 $20 $20 $20 $20 $20 $20 $20 $20 $20 $20 $20 $20 $20 $20 $20 $20 $7C $29 $74 $6A $60
5040                     BYT $38 $58 $4E $6F $47 $67 $5D $53 $72 $4B $20 $20 $20 $20 $20 $20 $20 $20 $20 $20 $20 $20 $20 $20 $20 $20 $20 $20 $20 $20 $20 $20 $20 $20 $20 $20 $20 $20 $20 $20 $20 $20 $20 $20 $20 $20 $20 $20 $20 $20 $20 $20 $20 $20 $20 $20 $20 $20 $20 $20 $20 $20 $20 $20 $20 $20 $01 $06 $7C $71 $10 $6A $60 $00 $74 $20 $20 $20 $20 $20 $20 $20 $20 $20 $20 $20 $20 $20 $20 $20 $20 $20 $20 $20 $20 $20 $20 $20 $78 $18 $20 $20 $20 $20 $20 $20 $20 $20 $20 $5B $25 $6F $65 $3F $34 $53 $49 $4E $20 $20 $20 $20 $20 $20 $20 $20 $61 $2A $20 $25 $70 $0E $2F $09 $20 $1D $13 $20 $20 $20 $20 $20 $20 $20 $20 $20 $20 $20 $20 $20 $20 $20 $20 $20 $49 $68 $5D $53 $2D $77
50E0                     BYT $41 $37 $11 $06 $25 $20 $20 $20 $20 $20 $20 $20 $20 $20 $20 $20 $20 $20 $20 $20 $20 $20 $20 $20 $20 $20 $20 $20 $20 $20 $20 $20 $20 $20 $20 $20 $20 $20 $20 $20 $20 $20 $20 $20 $20 $20 $20 $20 $20 $20 $20 $20 $20 $20 $20 $20 $20 $20 $20 $20 $20 $20 $20 $20 $20 $20 $20 $2C $22 $24 $1A $3B $31 $33 $29 $1F $20 $20 $20 $20 $20 $20 $20 $20 $20 $20 $20 $20 $20 $20 $20 $20 $20 $1A $48 $3E $5F $29 $57 $4D $43 $38 $20 $20 $20 $20 $20 $20 $20 $20 $1F $24 $1A $65 $2E $08 $7E $20 $20 $20 $20 $20 $20 $20 $20 $67 $30 $5F $55 $4B $3F $5F $39 $5A $4E $43 $48 $3E $20 $20 $20 $20 $20 $20 $20 $20 $20 $20 $20 $20 $20 $20 $20 $79 $19 $0D $03 $5D $28 $71
5180                     BYT $12 $6C $37 $00 $20 $20 $20 $20 $20 $20 $20 $20 $20 $20 $20 $20 $20 $20 $20 $20 $20 $20 $20 $20 $20 $20 $20 $20 $20 $20 $74 $3E $08 $A6 $20 $20 $20 $20 $20 $20 $20 $20 $20 $20 $20 $20 $20 $20 $20 $20 $20 $20 $20 $20 $20 $20 $20 $20 $20 $20 $20 $20 $20 $20 $20 $20 $20 $72 $66 $06 $7C $56 $75 $6A $60 $20 $20 $20 $20 $20 $20 $20 $20 $20 $20 $20 $20 $20 $20 $20 $20 $20 $40 $34 $2A $20 $4F $18 $0E $04 $7A $7C $1D $13 $20 $20 $20 $20 $20 $20 $20 $5B $7C $29 $74 $6A $20 $20 $20 $20 $20 $20 $20 $32 $53 $72 $20 $41 $29 $73 $21 $17 $0D $20 $20 $20 $71 $11 $20 $20 $20 $20 $20 $20 $20 $20 $20 $20 $20 $20 $20 $20 $20 $20 $6D $47 $3D $33 $7C $2B
5220                     BYT $21 $17 $0B $20 $20 $20 $20 $20 $20 $20 $20 $20 $20 $20 $20 $20 $20 $20 $20 $20 $20 $20 $20 $20 $20 $20 $20 $20 $20 $54 $74 $68 $42 $A3 $A7 $4C $26 $20 $20 $20 $20 $20 $20 $20 $20 $20 $20 $20 $20 $20 $20 $20 $20 $20 $20 $20 $20 $20 $20 $20 $20 $20 $20 $20 $20 $20 $20 $19 $38 $59 $33 $28 $47 $3D $20 $20 $20 $20 $20 $20 $20 $20 $20 $20 $20 $20 $20 $20 $20 $20 $20 $73 $11 $07 $7D $57 $20 $6B $61 $3B $2F $20 $20 $20 $20 $20 $20 $20 $20 $20 $20 $12 $5C $26 $1C $76 $6B $20 $20 $20 $20 $20 $20 $05 $09 $7D $73 $69 $18 $61 $57 $78 $20 $20 $20 $20 $20 $20 $20 $20 $20 $20 $20 $20 $20 $20 $20 $20 $20 $20 $20 $20 $20 $20 $05 $7B $1C $1F $14 $0A
52C0                     BYT $00 $2E $78 $20 $20 $20 $20 $20 $20 $20 $20 $20 $20 $20 $20 $20 $20 $20 $20 $20 $20 $20 $20 $20 $20 $20 $20 $1C $12 $08 $35 $00 $76 $17 $44 $0F $05 $7B $20 $20 $20 $20 $20 $20 $20 $20 $88 $87 $89 $20 $20 $20 $20 $20 $20 $20 $20 $20 $20 $20 $20 $20 $20 $20 $20 $20 $4A $13 $6D $63 $59 $77 $51 $72 $68 $20 $20 $20 $20 $20 $20 $20 $20 $20 $28 $49 $3F $33 $53 $2D $23 $42 $37 $11 $07 $51 $1B $20 $16 $20 $20 $20 $20 $20 $20 $20 $20 $20 $20 $20 $20 $20 $01 $5B $51 $1C $20 $20 $20 $20 $20 $20 $20 $3A $58 $4E $28 $1E $67 $32 $0C $20 $20 $20 $20 $20 $20 $20 $20 $20 $20 $20 $20 $20 $20 $20 $20 $20 $20 $20 $20 $20 $20 $60 $56 $30 $50 $44 $3A $3F
5360                     BYT $5F $28 $49 $20 $20 $20 $20 $20 $20 $20 $20 $20 $20 $20 $20 $20 $20 $20 $20 $20 $20 $20 $20 $20 $63 $57 $4C $6D $47 $66 $5B $51 $47 $75 $3F $35 $2B $04 $23 $44 $3A $20 $20 $20 $20 $20 $16 $0C $02 $20 $20 $20 $20 $A4 $09 $20 $20 $20 $20 $20 $20 $20 $20 $20 $20 $5E $0B $56 $4C $42 $1A $3A $30 $26 $29 $1E $20 $20 $20 $20 $20 $20 $20 $20 $07 $7D $72 $75 $6B $0C $01 $04 $7A $70 $10 $68 $5E $54 $20 $20 $20 $20 $20 $20 $20 $20 $20 $20 $20 $20 $20 $20 $20 $0F $20 $20 $20 $20 $20 $20 $20 $20 $20 $20 $70 $66 $07 $26 $20 $75 $6B $35 $20 $20 $20 $20 $20 $20 $20 $20 $20 $20 $20 $20 $20 $20 $20 $20 $20 $20 $20 $20 $1E $23 $19 $0F $2D $07 $7D $73
5400                     BYT $2E $79 $53 $20 $20 $20 $20 $20 $20 $20 $20 $20 $20 $20 $20 $20 $20 $20 $20 $20 $20 $20 $20 $13 $08 $27 $1D $77 $17 $0B $01 $06 $26 $1A $10 $6A $35 $7E $74 $4E $44 $62 $20 $20 $20 $71 $67 $41 $37 $00 $20 $20 $A5 $A3 $2F $50 $2A $1E $20 $20 $20 $20 $20 $20 $20 $3C $06 $7C $01 $4B $15 $0B $65 $5A $79 $20 $20 $20 $20 $20 $20 $20 $20 $20 $58 $07 $50 $46 $3C $16 $34 $2A $20 $25 $43 $39 $2F $09 $20 $20 $20 $20 $20 $20 $20 $20 $20 $20 $20 $20 $20 $20 $20 $20 $20 $20 $20 $20 $20 $20 $20 $20 $20 $4B $41 $37 $3B $2F $25 $20 $20 $20 $20 $20 $20 $20 $20 $20 $20 $20 $20 $20 $20 $20 $20 $20 $20 $20 $20 $20 $5B $33 $53 $49 $3F $5E $37 $58 $4E $6D
54A0                     BYT $46 $3C $32 $20 $20 $20 $20 $20 $20 $20 $25 $1A $1D $13 $09 $29 $20 $20 $20 $20 $20 $20 $20 $20 $20 $20 $20 $20 $74 $4E $44 $3A $03 $32 $53 $49 $12 $41 $37 $2D $21 $25 $1B $11 $30 $09 $95 $95 $3F $34 $0E $04 $4E $18 $72 $68 $5D $7C $56 $20 $20 $20 $20 $20 $20 $6F $49 $3F $0A $20 $20 $20 $19 $37 $58 $20 $20 $20 $20 $20 $20 $20 $20 $20 $1B $64 $2F $09 $20 $73 $13 $6D $63 $02 $77 $51 $64 $03 $4D $20 $20 $20 $20 $20 $20 $20 $20 $20 $20 $20 $20 $20 $20 $20 $20 $20 $20 $20 $20 $20 $20 $20 $7C $72 $13 $6D $0B $01 $20 $20 $20 $20 $20 $20 $20 $20 $20 $20 $20 $20 $20 $20 $20 $20 $20 $20 $20 $20 $20 $20 $20 $20 $20 $1B $74 $13 $09 $20 $03 $77
5540                     BYT $6D $0E $12 $20 $20 $20 $20 $20 $20 $56 $30 $4E $44 $65 $3F $5D $53 $20 $20 $20 $20 $20 $20 $20 $20 $20 $20 $20 $20 $20 $16 $19 $0E $04 $7A $28 $95 $95 $95 $37 $56 $77 $6D $62 $65 $5B $51 $71 $49 $3F $35 $00 $2D $4E $44 $0F $3C $32 $28 $1E $20 $20 $20 $20 $20 $25 $1B $20 $20 $20 $20 $20 $20 $6D $63 $20 $20 $20 $20 $20 $20 $20 $20 $4C $16 $44 $3A $30 $25 $28 $49 $3F $34 $53 $2D $23 $43 $37 $20 $20 $20 $20 $20 $20 $20 $20 $20 $20 $20 $20 $20 $20 $20 $20 $20 $20 $20 $20 $20 $20 $47 $3B $5B $35 $2B $4A $3F $44 $3A $20 $20 $20 $20 $20 $20 $20 $20 $20 $20 $20 $20 $20 $20 $20 $20 $20 $20 $20 $20 $20 $20 $20 $20 $20 $20 $20 $4C $42 $60 $56
55E0                     BYT $30 $26 $6F $3A $20 $20 $20 $20 $23 $19 $0D $2D $23 $7D $1C $11 $07 $20 $20 $20 $20 $20 $20 $20 $20 $20 $20 $20 $20 $20 $58 $4C $5F $39 $59 $95 $95 $95 $95 $95 $95 $95 $95 $15 $36 $2C $06 $24 $1A $10 $6A $33 $7E $74 $79 $42 $62 $03 $5D $51 $20 $20 $20 $20 $20 $20 $20 $20 $20 $20 $20 $20 $20 $3E $34 $0D $20 $20 $20 $20 $20 $20 $20 $2B $1F $15 $0B $56 $03 $79 $6F $65 $67 $5D $20 $20 $20 $20 $20 $20 $20 $20 $20 $20 $20 $20 $20 $20 $20 $20 $20 $20 $20 $20 $20 $20 $20 $20 $20 $20 $6C $1A $10 $06 $7B $7E $74 $6A $0A $62 $58 $20 $20 $20 $20 $20 $20 $20 $20 $20 $20 $20 $20 $20 $20 $20 $20 $20 $20 $20 $20 $20 $20 $20 $20 $20 $20 $11 $6A $0B
5680                     BYT $01 $20 $79 $6F $65 $2F $79 $53 $49 $3E $5D $62 $58 $4D $6C $46 $20 $20 $20 $20 $20 $20 $20 $20 $20 $20 $20 $20 $20 $20 $27 $1D $77 $18 $95 $95 $95 $95 $95 $95 $95 $95 $95 $95 $4E $44 $63 $58 $5D $53 $72 $67 $41 $37 $01 $4B $41 $1B $20 $20 $20 $20 $20 $20 $20 $20 $20 $20 $20 $20 $20 $20 $20 $20 $4C $20 $20 $20 $20 $20 $20 $20 $20 $08 $53 $74 $4E $17 $62 $58 $32 $26 $46 $20 $20 $20 $20 $20 $20 $20 $20 $20 $20 $20 $20 $20 $20 $20 $20 $20 $20 $20 $20 $20 $20 $20 $20 $20 $20 $0F $58 $4E $44 $1E $3C $5D $53 $2D $20 $20 $20 $20 $20 $20 $20 $20 $20 $20 $20 $20 $20 $20 $20 $20 $79 $20 $20 $20 $20 $20 $20 $20 $20 $20 $20 $20 $20 $45 $3B $31
5720                     BYT $51 $29 $4A $40 $60 $38 $2E $24 $6F $1C $12 $08 $7E $00 $76 $20 $20 $20 $20 $20 $20 $20 $20 $20 $20 $20 $20 $20 $20 $20 $20 $52 $48 $20 $95 $95 $95 $76 $95 $95 $95 $95 $95 $95 $95 $95 $95 $95 $95 $23 $17 $71 $12 $32 $7B $00 $76 $20 $20 $20 $20 $20 $20 $20 $20 $20 $20 $20 $20 $20 $20 $20 $20 $20 $20 $20 $20 $20 $20 $20 $20 $20 $20 $20 $08 $7E $48 $12 $6C $0D $57 $76 $20 $20 $20 $20 $20 $20 $20 $20 $20 $20 $20 $20 $20 $20 $20 $20 $52 $20 $20 $20 $20 $20 $20 $4F $1A $1F $15 $5E $29 $03 $79 $6D $0D $67 $5D $20 $20 $20 $20 $20 $20 $20 $20 $20 $20 $20 $20 $20 $20 $20 $20 $38 $57 $4D $20 $20 $20 $20 $20 $20 $20 $20 $20 $20 $20 $24 $1A $74
57C0                     BYT $12 $08 $7E $58 $21 $6C $0D $67 $30 $7B $71 $4B $3F $5F $20 $20 $20 $20 $20 $20 $20 $20 $20 $20 $20 $20 $20 $20 $20 $20 $20 $20 $20 $20 $95 $95 $19 $0D $03 $79 $28 $71 $95 $95 $95 $95 $95 $95 $95 $95 $5A $50 $46 $73 $3E $34 $20 $20 $20 $20 $20 $20 $20 $20 $20 $20 $20 $20 $20 $20 $20 $20 $20 $20 $20 $20 $20 $20 $20 $20 $20 $20 $20 $20 $20 $7A $52 $48 $3E $09 $36 $20 $20 $20 $20 $20 $20 $20 $20 $20 $20 $20 $20 $20 $20 $20 $20 $67 $08 $7E $20 $20 $20 $20 $01 $5A $50 $46 $10 $3E $5F $55 $1F $69 $43 $39 $20 $20 $20 $20 $20 $20 $20 $20 $20 $20 $20 $20 $20 $20 $20 $20 $6A $08 $62 $03 $79 $17 $0D $67 $5D $20 $20 $20 $20 $20 $20 $2F $50 $44
5860                     BYT $64 $3E $34 $53 $48 $22 $18 $62 $2C $06 $27 $20 $20 $20 $20 $20 $20 $20 $20 $20 $20 $20 $20 $20 $20 $20 $20 $20 $20 $20 $20 $20 $20 $20 $95 $4B $69 $5F $39 $2F $78 $43 $39 $95 $95 $95 $95 $95 $95 $95 $95 $06 $25 $1A $10 $20 $20 $20 $20 $20 $20 $20 $20 $20 $20 $20 $20 $20 $20 $20 $20 $20 $20 $20 $20 $20 $20 $20 $20 $20 $20 $20 $20 $20 $20 $3B $06 $27 $01 $4A $15 $0B $20 $20 $20 $20 $20 $20 $20 $20 $20 $20 $20 $64 $5A $08 $52 $48 $3E $17 $36 $2C $4D $26 $45 $3B $31 $51 $29 $1F $15 $60 $0D $03 $24 $6F $20 $20 $20 $20 $20 $20 $20 $20 $20 $20 $20 $20 $20 $20 $20 $55 $49 $4D $43 $39 $58 $31 $27 $48 $67 $20 $20 $20 $20 $20 $20 $10 $05 $08
5900                     BYT $70 $66 $06 $5E $20 $75 $15 $09 $63 $59 $20 $20 $20 $20 $20 $20 $20 $20 $20 $20 $20 $20 $20 $20 $20 $20 $20 $20 $20 $20 $20 $20 $20 $20 $20 $95 $14 $6E $64 $2E $78 $7D $73 $3D $07 $61 $57 $4C $20 $20 $20 $20 $20 $20 $20 $20 $20 $20 $20 $20 $20 $20 $20 $20 $20 $20 $20 $20 $20 $20 $20 $20 $20 $20 $20 $20 $20 $20 $20 $20 $20 $20 $20 $20 $71 $66 $5C $36 $00 $4A $40 $20 $20 $20 $20 $20 $20 $20 $20 $20 $20 $21 $17 $1C $3C $05 $26 $00 $4B $14 $0A $00 $5A $78 $6E $64 $69 $07 $7D $73 $4D $16 $61 $57 $31 $25 $20 $20 $20 $20 $20 $20 $20 $20 $20 $20 $20 $20 $20 $20 $33 $61 $00 $21 $17 $70 $20 $20 $20 $20 $20 $20 $20 $20 $20 $20 $20 $1D $66 $5C
59A0                     BYT $52 $2C $4A $40 $36 $57 $59 $24 $45 $3B $20 $20 $20 $20 $20 $20 $20 $20 $20 $20 $20 $20 $20 $20 $20 $20 $20 $20 $20 $20 $20 $20 $20 $69 $5E $61 $57 $4D $6D $45 $3B $31 $7C $29 $1F $40 $0B $38 $2E $20 $20 $20 $20 $20 $20 $20 $20 $20 $20 $20 $20 $20 $20 $20 $20 $5F $55 $20 $20 $20 $20 $20 $20 $20 $20 $20 $20 $20 $20 $20 $20 $20 $20 $30 $24 $29 $1F $3F $33 $0D $03 $20 $20 $20 $20 $20 $20 $20 $20 $20 $20 $56 $4C $42 $0B $56 $30 $51 $1A $3A $3F $35 $29 $49 $23 $19 $38 $2D $07 $7D $47 $11 $16 $0C $20 $20 $20 $20 $20 $20 $20 $20 $20 $20 $20 $20 $20 $20 $20 $47 $12 $5B $51 $2B $21 $20 $20 $20 $20 $20 $20 $20 $20 $20 $20 $20 $20 $6C $0C $2D
5A40                     BYT $07 $7B $1B $11 $6B $0A $20 $75 $4F $20 $20 $20 $20 $20 $20 $20 $20 $20 $20 $20 $20 $20 $20 $20 $20 $20 $20 $20 $20 $20 $20 $20 $20 $73 $11 $07 $28 $02 $20 $16 $0C $66 $2F $7A $70 $4A $3E $5E $54 $75 $20 $20 $20 $20 $20 $20 $20 $20 $20 $20 $20 $20 $20 $20 $20 $30 $09 $28 $1E $14 $18 $20 $20 $20 $20 $20 $20 $20 $20 $20 $20 $20 $20 $63 $59 $4F $70 $72 $68 $5E $54 $01 $20 $20 $20 $20 $20 $20 $20 $20 $20 $35 $2B $4A $23 $19 $0F $59 $07 $7D $73 $68 $6B $0C $02 $77 $7A $70 $66 $06 $5E $54 $4A $20 $20 $20 $20 $20 $20 $20 $20 $20 $20 $20 $20 $20 $20 $20 $30 $26 $6F $1E $20 $20 $20 $20 $20 $20 $20 $20 $20 $20 $20 $20 $20 $20 $2B $75 $4F $45
5AE0                     BYT $3A $59 $33 $54 $49 $20 $20 $20 $20 $20 $20 $20 $20 $20 $20 $20 $20 $20 $20 $20 $20 $20 $20 $20 $20 $20 $20 $20 $20 $20 $20 $20 $20 $20 $20 $20 $20 $51 $46 $20 $41 $61 $2B $4C $26 $70 $3A $30 $0A $20 $1E $14 $20 $20 $20 $20 $20 $20 $20 $20 $61 $20 $20 $20 $45 $3B $59 $4F $70 $4A $68 $5E $54 $2E $20 $20 $20 $20 $20 $20 $20 $20 $20 $35 $2B $05 $24 $19 $0F $69 $33 $7D $1E $78 $42 $0C $20 $20 $20 $20 $20 $20 $60 $54 $4A $6B $6F $63 $59 $4F $7E $47 $3D $33 $0D $2B $21 $42 $1C $3A $30 $26 $20 $20 $20 $20 $20 $20 $20 $20 $20 $20 $20 $20 $20 $20 $20 $61 $57 $05 $4F $20 $20 $20 $20 $20 $20 $20 $20 $20 $20 $20 $20 $20 $20 $20 $0D $2E $24 $6F
5B80                     BYT $1C $12 $08 $7E $20 $20 $20 $20 $20 $20 $20 $20 $20 $20 $20 $20 $20 $20 $43 $64 $58 $31 $52 $48 $67 $40 $36 $20 $20 $20 $20 $20 $20 $20 $20 $20 $20 $20 $0D $03 $23 $17 $71 $67 $32 $7B $00 $76 $41 $0A $64 $20 $20 $20 $20 $20 $20 $20 $20 $4D $43 $0C $57 $31 $27 $1B $3B $15 $0B $2A $1F $24 $1A $39 $2E $20 $20 $20 $20 $20 $20 $20 $20 $50 $71 $66 $05 $5F $55 $75 $69 $5F $39 $04 $4D $43 $20 $20 $20 $20 $20 $20 $20 $36 $10 $06 $4F $1A $1F $15 $5E $29 $03 $79 $6D $0D $03 $5D $7C $71 $67 $6C $20 $20 $20 $20 $20 $20 $20 $20 $20 $20 $20 $20 $20 $20 $3F $19 $39 $2D $20 $20 $20 $20 $20 $20 $20 $20 $20 $20 $20 $20 $20 $20 $20 $13 $5E $54 $59 $22
5C20                     BYT $42 $63 $3D $20 $20 $20 $20 $20 $20 $20 $20 $20 $20 $20 $20 $20 $20 $1E $14 $6D $0C $02 $78 $7C $70 $11 $07 $20 $20 $20 $20 $20 $20 $20 $20 $20 $20 $20 $20 $54 $56 $4C $42 $38 $65 $30 $26 $1C $74 $14 $20 $20 $20 $20 $20 $20 $20 $20 $7E $74 $3E $6C $62 $03 $4D $7B $71 $67 $5C $5F $55 $4B $6B $43 $39 $5A $20 $20 $20 $20 $20 $20 $20 $22 $18 $36 $10 $06 $27 $45 $1F $15 $0B $54 $03 $79 $20 $20 $20 $20 $20 $20 $20 $20 $62 $01 $5A $50 $46 $10 $5A $34 $55 $1F $3E $43 $39 $2E $4D $27 $1D $3D $20 $20 $20 $20 $20 $20 $20 $20 $20 $20 $20 $20 $20 $7E $58 $79 $17 $62 $20 $20 $20 $20 $20 $20 $20 $20 $20 $20 $20 $20 $3E $34 $53 $48 $22 $18 $62 $2C
5CC0                     BYT $22 $7C $20 $20 $20 $20 $20 $20 $20 $20 $20 $20 $20 $20 $20 $20 $5D $62 $2D $76 $6C $46 $3C $5A $50 $2A $20 $69 $20 $20 $20 $20 $20 $20 $20 $20 $20 $20 $20 $16 $0B $01 $06 $25 $1A $10 $6A $34 $7E $20 $20 $20 $20 $20 $20 $20 $20 $20 $20 $61 $55 $4B $41 $70 $2B $21 $17 $71 $0F $30 $26 $00 $1E $14 $0A $64 $20 $20 $20 $20 $20 $20 $7D $73 $4B $6B $61 $57 $5A $4F $45 $66 $6A $34 $55 $20 $20 $20 $20 $20 $20 $20 $20 $20 $33 $0B $20 $20 $20 $20 $20 $06 $51 $7E $74 $6A $60 $62 $58 $79 $6F $20 $20 $20 $20 $20 $20 $20 $20 $20 $20 $20 $20 $20 $3E $34 $2A $49 $22 $18 $20 $20 $20 $20 $20 $20 $20 $20 $20 $20 $20 $20 $20 $20 $20 $20 $74 $14 $08 $62
5D60                     BYT $58 $23 $20 $20 $20 $20 $20 $20 $20 $20 $20 $20 $20 $20 $6E $1D $13 $09 $7D $01 $77 $18 $0C $2C $06 $7C $1B $10 $6A $20 $20 $20 $20 $20 $20 $20 $20 $20 $20 $20 $20 $20 $20 $4B $25 $1B $66 $2F $50 $20 $20 $20 $20 $20 $20 $20 $20 $20 $20 $20 $20 $20 $20 $20 $0B $65 $5B $4F $6F $49 $6A $5E $53 $74 $4E $20 $20 $20 $20 $20 $20 $20 $20 $0B $2A $4B $25 $1A $39 $2F $09 $29 $1D $13 $20 $20 $20 $20 $20 $20 $20 $20 $20 $20 $20 $20 $20 $20 $20 $20 $20 $20 $20 $20 $20 $20 $20 $20 $20 $20 $20 $20 $20 $20 $20 $20 $20 $20 $20 $20 $20 $20 $20 $7E $74 $15 $6E $0D $03 $79 $7D $20 $20 $20 $20 $20 $20 $20 $20 $20 $20 $20 $20 $20 $20 $20 $20 $57 $22 $18
5E00                     BYT $2B $58 $20 $20 $20 $20 $20 $20 $20 $20 $20 $20 $20 $20 $4F $70 $66 $30 $5E $54 $4A $3F $42 $38 $2E $4E $26 $47 $3D $20 $20 $20 $20 $20 $20 $20 $20 $20 $20 $20 $20 $20 $20 $20 $7A $70 $39 $68 $5E $20 $20 $20 $20 $20 $20 $20 $20 $20 $20 $20 $20 $20 $20 $20 $20 $20 $20 $4F $29 $1F $14 $33 $0D $03 $23 $17 $20 $20 $20 $20 $20 $20 $20 $0A $64 $5A $50 $6E $48 $69 $5F $7D $73 $4D $43 $20 $20 $20 $20 $20 $20 $20 $20 $20 $20 $20 $20 $20 $20 $20 $20 $20 $20 $20 $20 $20 $20 $20 $20 $20 $20 $20 $20 $20 $20 $20 $20 $20 $20 $20 $20 $20 $5C $52 $2C $22 $40 $36 $10 $31 $4F $45 $20 $20 $20 $20 $20 $20 $20 $20 $20 $20 $20 $20 $20 $20 $20 $00 $76 $50
5EA0                     BYT $1A $20 $20 $20 $20 $20 $20 $20 $20 $20 $20 $20 $20 $3B $31 $27 $56 $1F $40 $36 $65 $2E $24 $1A $74 $12 $08 $20 $20 $20 $20 $20 $20 $20 $20 $20 $20 $20 $20 $20 $20 $20 $20 $20 $5A $5D $52 $48 $3E $6C $20 $20 $20 $20 $20 $20 $20 $20 $20 $20 $20 $20 $20 $20 $20 $20 $20 $20 $08 $53 $00 $76 $6C $62 $64 $5A $50 $20 $20 $20 $20 $20 $02 $4D $43 $39 $2D $31 $27 $1D $3C $15 $0B $2C $4B $24 $0C $02 $4C $20 $20 $20 $20 $20 $20 $20 $20 $20 $20 $20 $20 $20 $20 $20 $20 $20 $20 $20 $20 $20 $20 $20 $20 $20 $20 $20 $20 $20 $20 $20 $20 $63 $67 $08 $7E $72 $76 $6C $62 $01 $76 $50 $20 $20 $20 $20 $20 $20 $20 $20 $20 $20 $20 $20 $20 $20 $20 $36 $2C $4C
5F40                     BYT $20 $20 $20 $20 $20 $20 $20 $20 $20 $20 $20 $20 $20 $0D $67 $5D $26 $71 $4B $41 $35 $55 $5A $50 $44 $20 $20 $20 $20 $20 $20 $20 $20 $20 $20 $20 $20 $20 $20 $20 $20 $20 $20 $6F $0F $03 $20 $20 $20 $20 $20 $20 $20 $20 $20 $20 $20 $20 $20 $20 $20 $20 $20 $20 $20 $20 $20 $20 $16 $0A $2A $20 $25 $19 $20 $20 $20 $20 $20 $20 $20 $20 $20 $77 $18 $46 $65 $06 $7C $55 $74 $6A $60 $64 $58 $4E $44 $73 $3C $20 $20 $20 $20 $20 $20 $20 $20 $20 $20 $20 $20 $20 $20 $20 $20 $20 $20 $20 $20 $20 $20 $20 $20 $20 $20 $20 $20 $20 $20 $20 $09 $53 $49 $3F $34 $37 $20 $20 $20 $20 $20 $20 $20 $20 $20 $20 $20 $20 $20 $20 $20 $20 $20 $20 $20 $20 $20 $20 $20 $2C
5FE0                     BYT $20 $20 $20 $20 $20 $20 $20 $20 $20 $20 $20 $20 $20 $20 $49 $68 $41 $37 $2D $77 $25 $1B $11 $20 $20 $20 $20 $20 $20 $20 $20 $20 $20 $20 $20 $20 $20 $20 $20 $20 $20 $20 $20 $20 $61 $20 $20 $20 $20 $20 $20 $20 $20 $20 $20 $20 $20 $20 $20 $20 $20 $20 $20 $20 $20 $20 $20 $20 $20 $05 $5F $55 $4A $20 $20 $20 $20 $20 $20 $20 $20 $20 $20 $2C $77 $40 $36 $10 $06 $24 $45 $1F $15 $33 $29 $03 $79 $42 $0D $67 $20 $20 $20 $20 $20 $20 $20 $20 $20 $20 $20 $20 $20 $20 $20 $20 $20 $20 $20 $20 $20 $20 $20 $20 $20 $20 $20 $20 $20 $3B $2F $25 $1B $4A $13 $20 $20 $20 $20 $20 $20 $20 $20 $20 $20 $20 $20 $20 $20 $20 $20 $20 $20 $20 $20 $20 $20 $20 $54 $37
6080                     BYT $2D $20 $20 $20 $20 $20 $20 $20 $20 $20 $20 $20 $20 $20 $20 $72 $68 $09 $0D $56 $77 $6D $20 $20 $20 $20 $20 $20 $20 $20 $20 $20 $20 $20 $20 $20 $20 $20 $20 $20 $20 $20 $20 $20 $20 $20 $20 $20 $20 $20 $20 $20 $20 $63 $59 $4E $20 $20 $20 $20 $20 $20 $20 $20 $20 $20 $20 $20 $20 $20 $20 $0A $53 $20 $20 $20 $20 $20 $20 $20 $20 $20 $20 $20 $55 $04 $7A $70 $64 $68 $5E $54 $73 $4C $6D $63 $02 $77 $51 $47 $11 $5B $35 $2B $20 $20 $20 $20 $20 $20 $20 $20 $20 $20 $20 $20 $20 $20 $20 $20 $20 $20 $20 $20 $20 $20 $20 $20 $41 $0A $55 $2F $50 $19 $20 $20 $20 $20 $20 $20 $20 $20 $20 $20 $20 $20 $20 $20 $20 $20 $20 $20 $20 $20 $A6 $A3 $51 $12 $14 $09
6120                     BYT $63 $03 $20 $20 $20 $20 $20 $20 $20 $20 $20 $20 $20 $20 $20 $44 $3A $14 $5D $28 $1E $20 $20 $20 $20 $20 $7B $1B $11 $6B $0A $20 $75 $4F $20 $20 $20 $20 $20 $20 $20 $20 $20 $20 $20 $20 $20 $20 $20 $20 $20 $20 $3F $35 $64 $2D $23 $20 $20 $11 $20 $20 $20 $20 $20 $20 $20 $20 $20 $20 $20 $20 $5E $20 $20 $20 $20 $20 $20 $20 $20 $20 $20 $20 $20 $2B $4C $7A $44 $3A $30 $25 $28 $1E $14 $34 $0C $02 $23 $43 $1B $11 $07 $52 $20 $75 $6B $61 $20 $20 $20 $20 $20 $20 $20 $20 $20 $20 $20 $20 $20 $20 $20 $20 $20 $20 $20 $2B $4A $23 $19 $0F $59 $20 $20 $20 $20 $20 $20 $20 $20 $20 $20 $20 $20 $20 $20 $20 $20 $20 $20 $20 $20 $20 $20 $A7 $25 $27 $33 $21
61C0                     BYT $42 $60 $0F $20 $20 $20 $20 $20 $20 $20 $20 $20 $20 $20 $02 $07 $7D $1C $11 $6B $20 $20 $20 $20 $45 $3A $59 $5E $56 $4B $6A $44 $3A $5A $4E $44 $1E $20 $20 $20 $20 $20 $20 $20 $20 $20 $20 $20 $20 $20 $20 $20 $04 $7A $43 $0E $68 $5E $52 $72 $68 $20 $20 $20 $20 $20 $20 $20 $20 $20 $20 $20 $20 $20 $20 $20 $20 $20 $20 $20 $20 $20 $20 $20 $20 $7E $2D $76 $6C $62 $3C $5A $7B $71 $4B $69 $5F $55 $2F $78 $43 $39 $3E $07 $52 $4A $24 $18 $38 $20 $20 $20 $20 $20 $20 $20 $20 $20 $20 $20 $20 $20 $20 $20 $20 $20 $60 $64 $58 $79 $6F $73 $20 $20 $20 $20 $20 $20 $20 $20 $20 $20 $20 $20 $20 $20 $20 $20 $20 $20 $20 $20 $20 $20 $20 $20 $20 $20 $21 $77
6260                     BYT $7A $6F $65 $20 $20 $20 $20 $20 $20 $20 $20 $20 $20 $46 $3C $32 $52 $2A $20 $20 $20 $20 $20 $20 $70 $1D $13 $09 $20 $1D $77 $18 $0E $2C $06 $7C $72 $3B $6A $20 $20 $20 $20 $20 $F4 $F2 $20 $20 $20 $20 $41 $37 $2D $77 $41 $1B $3C $06 $50 $2A $20 $15 $34 $20 $20 $20 $20 $20 $20 $20 $20 $20 $20 $20 $20 $20 $20 $20 $20 $20 $20 $20 $20 $20 $20 $44 $0D $58 $32 $28 $1C $3C $16 $37 $2B $20 $25 $1B $3A $2F $09 $20 $49 $13 $09 $63 $58 $77 $18 $72 $20 $20 $20 $20 $20 $20 $20 $20 $20 $20 $20 $20 $20 $20 $20 $2D $23 $41 $37 $11 $07 $20 $20 $20 $20 $20 $20 $20 $20 $20 $20 $20 $20 $20 $20 $20 $20 $20 $20 $20 $20 $20 $20 $20 $20 $20 $20 $64 $16 $39
6300                     BYT $4A $40 $20 $20 $20 $20 $20 $20 $20 $20 $20 $20 $77 $18 $0E $68 $06 $7C $72 $4C $20 $20 $20 $20 $20 $6F $65 $5B $33 $53 $49 $3F $42 $37 $2D $4E $51 $1B $3C $32 $20 $20 $20 $F2 $F5 $F8 $FB $20 $20 $20 $13 $09 $29 $01 $77 $6D $38 $65 $5B $51 $47 $49 $20 $20 $20 $20 $20 $20 $20 $20 $20 $20 $20 $20 $20 $20 $20 $20 $20 $20 $20 $20 $20 $20 $20 $20 $6D $0E $04 $4E $7C $72 $68 $5D $60 $56 $4C $6C $60 $3A $5B $7B $6F $49 $3F $0A $53 $2D $23 $19 $20 $20 $20 $20 $20 $20 $20 $20 $20 $20 $20 $20 $20 $20 $09 $64 $73 $13 $6D $63 $20 $20 $20 $20 $20 $20 $20 $20 $20 $20 $20 $20 $20 $20 $20 $20 $20 $20 $20 $20 $20 $20 $20 $20 $20 $20 $74 $55 $37 $09
63A0                     BYT $20 $59 $20 $20 $20 $20 $20 $20 $20 $20 $20 $20 $20 $30 $51 $45 $65 $5B $35 $54 $49 $3F $20 $20 $20 $20 $28 $72 $11 $32 $0C $01 $20 $16 $70 $10 $04 $7A $54 $1F $68 $20 $FE $F1 $F4 $F7 $FA $FD $20 $20 $20 $20 $20 $35 $56 $30 $79 $44 $3A $14 $08 $28 $20 $20 $20 $20 $20 $20 $20 $20 $20 $20 $20 $20 $20 $20 $20 $20 $20 $20 $20 $20 $20 $20 $20 $20 $20 $20 $20 $3A $30 $51 $00 $49 $40 $36 $1E $20 $16 $0C $02 $2F $7A $1B $11 $3E $09 $20 $75 $4D $20 $20 $20 $20 $20 $20 $20 $20 $20 $20 $20 $20 $20 $3A $30 $25 $28 $1E $3F $20 $20 $20 $20 $20 $20 $20 $20 $20 $20 $20 $20 $20 $20 $20 $20 $20 $20 $A6 $A3 $54 $1D $20 $20 $20 $20 $20 $20 $3A $23 $3F
6440                     BYT $35 $2B $4A $20 $B0 $20 $20 $20 $20 $20 $20 $20 $20 $20 $77 $16 $70 $66 $06 $7A $20 $75 $15 $20 $20 $20 $20 $6D $47 $3D $33 $51 $2B $4C $42 $60 $56 $30 $26 $6F $3A $14 $F7 $FA $FD $F0 $F3 $F6 $20 $20 $20 $20 $20 $20 $61 $2B $75 $4F $70 $20 $9B $87 $9C $20 $20 $20 $20 $20 $20 $20 $20 $20 $20 $20 $20 $20 $20 $20 $20 $20 $20 $20 $20 $20 $20 $20 $20 $20 $20 $20 $20 $20 $52 $72 $68 $6D $61 $01 $77 $51 $70 $65 $5B $35 $20 $49 $3F $44 $0E $20 $20 $20 $20 $20 $20 $20 $20 $20 $20 $20 $20 $20 $25 $1B $4A $13 $09 $20 $59 $77 $20 $20 $20 $20 $20 $20 $20 $20 $20 $20 $20 $20 $20 $20 $20 $20 $20 $20 $A7 $42 $37 $20 $20 $20 $20 $20 $20 $20 $20 $20
64E0                     BYT $16 $6F $0E $04 $7A $20 $20 $20 $20 $20 $20 $20 $20 $20 $20 $5B $51 $47 $49 $3F $35 $2B $58 $20 $20 $20 $20 $20 $20 $20 $12 $16 $7E $74 $13 $6C $62 $03 $22 $7B $71 $67 $31 $F7 $FA $FD $F0 $20 $20 $20 $20 $20 $20 $20 $20 $20 $20 $23 $20 $20 $20 $87 $20 $20 $20 $20 $20 $20 $20 $20 $20 $20 $20 $A6 $20 $20 $20 $20 $20 $20 $20 $20 $20 $20 $20 $20 $20 $20 $20 $20 $20 $20 $20 $20 $1F $14 $33 $0D $03 $23 $17 $1C $12 $32 $26 $20 $20 $20 $20 $20 $20 $20 $20 $20 $20 $20 $20 $20 $20 $20 $20 $57 $31 $52 $1B $3B $40 $36 $2A $4A $24 $1A $39 $2E $24 $7E $48 $12 $33 $20 $20 $20 $20 $20 $20 $20 $20 $20 $75 $69 $5F $64 $04 $78 $6E $48 $13 $5C $52 $2C
6580                     BYT $22 $40 $36 $57 $31 $20 $20 $20 $20 $20 $20 $20 $20 $20 $20 $03 $08 $7C $1C $12 $6C $0B $00 $76 $20 $20 $20 $20 $20 $20 $20 $69 $5F $38 $57 $4D $43 $47 $3B $31 $52 $56 $1F $40 $F1 $F4 $20 $20 $20 $20 $20 $20 $20 $20 $20 $20 $20 $20 $20 $20 $20 $87 $20 $20 $20 $20 $20 $20 $64 $5A $5D $52 $48 $A3 $A7 $20 $20 $20 $20 $20 $20 $20 $20 $20 $20 $20 $20 $20 $20 $20 $20 $20 $20 $20 $20 $20 $20 $6E $64 $66 $5C $52 $73 $12 $20 $20 $20 $20 $20 $20 $20 $20 $20 $20 $20 $20 $20 $20 $20 $20 $27 $1D $13 $5D $0B $01 $77 $6C $7D $57 $78 $6D $0C $66 $5C $7C $70 $4A $20 $20 $20 $20 $20 $20 $20 $20 $20 $20 $20 $21 $17 $0D $56 $05 $7B $1C $65 $30 $0A $00
6620                     BYT $74 $14 $6E $64 $20 $20 $20 $20 $20 $20 $20 $20 $20 $20 $46 $3C $31 $50 $2A $4B $41 $35 $56 $30 $50 $20 $20 $20 $20 $20 $20 $20 $6E $0C $2D $07 $7D $1B $11 $6B $61 $2A $75 $4F $70 $20 $20 $20 $20 $20 $20 $20 $20 $20 $20 $20 $20 $20 $20 $20 $20 $87 $20 $20 $20 $20 $20 $19 $73 $13 $07 $28 $1E $22 $20 $20 $20 $20 $20 $20 $20 $20 $20 $20 $20 $20 $20 $20 $20 $20 $20 $20 $20 $20 $20 $20 $20 $20 $1A $3A $30 $26 $29 $1E $20 $20 $20 $20 $20 $20 $20 $20 $20 $20 $20 $20 $20 $20 $20 $59 $4F $70 $74 $68 $5E $54 $1F $4C $42 $38 $2E $30 $26 $47 $3D $3F $35 $20 $20 $20 $20 $20 $20 $20 $20 $20 $20 $20 $20 $20 $20 $17 $70 $66 $5C $26 $54 $4A $6B $35
66C0                     BYT $38 $59 $4F $44 $47 $20 $20 $20 $20 $20 $20 $20 $20 $30 $26 $71 $3A $14 $0A $00 $1E $78 $6E $0F $20 $20 $20 $20 $20 $20 $20 $20 $20 $4F $45 $3B $5A $33 $54 $4A $69 $5E $38 $2E $78 $42 $20 $20 $20 $20 $20 $20 $20 $20 $20 $20 $20 $20 $20 $20 $20 $87 $20 $20 $20 $7E $74 $4E $44 $62 $58 $32 $28 $71 $20 $20 $20 $20 $20 $20 $20 $20 $20 $20 $00 $20 $20 $20 $20 $20 $20 $20 $20 $20 $20 $20 $20 $20 $20 $20 $20 $5B $4F $70 $4A $20 $20 $20 $20 $20 $20 $20 $20 $20 $20 $20 $20 $20 $35 $2B $21 $7B $44 $0F $05 $0A $53 $1E $14 $6E $62 $02 $78 $52 $71 $66 $20 $20 $20 $20 $20 $20 $20 $20 $20 $20 $20 $20 $20 $20 $20 $20 $42 $38 $3C $30 $26 $1C $4B $14
6760                     BYT $0A $00 $5A $78 $6E $20 $20 $20 $20 $20 $20 $20 $20 $57 $4D $25 $45 $66 $5C $34 $54 $20 $20 $20 $20 $20 $20 $20 $20 $20 $20 $20 $20 $20 $20 $0C $0F $05 $7B $1B $73 $69 $0A $2A $02 $78 $20 $20 $20 $20 $20 $20 $20 $20 $20 $20 $20 $20 $20 $20 $20 $87 $20 $20 $20 $17 $0D $2E $22 $26 $1C $12 $31 $0A $20 $20 $20 $20 $20 $20 $20 $20 $20 $69 $5E $7D $57 $4D $6D $20 $20 $20 $20 $20 $20 $20 $20 $20 $20 $20 $20 $20 $12 $08 $20 $20 $20 $20 $20 $20 $20 $20 $20 $20 $20 $20 $20 $74 $69 $6E $64 $03 $78 $52 $48 $12 $5C $36 $2C $21 $40 $45 $3B $20 $20 $20 $20 $20 $20 $20 $20 $20 $20 $20 $20 $20 $20 $20 $20 $20 $20 $20 $20 $7B $19 $64 $69 $5F $28 $73
6800                     BYT $3F $35 $29 $49 $20 $20 $20 $20 $20 $20 $20 $20 $20 $0C $56 $20 $16 $70 $65 $04 $20 $20 $20 $20 $20 $20 $20 $20 $20 $20 $20 $20 $20 $20 $20 $20 $60 $56 $30 $4E $44 $3A $14 $5D $28 $20 $20 $20 $20 $20 $20 $20 $20 $20 $20 $20 $20 $20 $20 $20 $88 $87 $7A $28 $72 $68 $5E $37 $56 $4C $42 $46 $3A $5B $51 $20 $20 $20 $20 $20 $20 $20 $19 $0F $11 $32 $28 $1E $20 $16 $20 $20 $20 $20 $20 $20 $20 $20 $20 $20 $20 $20 $20 $20 $20 $20 $20 $20 $20 $20 $20 $20 $20 $20 $20 $20 $25 $28 $1E $14 $34 $0C $02 $23 $43 $1B $11 $07 $52 $20 $20 $20 $20 $20 $20 $20 $20 $20 $20 $20 $20 $20 $20 $20 $38 $20 $20 $20 $20 $20 $20 $20 $2B $4A $23 $19 $0F $59 $23 $7D
68A0                     BYT $1E $68 $32 $20 $20 $20 $20 $20 $20 $20 $20 $20 $20 $15 $5E $63 $20 $20 $20 $20 $20 $20 $20 $20 $20 $20 $20 $20 $20 $20 $20 $20 $20 $20 $20 $1E $78 $19 $0D $2D $07 $7D $1C $11 $6B $20 $20 $20 $20 $20 $20 $20 $20 $20 $20 $20 $20 $20 $20 $20 $52 $41 $67 $30 $51 $2B $76 $3F $35 $0F $05 $23 $19 $73 $14 $20 $20 $20 $20 $20 $20 $20 $5C $50 $70 $66 $40 $5F $54 $75 $4F $6E $20 $20 $20 $20 $20 $20 $20 $20 $20 $20 $20 $20 $20 $20 $20 $20 $20 $20 $20 $20 $20 $20 $20 $3A $03 $79 $6F $49 $67 $5D $53 $2D $76 $41 $62 $58 $05 $20 $20 $20 $20 $20 $20 $20 $20 $20 $20 $20 $20 $20 $20 $13 $41 $0B $01 $77 $50 $6F $65 $06 $7B $53 $74 $6A $0A $62 $58 $4E
6940                     BYT $19 $46 $3C $20 $20 $20 $20 $20 $20 $20 $20 $20 $1B $48 $13 $20 $20 $20 $20 $20 $20 $20 $20 $20 $20 $20 $20 $20 $20 $20 $20 $20 $20 $20 $20 $53 $49 $3E $41 $37 $2D $4D $25 $46 $3C $5C $20 $20 $20 $20 $20 $20 $20 $20 $20 $20 $20 $20 $20 $20 $49 $6D $36 $65 $5B $51 $45 $49 $6A $60 $54 $74 $4E $44 $63 $20 $20 $20 $20 $20 $20 $20 $01 $4B $25 $1B $10 $2F $09 $20 $1F $13 $6D $20 $20 $20 $20 $20 $20 $20 $20 $20 $20 $20 $20 $20 $20 $20 $20 $20 $20 $20 $20 $20 $26 $1A $3A $14 $35 $29 $49 $3F $19 $38 $2D $20 $20 $20 $20 $20 $20 $20 $20 $20 $20 $20 $20 $20 $20 $20 $20 $5E $38 $03 $4C $6D $47 $12 $5B $51 $47 $21 $3F $35 $2B $30 $4E $44 $3A $14
69E0                     BYT $5D $28 $1E $20 $20 $20 $20 $20 $20 $20 $20 $20 $20 $20 $20 $20 $20 $20 $20 $20 $20 $20 $20 $20 $20 $20 $20 $20 $20 $20 $20 $20 $20 $20 $20 $27 $56 $1F $15 $0B $01 $03 $79 $6F $65 $12 $5D $20 $20 $20 $20 $20 $20 $20 $20 $20 $20 $20 $20 $20 $20 $20 $43 $39 $2F $79 $27 $1D $13 $08 $0B $01 $22 $17 $1A $20 $20 $20 $20 $20 $20 $20 $20 $59 $7A $46 $48 $69 $5F $55 $73 $4D $43 $39 $20 $20 $20 $20 $20 $20 $20 $20 $20 $20 $20 $20 $20 $20 $20 $20 $20 $20 $20 $03 $4D $17 $71 $67 $5C $7B $55 $4B $6B $5F $20 $20 $20 $20 $20 $20 $20 $20 $20 $20 $20 $20 $20 $20 $20 $45 $1F $15 $0B $54 $1F $79 $1A $63 $03 $08 $7E $72 $12 $6C $62 $01 $76 $50 $46 $10
6A80                     BYT $5A $5F $55 $20 $20 $20 $20 $20 $20 $20 $20 $20 $20 $20 $20 $20 $20 $20 $20 $20 $20 $20 $20 $20 $20 $20 $20 $20 $20 $20 $20 $20 $20 $20 $20 $20 $20 $20 $4B $50 $44 $64 $5A $34 $53 $20 $20 $20 $20 $20 $20 $20 $20 $20 $20 $20 $20 $20 $20 $20 $20 $20 $20 $1A $1E $67 $08 $7E $2D $76 $6C $62 $3C $5A $50 $20 $20 $20 $20 $20 $20 $20 $43 $39 $13 $07 $27 $1D $3E $16 $0B $2C $22 $25 $1A $20 $20 $20 $20 $20 $20 $20 $20 $20 $20 $20 $20 $20 $20 $20 $20 $20 $41 $0C $39 $5A $52 $1D $4A $40 $20 $20 $20 $20 $20 $20 $20 $20 $20 $20 $20 $20 $20 $20 $20 $20 $20 $20 $20 $20 $73 $69 $08 $61 $57 $4D $17 $45 $3B $31 $26 $29 $1F $40 $35 $38 $2E $24 $44 $1C
6B20                     BYT $12 $08 $53 $20 $20 $20 $20 $20 $20 $20 $20 $20 $20 $20 $20 $20 $20 $20 $20 $20 $20 $20 $20 $20 $20 $20 $20 $20 $20 $20 $20 $20 $20 $20 $20 $20 $20 $20 $20 $20 $20 $20 $13 $09 $20 $20 $20 $20 $20 $20 $20 $20 $20 $20 $20 $20 $20 $20 $20 $20 $20 $20 $20 $29 $72 $3D $17 $38 $01 $21 $26 $1C $10 $30 $0A $20 $20 $20 $20 $20 $20 $20 $19 $73 $3D $07 $7D $57 $4C $6B $61 $3B $5B $4F $70 $4A $20 $20 $20 $20 $20 $20 $20 $20 $20 $20 $20 $20 $20 $20 $20 $20 $20 $44 $0F $05 $5F $53 $73 $20 $20 $20 $20 $20 $20 $20 $20 $20 $20 $20 $20 $20 $20 $20 $20 $20 $20 $20 $20 $20 $20 $20 $21 $17 $38 $3C $30 $26 $1C $4B $14 $0A $00 $5A $78 $6E $0F $05 $07 $7D
6BC0                     BYT $73 $69 $16 $61 $20 $20 $20 $20 $20 $20 $20 $20 $20 $20 $20 $20 $20 $20 $20 $20 $20 $20 $20 $20 $20 $20 $20 $20 $20 $20 $20 $20 $20 $20 $20 $20 $20 $20 $20 $20 $20 $20 $20 $20 $20 $20 $20 $20 $20 $20 $20 $20 $20 $20 $20 $20 $20 $20 $20 $20 $20 $20 $20 $20 $7C $72 $68 $32 $60 $56 $4C $41 $60 $65 $5B $50 $20 $20 $20 $20 $20 $20 $23 $6E $37 $11 $32 $7D $46 $20 $16 $0C $2A $04 $7A $20 $20 $20 $20 $20 $20 $20 $20 $20 $20 $20 $20 $20 $20 $20 $20 $20 $20 $20 $45 $3B $05 $4F $20 $20 $20 $20 $20 $20 $20 $20 $20 $20 $20 $20 $20 $20 $20 $20 $20 $20 $20 $20 $20 $20 $20 $20 $20 $4D $43 $0C $57 $31 $52 $1B $66 $5C $36 $2A $4A $40 $1A $39 $2E $24
6C60                     BYT $29 $48 $12 $33 $20 $20 $20 $20 $20 $20 $20 $20 $20 $20 $20 $20 $20 $20 $20 $20 $20 $13 $20 $20 $20 $20 $20 $20 $20 $20 $20 $20 $20 $20 $20 $20 $20 $20 $20 $20 $20 $20 $20 $20 $20 $20 $20 $20 $20 $20 $20 $20 $20 $20 $20 $20 $20 $20 $20 $20 $20 $20 $20 $20 $20 $52 $56 $4A $40 $36 $01 $2E $24 $1A $10 $20 $20 $20 $20 $20 $20 $20 $03 $30 $7B $71 $67 $3F $5F $55 $76 $4E $6E $64 $20 $20 $20 $20 $20 $20 $20 $20 $20 $20 $20 $20 $20 $20 $20 $20 $20 $20 $20 $20 $20 $20 $20 $20 $20 $20 $20 $20 $20 $20 $20 $20 $20 $20 $20 $20 $20 $20 $20 $20 $20 $20 $20 $20 $20 $20 $20 $20 $20 $20 $4B $40 $1A $10 $5A $24 $7E $74 $69 $08 $0D $03 $78 $17 $71 $67
6D00                     BYT $79 $6D $47 $3D $20 $20 $20 $20 $20 $20 $20 $20 $20 $20 $20 $20 $20 $20 $20 $20 $19 $62 $2D $07 $7D $71 $20 $20 $20 $20 $20 $20 $20 $20 $20 $20 $20 $20 $20 $20 $20 $20 $20 $20 $20 $20 $20 $20 $20 $20 $20 $20 $0F $5A $23 $19 $20 $20 $20 $20 $20 $20 $20 $20 $20 $5C $25 $70 $66 $6B $34 $20 $75 $4F $20 $20 $20 $20 $20 $20 $20 $20 $20 $2B $4C $26 $70 $3A $30 $26 $20 $1E $14 $20 $20 $20 $20 $20 $20 $20 $20 $20 $20 $20 $20 $20 $20 $20 $20 $20 $20 $20 $20 $20 $20 $20 $20 $20 $20 $20 $20 $20 $20 $20 $20 $20 $20 $20 $20 $20 $20 $20 $20 $20 $20 $20 $20 $20 $20 $20 $20 $20 $20 $20 $20 $4A $6B $0B $63 $59 $4F $1A $47 $3D $33 $29 $2B $21 $42 $38
6DA0                     BYT $3A $30 $26 $1C $20 $20 $20 $20 $20 $20 $20 $20 $20 $20 $20 $20 $20 $20 $20 $57 $21 $4F $45 $66 $30 $5E $54 $4A $3F $20 $20 $20 $20 $20 $20 $20 $20 $20 $20 $20 $20 $20 $20 $20 $20 $20 $20 $20 $20 $20 $20 $78 $6E $37 $66 $5C $52 $20 $20 $20 $20 $20 $20 $20 $20 $20 $20 $33 $29 $73 $3D $17 $38 $02 $21 $20 $20 $20 $20 $20 $20 $20 $20 $0A $64 $2F $78 $19 $73 $3E $07 $7D $20 $20 $20 $20 $20 $20 $20 $20 $20 $20 $20 $20 $20 $20 $20 $20 $20 $20 $20 $20 $20 $20 $20 $20 $20 $20 $20 $20 $20 $20 $20 $20 $20 $20 $20 $20 $20 $20 $20 $59 $4F $29 $74 $3D $33 $20 $20 $20 $20 $20 $20 $20 $20 $20 $20 $20 $20 $20 $05 $4E $19 $0F $69 $5D $7D $73 $4D $6C
6E40                     BYT $61 $57 $78 $7B $20 $20 $20 $20 $20 $20 $20 $20 $20 $20 $20 $20 $20 $20 $33 $37 $2B $21 $17 $46 $0F $05 $7B $71 $73 $20 $20 $20 $20 $20 $20 $20 $20 $20 $20 $20 $20 $20 $20 $20 $20 $20 $20 $20 $20 $20 $29 $1F $69 $17 $38 $2E $78 $26 $20 $20 $20 $20 $20 $20 $20 $20 $20 $20 $25 $7D $73 $69 $34 $61 $20 $20 $20 $20 $20 $20 $20 $20 $20 $40 $36 $20 $2E $24 $1A $0E $12 $33 $20 $20 $20 $20 $20 $20 $20 $20 $20 $20 $20 $20 $20 $20 $20 $20 $20 $20 $20 $20 $20 $20 $20 $20 $20 $20 $20 $20 $20 $20 $20 $20 $20 $20 $20 $20 $20 $26 $44 $3A $14 $0A $53 $1E $78 $6E $20 $20 $20 $20 $20 $20 $20 $20 $20 $20 $20 $20 $20 $59 $33 $54 $1E $3D $5E $38 $2D $4C
6EE0                     BYT $42 $1C $3C $30 $20 $20 $20 $20 $20 $20 $20 $20 $20 $20 $20 $07 $7D $57 $78 $16 $0C $02 $5C $25 $70 $66 $40 $34 $20 $20 $20 $20 $20 $20 $20 $20 $39 $2F $20 $20 $20 $20 $20 $20 $20 $20 $1A $73 $12 $08 $7E $02 $76 $6C $62 $11 $5A $50 $71 $20 $20 $20 $20 $20 $20 $20 $20 $20 $20 $27 $48 $22 $6B $36 $20 $20 $20 $20 $20 $20 $20 $20 $20 $15 $18 $0D $03 $79 $27 $71 $67 $20 $20 $20 $20 $20 $20 $20 $20 $20 $20 $20 $20 $20 $20 $2C $22 $20 $20 $20 $20 $20 $20 $20 $20 $20 $20 $20 $20 $20 $20 $20 $20 $20 $20 $20 $20 $20 $58 $77 $50 $46 $67 $06 $34 $55 $4B $15 $43 $20 $20 $20 $20 $20 $20 $20 $20 $20 $20 $20 $20 $20 $06 $51 $1A $74 $6A $60 $7E $03
6F80                     BYT $79 $6F $0D $67 $5D $20 $20 $20 $20 $20 $20 $20 $50 $46 $3A $5A $34 $2A $49 $3E $18 $0E $58 $22 $27 $1D $67 $31 $0B $20 $20 $20 $20 $20 $20 $20 $53 $74 $14 $08 $7E $58 $23 $6C $62 $3C $32 $50 $46 $4B $41 $5F $55 $2F $25 $6E $39 $13 $09 $7D $20 $20 $20 $20 $20 $20 $20 $1B $10 $06 $60 $2A $74 $6A $6F $20 $20 $20 $20 $20 $20 $20 $37 $57 $4B $41 $46 $66 $2F $50 $20 $20 $20 $20 $20 $20 $20 $20 $20 $20 $20 $20 $20 $20 $40 $0B $01 $5B $20 $20 $20 $20 $20 $20 $20 $20 $20 $20 $20 $20 $20 $20 $20 $20 $0B $2A $4B $41 $0C $2B $21 $17 $1B $0F $05 $7B $2A $73 $69 $0A $20 $20 $20 $20 $20 $20 $20 $20 $20 $20 $20 $20 $57 $04 $4F $45 $3B $13 $33 $29
7020                     BYT $1F $22 $17 $38 $2E $31 $20 $20 $20 $20 $20 $20 $20 $6B $6E $64 $05 $7A $7D $73 $69 $09 $61 $57 $4D $18 $45 $3B $20 $20 $20 $20 $20 $20 $20 $20 $24 $1A $63 $12 $08 $29 $72 $21 $17 $0D $01 $05 $7B $71 $10 $69 $5F $00 $1F $78 $6E $64 $2E $78 $52 $20 $20 $20 $20 $20 $20 $20 $45 $3B $5B $4F $29 $1F $6A $33 $20 $20 $20 $20 $20 $20 $20 $20 $00 $76 $6C $35 $20 $20 $20 $20 $20 $20 $20 $20 $20 $20 $20 $20 $20 $20 $20 $71 $3B $40 $36 $00 $4A $24 $1A $0F $2E $24 $20 $20 $20 $20 $20 $20 $20 $20 $20 $20 $05 $7B $55 $4B $69 $5F $64 $5A $78 $6E $48 $3E $07 $52 $48 $22 $20 $20 $20 $20 $20 $20 $20 $20 $20 $20 $20 $20 $43 $0D $03 $08 $52 $1C $12 $6C
70C0                     BYT $61 $00 $76 $6C $70 $64 $20 $20 $20 $20 $20 $20 $20 $20 $4D $43 $1D $3B $31 $27 $2C $4A $40 $36 $10 $59 $24 $1A $20 $20 $20 $20 $20 $20 $20 $20 $03 $06 $7B $71 $67 $15 $5F $55 $76 $24 $43 $64 $5A $33 $52 $48 $3E $42 $36 $2C $22 $6D $1A $3B $31 $7C $20 $20 $20 $20 $20 $20 $20 $0C $0E $59 $7A $20 $20 $20 $20 $20 $20 $20 $20 $20 $20 $20 $20 $20 $20 $20 $20 $20 $20 $20 $20 $20 $20 $20 $20 $20 $20 $20 $20 $20 $22 $7A $70 $66 $31 $7A $54 $75 $40 $09 $63 $59 $20 $20 $20 $20 $20 $20 $20 $20 $20 $20 $3A $30 $26 $1A $1E $14 $0A $29 $1E $78 $19 $38 $2D $07 $7D $47 $11 $20 $20 $20 $20 $20 $20 $20 $20 $20 $20 $20 $68 $42 $38 $03 $4C $42 $1C $12
7160                     BYT $30 $51 $2B $21 $3F $35 $20 $20 $20 $20 $20 $20 $20 $20 $20 $78 $6C $0C $66 $5C $7B $70 $4A $6B $0A $54 $75 $4F $19 $20 $20 $20 $20 $20 $20 $17 $37 $2B $4C $26 $46 $3A $30 $0A $55 $1E $14 $6E $64 $02 $78 $19 $73 $11 $07 $7D $57 $20 $6B $61 $3B $2F $4F $20 $20 $20 $20 $20 $20 $20 $42 $38 $20 $20 $20 $20 $20 $20 $20 $20 $20 $20 $20 $20 $20 $20 $20 $20 $20 $20 $20 $20 $20 $20 $20 $20 $20 $20 $20 $20 $20 $61 $63 $59 $4F $45 $72 $3D $33 $29 $01 $21 $17 $38 $20 $20 $20 $20 $20 $20 $20 $20 $20 $20 $6E $0F $59 $07 $7D $73 $68 $6B $61 $57 $77 $4F $45 $3B $06 $33 $54 $4A $15 $20 $20 $20 $20 $20 $20 $20 $20 $20 $2B $21 $17 $60 $0F $05 $7B $6F
7200                     BYT $2B $46 $37 $7B $55 $70 $20 $20 $20 $20 $20 $20 $20 $20 $20 $20 $20 $3F $5A $75 $38 $67 $05 $20 $39 $53 $20 $20 $20 $20 $20 $20 $20 $20 $20 $20 $20 $76 $3B $15 $30 $74 $63 $3D $58 $72 $0B $26 $00 $70 $33 $4E $28 $39 $1C $71 $58 $03 $19 $27 $3F $56 $13 $1C $20 $20 $20 $20 $20 $20 $20 $20 $20 $20 $20 $20 $20 $20 $20 $20 $20 $20 $20 $20 $20 $20 $20 $20 $20 $20 $20 $20 $20 $20 $20 $20 $20 $20 $20 $20 $77 $65 $2A $1A $1F $63 $4B $3B $56 $20 $20 $20 $20 $20 $20 $20 $20 $20 $20 $20 $20 $20 $20 $20 $76 $66 $15 $03 $1E $0E $68 $56 $1B $20 $20 $54 $43 $5E $20 $20 $20 $20 $20 $20 $20 $20 $20 $20 $20 $20 $20 $20 $20 $20 $6F $0A $0E $27 $17 $32
72A0                     BYT $4D $4F $3F $5A $20 $20 $20 $20 $20 $20 $20 $20 $20 $20 $20 $20 $20 $20 $0A $7A $6A $05 $49 $77 $12 $2D $47 $1F $20 $20 $20 $20 $20 $20 $20 $06 $0A $25 $15 $04 $32 $4D $3D $02 $5A $4A $65 $00 $43 $72 $0D $28 $54 $17 $43 $62 $18 $2A $3D $16 $0F $45 $21 $67 $10 $20 $20 $20 $20 $20 $20 $20 $20 $20 $20 $20 $20 $20 $20 $20 $20 $20 $20 $20 $20 $20 $20 $20 $20 $20 $20 $20 $20 $20 $20 $20 $20 $20 $20 $66 $00 $5A $75 $64 $28 $02 $1D $62 $50 $40 $20 $20 $20 $20 $20 $20 $20 $20 $20 $20 $20 $20 $20 $20 $1D $60 $7C $56 $71 $5F $24 $14 $19 $5E $4D $3D $42 $5C $75 $65 $20 $20 $20 $20 $20 $20 $20 $20 $20 $20 $20 $20 $20 $53 $18 $06 $21 $11 $16 $59
7340                     BYT $49 $3B $15 $20 $20 $20 $20 $20 $20 $20 $20 $20 $20 $20 $20 $20 $20 $20 $76 $50 $14 $03 $1E $0E $12 $2B $1B $36 $10 $20 $20 $20 $20 $20 $20 $06 $21 $4F $13 $2E $49 $4D $3B $56 $46 $61 $0E $7E $6E $09 $0C $28 $88 $87 $87 $89 $64 $35 $91 $20 $20 $88 $87 $87 $89 $11 $20 $20 $20 $20 $20 $20 $20 $20 $20 $20 $20 $20 $20 $20 $20 $20 $20 $20 $20 $20 $20 $20 $20 $20 $20 $20 $20 $20 $20 $20 $20 $20 $5B $4C $67 $01 $04 $74 $0F $20 $42 $1C $37 $52 $41 $20 $20 $20 $20 $20 $20 $20 $20 $20 $20 $20 $20 $7A $54 $44 $5F $78 $7C $6C $07 $76 $3A $14 $2F $74 $62 $3C $57 $72 $35 $20 $20 $20 $20 $20 $20 $20 $20 $20 $20 $20 $30 $73 $0E $68 $03 $71 $38 $12
73E0                     BYT $2D $71 $60 $20 $20 $20 $20 $20 $20 $20 $20 $20 $20 $20 $20 $20 $20 $20 $2C $70 $0B $65 $2A $18 $33 $0D $28 $20 $20 $20 $20 $20 $20 $20 $20 $5A $73 $0E $68 $58 $1B $36 $51 $2B $19 $5E $79 $53 $17 $06 $20 $20 $87 $8A $8A $87 $20 $97 $20 $98 $20 $87 $8A $8A $87 $20 $16 $20 $20 $20 $20 $20 $20 $20 $20 $20 $20 $20 $20 $20 $20 $20 $20 $20 $20 $20 $20 $20 $20 $20 $20 $20 $20 $20 $20 $20 $20 $20 $20 $4B $64 $20 $20 $20 $0C $27 $17 $32 $0A $24 $3F $5A $20 $20 $20 $20 $20 $20 $20 $20 $20 $20 $37 $52 $42 $45 $5F $7A $6A $04 $07 $77 $12 $61 $20 $20 $3A $55 $02 $47 $62 $7D $20 $20 $20 $20 $20 $20 $20 $20 $20 $01 $5B $4B $66 $20 $03 $73 $0E $7D
7480                     BYT $2B $1B $36 $20 $20 $20 $20 $20 $20 $20 $20 $20 $20 $20 $20 $20 $20 $51 $56 $46 $36 $79 $53 $6E $09 $77 $20 $20 $20 $20 $20 $20 $20 $20 $20 $20 $01 $71 $34 $0E $29 $19 $32 $4C $26 $41 $30 $20 $9B $87 $9C $20 $87 $8B $8C $87 $20 $91 $80 $91 $20 $87 $8B $8C $87 $20 $9B $87 $20 $20 $20 $20 $20 $20 $20 $20 $20 $20 $20 $20 $20 $20 $20 $20 $20 $20 $20 $20 $20 $20 $20 $20 $20 $20 $20 $20 $20 $20 $20 $20 $20 $20 $20 $20 $20 $0E $27 $41 $5C $36 $25 $69 $20 $20 $20 $20 $20 $20 $20 $20 $20 $20 $1E $62 $51 $6C $07 $60 $6B $08 $71 $4B $9B $87 $9C $20 $20 $51 $41 $5C $0A $4E $20 $20 $20 $20 $20 $20 $20 $20 $57 $47 $37 $47 $61 $7C $6C $45 $09 $24
7520                     BYT $14 $43 $31 $20 $20 $20 $20 $20 $20 $20 $20 $20 $20 $61 $60 $58 $48 $4F $3F $41 $5C $77 $67 $3F $04 $74 $0F $20 $20 $20 $20 $20 $20 $20 $20 $20 $9B $6C $07 $22 $3B $14 $2F $1F $39 $3C $20 $20 $20 $87 $20 $20 $8D $80 $80 $8E $20 $20 $93 $20 $20 $8D $80 $80 $8E $20 $20 $87 $20 $20 $20 $20 $20 $20 $20 $20 $20 $20 $20 $20 $20 $20 $20 $20 $20 $20 $20 $20 $20 $20 $20 $20 $20 $20 $20 $20 $20 $20 $20 $20 $20 $20 $20 $20 $20 $1E $78 $13 $2D $46 $20 $20 $20 $20 $20 $20 $20 $20 $20 $20 $7C $6B $2F $34 $24 $69 $57 $72 $4C $67 $2A $20 $20 $87 $20 $20 $20 $20 $20 $20 $20 $20 $20 $20 $20 $20 $20 $20 $70 $42 $45 $58 $39 $12 $26 $62 $7B $16 $70 $60
75C0                     BYT $23 $3E $2E $20 $20 $20 $20 $20 $20 $20 $20 $20 $12 $6C $74 $39 $2F $71 $4F $6A $44 $5D $77 $12 $6C $5B $1F $3A $20 $20 $20 $20 $20 $20 $20 $20 $20 $87 $20 $20 $20 $40 $19 $32 $4D $20 $20 $20 $20 $87 $20 $20 $8F $92 $92 $90 $20 $20 $80 $20 $20 $8F $92 $92 $90 $20 $20 $87 $20 $20 $20 $20 $20 $20 $20 $20 $20 $20 $20 $20 $20 $20 $20 $20 $20 $20 $20 $20 $20 $20 $20 $20 $20 $20 $20 $20 $20 $20 $20 $20 $20 $20 $20 $20 $20 $77 $3C $14 $04 $1F $20 $20 $20 $20 $20 $20 $20 $20 $20 $9B $87 $9C $32 $77 $65 $3F $5A $20 $20 $20 $20 $20 $20 $87 $20 $20 $20 $20 $20 $20 $20 $20 $20 $20 $20 $20 $20 $20 $20 $20 $20 $20 $20 $20 $20 $20 $4C $67 $2A $1A
7660                     BYT $74 $0F $20 $20 $20 $20 $20 $20 $20 $20 $56 $32 $21 $49 $43 $29 $3B $4A $50 $66 $55 $2F $4A $67 $00 $1B $75 $20 $20 $20 $20 $20 $20 $20 $20 $20 $20 $87 $20 $20 $20 $20 $20 $20 $20 $20 $20 $20 $20 $87 $20 $20 $90 $90 $8F $8F $20 $20 $20 $20 $20 $90 $90 $8F $8F $20 $20 $87 $20 $20 $20 $20 $20 $20 $20 $20 $20 $20 $20 $20 $20 $20 $20 $20 $20 $20 $20 $20 $20 $20 $20 $20 $20 $20 $20 $20 $20 $20 $20 $20 $20 $20 $20 $13 $42 $67 $1C $37 $20 $20 $20 $20 $20 $20 $20 $20 $20 $20 $20 $20 $87 $20 $20 $20 $20 $20 $20 $20 $20 $20 $20 $20 $20 $87 $20 $20 $20 $20 $20 $20 $20 $20 $20 $20 $20 $20 $20 $20 $20 $20 $20 $20 $20 $20 $20 $20 $07 $77 $12 $02
7700                     BYT $38 $11 $20 $20 $20 $20 $20 $20 $20 $20 $20 $20 $50 $40 $30 $20 $28 $38 $20 $20 $9B $87 $9C $20 $20 $20 $20 $20 $20 $20 $20 $20 $20 $20 $20 $20 $20 $87 $20 $20 $20 $20 $20 $20 $20 $20 $20 $20 $20 $87 $20 $20 $94 $95 $95 $96 $20 $88 $87 $89 $20 $94 $95 $95 $96 $20 $20 $87 $20 $20 $20 $20 $20 $20 $20 $20 $20 $20 $20 $20 $20 $20 $20 $20 $20 $20 $20 $20 $20 $20 $20 $20 $20 $20 $20 $20 $20 $20 $20 $20 $20 $20 $20 $9B $87 $9C $20 $20 $20 $20 $20 $20 $20 $20 $20 $20 $20 $20 $20 $20 $87 $20 $20 $20 $20 $20 $20 $20 $20 $20 $20 $20 $20 $87 $20 $20 $20 $20 $20 $20 $20 $20 $20 $20 $20 $20 $20 $20 $20 $20 $20 $20 $20 $20 $20 $20 $6E $09 $0C $7B
77A0                     BYT $16 $20 $20 $20 $20 $20 $20 $20 $20 $20 $20 $20 $20 $20 $20 $20 $20 $20 $20 $20 $20 $87 $20 $20 $20 $20 $20 $20 $20 $20 $20 $20 $20 $20 $20 $20 $20 $87 $20 $20 $20 $20 $20 $20 $20 $20 $20 $20 $20 $87 $20 $20 $97 $87 $87 $98 $88 $87 $20 $87 $89 $97 $87 $87 $98 $20 $20 $87 $20 $20 $20 $20 $20 $20 $20 $20 $20 $20 $20 $20 $20 $20 $20 $20 $20 $20 $20 $20 $20 $20 $20 $20 $20 $20 $20 $20 $20 $20 $20 $20 $20 $20 $20 $20 $87 $20 $20 $20 $20 $20 $20 $20 $20 $20 $20 $20 $20 $20 $20 $20 $87 $20 $20 $20 $20 $20 $20 $20 $20 $20 $20 $20 $20 $87 $20 $20 $20 $20 $20 $20 $20 $20 $20 $20 $20 $20 $20 $20 $20 $20 $20 $20 $20 $20 $20 $20 $20 $60 $7B $55
7840                     BYT $1A $20 $20 $20 $20 $20 $20 $20 $20 $20 $20 $20 $20 $20 $20 $20 $20 $20 $20 $20 $20 $87 $20 $20 $20 $20 $20 $20 $20 $20 $20 $20 $20 $20 $20 $20 $20 $87 $20 $20 $20 $20 $20 $20 $20 $20 $20 $20 $20 $87 $20 $20 $99 $87 $87 $9A $87 $20 $20 $20 $87 $99 $87 $87 $9A $20 $20 $87 $20 $20 $20 $20 $20 $20 $20 $20 $20 $20 $20 $20 $20 $20 $20 $20 $20 $20 $20 $20 $20 $20 $20 $20 $20 $20 $20 $20 $20 $20 $20 $20 $20 $20 $20 $20 $87 $20 $20 $20 $20 $20 $20 $20 $20 $20 $20 $20 $20 $20 $20 $20 $87 $20 $20 $20 $20 $20 $20 $20 $20 $20 $20 $20 $20 $87 $20 $20 $20 $20 $20 $20 $20 $20 $20 $20 $20 $20 $20 $20 $20 $20 $20 $20 $20 $20 $20 $20 $20 $20 $34 $22
78E0                     BYT $7C $6C $20 $20 $20 $20 $20 $20 $20 $20 $20 $20 $20 $20 $20 $20 $20 $20 $20 $20 $20 $87 $20 $20 $20 $20 $20 $20 $20 $20 $20 $20 $20 $20 $20 $20 $20 $87 $20 $20 $20 $20 $20 $20 $20 $20 $20 $20 $20 $87 $20 $20 $20 $80 $80 $20 $9B $87 $20 $87 $9C $20 $80 $80 $20 $20 $20 $87 $20 $20 $20 $20 $20 $20 $20 $20 $20 $20 $20 $20 $20 $20 $20 $20 $20 $20 $20 $20 $20 $20 $20 $20 $20 $20 $20 $20 $20 $20 $20 $20 $20 $20 $20 $20 $87 $20 $20 $20 $20 $20 $20 $20 $20 $20 $20 $20 $20 $B0 $20 $20 $87 $20 $20 $20 $20 $20 $20 $20 $20 $20 $20 $20 $20 $87 $20 $20 $20 $20 $20 $20 $20 $20 $20 $20 $20 $20 $20 $20 $20 $20 $20 $20 $20 $20 $20 $20 $20 $20 $5B $76
7980                     BYT $66 $3E $03 $20 $20 $20 $20 $20 $20 $20 $20 $20 $20 $20 $20 $20 $20 $20 $20 $20 $20 $87 $20 $20 $20 $20 $20 $20 $20 $20 $20 $20 $20 $20 $20 $20 $20 $87 $20 $20 $20 $20 $20 $20 $20 $20 $20 $20 $20 $87 $20 $20 $20 $90 $8F $20 $20 $9B $87 $9C $20 $20 $90 $8F $20 $20 $20 $87 $20 $20 $20 $20 $20 $20 $20 $20 $20 $20 $20 $20 $20 $20 $20 $20 $20 $20 $20 $20 $20 $20 $20 $20 $20 $20 $20 $20 $20 $20 $20 $20 $20 $20 $20 $20 $87 $20 $20 $20 $20 $20 $20 $20 $20 $20 $20 $20 $20 $20 $20 $20 $87 $20 $20 $20 $20 $20 $20 $20 $20 $20 $20 $20 $20 $87 $20 $20 $20 $20 $20 $20 $20 $20 $20 $20 $20 $20 $20 $20 $20 $20 $20 $20 $20 $20 $20 $20 $20 $5A $34 $4D
7A20                     BYT $67 $02 $1D $20 $20 $20 $20 $20 $20 $20 $20 $20 $20 $20 $20 $20 $20 $20 $20 $20 $20 $87 $20 $20 $20 $20 $20 $20 $20 $20 $20 $20 $20 $20 $20 $20 $20 $87 $20 $20 $20 $20 $20 $20 $20 $20 $20 $20 $20 $87 $20 $20 $20 $90 $8F $20 $20 $20 $20 $20 $20 $20 $90 $8F $20 $20 $20 $87 $20 $20 $20 $20 $20 $20 $F8 $F0 $20 $20 $20 $20 $20 $20 $FC $FF $20 $20 $20 $20 $20 $20 $20 $20 $20 $20 $20 $20 $20 $20 $20 $20 $20 $20 $20 $20 $87 $20 $20 $20 $20 $20 $20 $20 $20 $20 $20 $20 $1B $36 $26 $88 $87 $89 $20 $20 $20 $20 $20 $20 $20 $20 $20 $20 $20 $87 $20 $20 $20 $20 $20 $20 $20 $20 $20 $20 $20 $20 $20 $20 $20 $20 $20 $20 $20 $20 $20 $20 $44 $5D $79 $69
7AC0                     BYT $43 $5D $76 $20 $20 $20 $20 $20 $20 $20 $20 $20 $20 $20 $20 $20 $20 $20 $20 $20 $20 $87 $20 $20 $20 $20 $20 $20 $20 $20 $20 $20 $20 $20 $20 $20 $88 $87 $89 $20 $20 $20 $20 $20 $20 $20 $20 $20 $88 $5C $4C $67 $88 $87 $87 $89 $88 $87 $87 $87 $89 $88 $87 $87 $89 $20 $20 $87 $20 $20 $20 $20 $20 $FA $F1 $F9 $FC $20 $20 $20 $20 $FA $FD $F0 $F3 $20 $20 $20 $20 $20 $20 $20 $20 $20 $20 $20 $20 $20 $20 $20 $20 $20 $20 $88 $87 $89 $20 $20 $20 $20 $20 $20 $20 $20 $20 $48 $38 $3A $55 $45 $60 $79 $7D $20 $20 $20 $20 $20 $20 $20 $20 $20 $88 $87 $89 $20 $20 $20 $20 $20 $20 $20 $20 $20 $20 $20 $20 $20 $20 $20 $20 $20 $20 $20 $20 $73 $21 $3C $57 $71
7B60                     BYT $0A $64 $7F $20 $20 $20 $20 $20 $20 $20 $20 $20 $20 $20 $20 $20 $20 $20 $20 $20 $88 $20 $89 $20 $20 $20 $20 $20 $20 $20 $20 $20 $20 $20 $20 $20 $1C $37 $25 $6A $44 $20 $20 $20 $20 $20 $20 $20 $55 $2F $30 $41 $52 $33 $44 $55 $28 $36 $45 $62 $5A $3B $42 $3C $49 $37 $47 $54 $89 $20 $20 $20 $FC $F6 $F9 $F3 $FD $F0 $20 $20 $F6 $F9 $FC $FF $F2 $F5 $20 $20 $20 $34 $67 $1D $45 $18 $6F $0A $20 $20 $20 $20 $20 $20 $20 $5A $4A $24 $13 $20 $20 $20 $20 $20 $20 $20 $20 $53 $43 $5E $38 $51 $6B $06 $76 $20 $20 $20 $20 $20 $20 $20 $20 $20 $0E $53 $6E $0B $20 $20 $20 $20 $20 $20 $20 $20 $20 $20 $20 $20 $20 $20 $20 $20 $20 $4A $39 $29 $44 $09 $61 $51
7C00                     BYT $5E $79 $7B $30 $67 $42 $4C $56 $20 $20 $A9 $20 $20 $20 $20 $20 $A9 $20 $20 $20 $34 $56 $28 $54 $20 $20 $20 $20 $20 $A9 $20 $20 $20 $20 $20 $19 $32 $36 $51 $41 $30 $5E $20 $20 $A9 $20 $20 $20 $2C $6F $1E $39 $54 $6D $46 $61 $7C $6B $2F $09 $24 $69 $57 $31 $56 $28 $33 $17 $45 $20 $20 $A9 $F2 $FC $F6 $F9 $F3 $F6 $F7 $FA $FA $FD $F0 $F3 $F6 $F9 $76 $65 $29 $2E $1E $63 $51 $6D $47 $62 $20 $20 $20 $20 $20 $A9 $46 $23 $22 $66 $01 $5B $20 $20 $A9 $20 $20 $20 $20 $2C $1C $60 $4F $6C $46 $60 $79 $56 $20 $20 $A9 $20 $20 $20 $20 $16 $54 $59 $1D $0C $20 $20 $20 $20 $20 $A9 $20 $20 $20 $20 $20 $20 $A9 $20 $20 $20 $1D $38 $12 $57 $45 $60 $50 $2A
7CA0                     BYT $18 $5F $7A $54 $A0 $A8 $AA $A8 $A8 $A8 $A8 $A8 $AA $A8 $A8 $A8 $A8 $A2 $1B $36 $26 $54 $43 $33 $A0 $A8 $A8 $AA $A8 $A8 $A8 $A8 $A2 $39 $11 $2B $46 $61 $0F $53 $6E $09 $0D $A0 $AA $A8 $A8 $A2 $37 $27 $42 $45 $5F $4F $6A $04 $5C $77 $12 $20 $30 $56 $46 $2E $40 $A0 $A8 $A8 $A8 $A8 $A2 $7A $3F $FA $FD $F5 $F8 $3F $2F $FB $FE $FE $F1 $F4 $F7 $7C $7F $1A $35 $7A $27 $42 $5D $4D $3B $6A $A0 $A8 $A8 $A8 $A8 $A8 $A2 $2C $1C $37 $28 $6B $45 $A0 $A8 $A8 $A2 $08 $23 $67 $56 $30 $A1 $65 $53 $58 $48 $63 $A0 $A8 $AA $A8 $A8 $A8 $A2 $36 $25 $69 $43 $5E $23 $A0 $A8 $A8 $A8 $A8 $AA $A8 $A8 $A8 $A8 $A8 $A8 $AA $A2 $53 $6E $5E $21 $3C $16 $31 $1F $64
7D40                     BYT $3E $59 $1D $0C $66 $01 $A0 $A8 $A8 $A8 $A8 $A8 $A8 $A8 $A8 $A2 $74 $0F $69 $58 $1C $37 $11 $56 $44 $A0 $A8 $A8 $A8 $A8 $A8 $A2 $15 $04 $1F $79 $13 $2C $47 $21 $11 $54 $6F $0A $A0 $A8 $A8 $A2 $0D $51 $40 $5B $35 $4F $68 $58 $73 $4D $10 $00 $1B $75 $0E $28 $45 $1F $A0 $A8 $A8 $A8 $A8 $A2 $18 $33 $F8 $FB $40 $30 $4C $4F $F1 $F4 $F4 $F7 $11 $02 $1D $4C $0F $2A $48 $63 $10 $55 $70 $0B $0E $A0 $A8 $A8 $A8 $A2 $40 $30 $4B $4D $68 $58 $73 $4B $65 $00 $1B $49 $0D $28 $43 $08 $35 $50 $6B $5B $08 $78 $13 $03 $A0 $A8 $A8 $A2 $45 $48 $38 $53 $43 $70 $60 $7B $16 $A0 $A8 $A8 $A8 $A8 $A8 $A8 $A8 $A8 $A8 $A2 $63 $7E $41 $1B $0B $26 $3F $43 $33 $4E
7DE0                     BYT $3D $40 $5B $76 $3B $29 $03 $1E $A0 $A8 $A8 $A8 $A8 $A2 $53 $6E $5E $78 $11 $16 $06 $76 $39 $13 $2E $49 $A0 $A8 $A8 $A8 $A2 $26 $72 $0D $27 $41 $1B $37 $27 $6A $5A $34 $4F $68 $A0 $A8 $A8 $A2 $2B $05 $A8 $65 $53 $6E $48 $65 $21 $11 $6B $06 $1F $39 $13 $03 $1D $36 $51 $A0 $A8 $A8 $A2 $53 $6E $5C $21 $7B $16 $5B $4A $65 $3F $59 $72 $0D $67 $57 $1A $0A $0F $7F $18 $32 $4D $27 $16 $5A $75 $4F $A0 $A8 $A2 $39 $13 $56 $46 $61 $3C $55 $6F $5F $64 $53 $17 $07 $22 $51 $3F $2F $4A $24 $12 $57 $72 $4C $10 $7F $1A $A0 $A2 $27 $42 $32 $0C $4F $6A $5A $5F $4D $67 $02 $A0 $A8 $A8 $A8 $A8 $A8 $A8 $A2 $56 $47 $0A $7A $15 $05 $08 $22 $3D $2D $06 $4A
                 ;
                 ;   Map end
                 ;
                 ;________________________________________
7E80  3A                 BYT $3A             ; 58       :
7E81  55                 BYT $55             ; 85       U
7E82  45                 BYT $45             ; 69       E
7E83  72                 BYT $72             ; 114      GFX
7E84  62                 BYT $62             ; 98       GFX
7E85  7D                 BYT $7D
7E86  18                 BYT $18
7E87  45                 BYT $45
7E88  0A                 BYT $0A
7E89  25                 BYT $25             ; 37       %
7E8A  40                 BYT $40             ; 64       GFX
                 ;________________________________________
7E8B  43                 BYT $43             ; 67       C
7E8C  32                 BYT $32             ; 50       2
7E8D  4D                 BYT $4D             ; 77       M
7E8E  68                 BYT $68             ; 104      GFX
7E8F  02                 BYT $02             ; 2        b
7E90  5A                 BYT $5A             ; 90       Z
7E91  75                 BYT $75
7E92  10                 BYT $10
7E93  00                 BYT $00             ; 0         
7E94  02                 BYT $02             ; 2        b
7E95  1D                 BYT $1D
7E96  0D                 BYT $0D
7E97  28                 BYT $28
7E98  00                 BYT $00
7E99  45                 BYT $45
7E9A  35                 BYT $35
7E9B  50                 BYT $50
7E9C  3F                 BYT $3F
7E9D  6D                 BYT $6D
7E9E  5D                 BYT $5D
7E9F  78                 BYT $78
7EA0  3D                 BYT $3D
7EA1  6A                 BYT $6A
7EA2  05                 BYT $05
7EA3  20                 BYT $20
7EA4  3B                 BYT $3B
7EA5  3D                 BYT $3D
7EA6  2D                 BYT $2D             ; 45       -
7EA7  48                 BYT $48             ; 72       H
7EA8  63                 BYT $63             ; 99       GFX
7EA9  7C                 BYT $7C             ; 124      GFX
7EAA  55                 BYT $55
7EAB  70                 BYT $70
7EAC  60                 BYT $60
7EAD  7A                 BYT $7A             ; 122      GFX
7EAE  7D                 BYT $7D
7EAF  18                 BYT $18
7EB0  08                 BYT $08
7EB1  78                 BYT $78             ; 120      GFX
7EB2  3B                 BYT $3B             ; 59       ;
7EB3  40                 BYT $40
7EB4  30                 BYT $30
7EB5  4B                 BYT $4B
7EB6  39                 BYT $39             ; 57       9
7EB7  3D                 BYT $3D             ; 61       =
7EB8  58                 BYT $58             ; 88       X
7EB9  73                 BYT $73             ; 115      GFX
7EBA  37                 BYT $37             ; 55       7
7EBB  65                 BYT $65
7EBC  00                 BYT $00
7EBD  1D                 BYT $1D
7EBE  37                 BYT $37
7EBF  50                 BYT $50
7EC0  2A                 BYT $2A
7EC1  45                 BYT $45
7EC2  36                 BYT $36
7EC3  79                 BYT $79
7EC4  53                 BYT $53
7EC5  6E                 BYT $6E
7EC6  5E                 BYT $5E
7EC7  77                 BYT $77
7EC8  7B                 BYT $7B
7EC9  16                 BYT $16
7ECA  06                 BYT $06
7ECB  75                 BYT $75             ; 117      GFX
7ECC  39                 BYT $39             ; 57       9
7ECD  13                 BYT $13             ; 19       s
7ECE  2E                 BYT $2E
7ECF  73                 BYT $73
                 ;________________________________________
                 ;
                 ;   Song no. 11 data
                 ;
7ED0                     BYT $E0, $00, $30, $00, $00, $00
7ED6                     BYT $00, $00, $00, $00, $00, $00
7EDC                     BYT $00, $00, $00, $00, $00, $00
7EE2                     BYT $00, $00, $00, $00, $00, $00
7EE8                     BYT $00, $00, $00, $00, $00, $00
7EEE                     BYT $00, $00, $00, $00, $00, $00
7EF4                     BYT $00, $00, $00, $00, $00, $00
7EFA                     BYT $00, $00, $00, $00, $00, $FF
                 ;________________________________________
7F00  A5 2F      L01065  LDA $2F
7F02  C9 14              CMP #$14            ; LEFT + FIRE?
7F04  D0 08              BNE L01067
7F06  AD 02 D0           LDA $D002           ; SPRITE 1 X POS
7F09  E9 18              SBC #$18
7F0B  4C 1A 7F           JMP L01070
7F0E  C9 18      L01067  CMP #$18            ; RIGHT + FIRE?
7F10  F0 03      L01068  BEQ L01069
7F12  4C CA 11           JMP L00110
7F15  AD 02 D0   L01069  LDA $D002           ; SPRITE 1 X POS
7F18  69 18              ADC #$18
7F1A  8D 06 D0   L01070  STA $D006           ; SPRITE 3 X POS
7F1D  AD 03 D0           LDA $D003           ; SPRITE 1 Y POS
7F20  8D 07 D0           STA $D007           ; SPRITE 3 Y POS
7F23  AD 17 D0           LDA $D017           ; EXPAND SPRITE IN Y-DIR.
7F26  29 F7              AND #$F7            ; BIT 3 OFF
7F28  8D 17 D0           STA $D017
7F2B  AD 1B D0           LDA $D01B           ; SPRITE-BACKGROUND PRIORITY
7F2E  09 08              ORA #$08            ; BIT 3 ON
7F30  8D 1B D0           STA $D01B
7F33  AD 10 D0           LDA $D010
7F36  29 04              AND #$04            ; IF NOT BIT 2 OFF
7F38  D0 08              BNE L01071
7F3A  AD 10 D0           LDA $D010
7F3D  29 F7              AND #$F7
7F3F  4C 47 7F           JMP L01072
7F42  AD 10 D0   L01071  LDA $D010
7F45  09 08              ORA #$08            ; BIT 3 ON
7F47  8D 10 D0   L01072  STA $D010
7F4A  A9 CF              LDA #$CF            ; Gunshot
7F4C  8D FB 07           STA $07FB           ; SPRITE 3 PTR
7F4F  A9 01              LDA #$01            ; WHITE
7F51  8D 2A D0           STA $D02A           ; SPRITE 3 COLOR
7F54  AD 15 D0           LDA $D015           ; SPRITE DISPLAY
7F57  09 08              ORA #$08            ; BIT 3 ON
7F59  8D 15 D0           STA $D015
7F5C  A9 81              LDA #$81            ; ENABLE
7F5E  8D 04 D4           STA $D404           ; VOICE 1
7F61  8D 0B D4           STA $D40B           ; VOICE 2
7F64  8D 12 D4           STA $D412           ; VOICE 3
7F67  20 95 9F           JSR L01569
7F6A  A9 C0              LDA #$C0
7F6C  85 12              STA $12
7F6E  A9 00              LDA #$00            ; BLACK
7F70  8D 2A D0           STA $D02A           ; SPRITE 3 COLOR
7F73  A5 2F      L01073  LDA $2F
7F75  C9 14              CMP #$14
7F77  D0 0B              BNE L01074
7F79  CE 06 D0           DEC $D006           ; SPRITE 3 X POS
7F7C  D0 0E              BNE L01075
7F7E  20 D0 7F           JSR L01078
7F81  4C 8C 7F           JMP L01075
7F84  EE 06 D0   L01074  INC $D006           ; SPRITE 3 X POS
7F87  D0 03              BNE L01075
7F89  20 D0 7F           JSR L01078
7F8C  20 9A 9F   L01075  JSR L01570
7F8F  AD 1E D0           LDA $D01E           ; SPRITE-SPRITE COLLISION
7F92  29 68              AND #$68
7F94  C9 28              CMP #$28
7F96  F0 1E              BEQ L01077
7F98  C9 48              CMP #$48
7F9A  F0 1A              BEQ L01077
7F9C  C6 12              DEC $12
7F9E  D0 D3              BNE L01073
7FA0  AD 15 D0           LDA $D015           ; SPRITE DISPLAY
7FA3  29 F7              AND #$F7            ; BIT 3 OFF
7FA5  8D 15 D0           STA $D015
7FA8  A9 11      L01076  LDA #$11            ; ENABLE
7FAA  8D 04 D4           STA $D404           ; VOICE 1
7FAD  8D 0B D4           STA $D40B           ; VOICE 2
7FB0  8D 12 D4           STA $D412           ; VOICE 3
7FB3  4C 9F 10           JMP L00086
7FB6  A9 0A      L01077  LDA #$0A            ; LIGHT RED
7FB8  8D 2A D0           STA $D02A           ; SPRITE 3 COLOR
7FBB  20 95 9F           JSR L01569
7FBE  AD 15 D0           LDA $D015           ; SPRITE DISPLAY
7FC1  29 87              AND #$87            ; BIT 3 4 5 6 OFF
7FC3  8D 15 D0           STA $D015
7FC6  AD 1E D0           LDA $D01E           ; SPRITE-SPRITE COLLISION
7FC9  4C A8 7F           JMP L01076
                 ;________________________________________
7FCC  EA                 NOP
7FCD  EA                 NOP
7FCE  EA                 NOP
7FCF  EA                 NOP
7FD0  AD 10 D0   L01078  LDA $D010
7FD3  29 08              AND #$08            ; IF NOT BIT 3 OFF
7FD5  D0 08              BNE L01079
7FD7  AD 10 D0           LDA $D010
7FDA  09 08              ORA #$08
7FDC  4C E4 7F           JMP L01080
7FDF  AD 10 D0   L01079  LDA $D010
7FE2  29 F7              AND #$F7            ; BIT 3 OFF
7FE4  8D 10 D0   L01080  STA $D010
7FE7  60                 RTS
                 ;________________________________________
7FE8  00                 BYT $00
7FE9  00                 BYT $00
7FEA  00                 BYT $00
7FEB  00                 BYT $00
7FEC  00                 BYT $00
7FED  00                 BYT $00
7FEE  00                 BYT $00
7FEF  00                 BYT $00
7FF0  00                 BYT $00
7FF1  00                 BYT $00
7FF2  00                 BYT $00
7FF3  00                 BYT $00
7FF4  00                 BYT $00
7FF5  00                 BYT $00
7FF6  00                 BYT $00
7FF7  00                 BYT $00
7FF8  00                 BYT $00
7FF9  00                 BYT $00
7FFA  00                 BYT $00
7FFB  00                 BYT $00
7FFC  00                 BYT $00
7FFD  00                 BYT $00
7FFE  00                 BYT $00
7FFF  00                 BYT $00
                 ;________________________________________
                 ;
                 ;   Interrupt routine
                 ;
8000  C6 32      L01081  DEC $32
8002  F0 03              BEQ L01082
8004  4C 7F 80           JMP L01094
8007  A5 36      L01082  LDA $36
8009  85 32              STA $32
800B  A4 33              LDY $33
800D  B1 34              LDA ($34),Y
800F  C9 FF              CMP #$FF
8011  D0 03              BNE L01083
8013  4C 87 80           JMP L01097
8016  8D 01 D4   L01083  STA $D401           ; FREQUENCY VOICE 1 - HI
8019  E6 33              INC $33
801B  C8                 INY
801C  D0 02              BNE L01084
801E  E6 35              INC $35
8020  B1 34      L01084  LDA ($34),Y
8022  C9 FF              CMP #$FF
8024  D0 03              BNE L01085
8026  4C 87 80           JMP L01097
8029  8D 00 D4   L01085  STA $D400           ; FREQUENCY VOICE 1 - LO
802C  E6 33              INC $33
802E  C8                 INY
802F  D0 02              BNE L01086
8031  E6 35              INC $35
8033  B1 34      L01086  LDA ($34),Y
8035  C9 FF              CMP #$FF
8037  D0 03              BNE L01087
8039  4C 87 80           JMP L01097
803C  8D 08 D4   L01087  STA $D408           ; FREQUENCY VOICE 2 - HI
803F  E6 33              INC $33
8041  C8                 INY
8042  D0 02              BNE L01088
8044  E6 35              INC $35
8046  B1 34      L01088  LDA ($34),Y
8048  C9 FF              CMP #$FF
804A  D0 03              BNE L01089
804C  4C 87 80           JMP L01097
804F  8D 07 D4   L01089  STA $D407           ; FREQUENCY VOICE 2 - LO
8052  E6 33              INC $33
8054  C8                 INY
8055  D0 02              BNE L01090
8057  E6 35              INC $35
8059  B1 34      L01090  LDA ($34),Y
805B  C9 FF              CMP #$FF
805D  D0 03              BNE L01091
805F  4C 87 80           JMP L01097
8062  8D 0F D4   L01091  STA $D40F           ; FREQUENCY VOICE 3 - HI
8065  E6 33              INC $33
8067  C8                 INY
8068  D0 02              BNE L01092
806A  E6 35              INC $35
806C  B1 34      L01092  LDA ($34),Y
806E  C9 FF              CMP #$FF
8070  D0 03              BNE L01093
8072  4C 87 80           JMP L01097
8075  8D 0E D4   L01093  STA $D40E           ; FREQUENCY VOICE 3 - LO
8078  E6 33              INC $33
807A  C8                 INY
807B  D0 02              BNE L01094
807D  E6 35              INC $35
807F  A9 10      L01094  LDA #$10            ; Enable sprite-sprite collisions
8081  8D 1A D0   L01096  STA $D01A           ; VIC IRQ ENABLE/DISABLE
8084  4C 98 80           JMP L01098
8087  A9 00      L01097  LDA #$00
8089  85 33              STA $33
808B  A5 30              LDA $30
808D  85 34              STA $34
808F  A5 31              LDA $31
8091  85 35              STA $35
8093  A9 10              LDA #$10            ; Enable sprite-sprite collisions
8095  8D 1A D0           STA $D01A           ; VIC IRQ ENABLE/DISABLE
8098  4C 31 EA   L01098  JMP $EA31 
                 ;________________________________________
809B  4C 31 EA           JMP $EA31 
                 ;________________________________________
809E  EA                 NOP
809F  EA                 NOP
80A0  A5 2F              LDA $2F
80A2  29 04              AND #$04            ; IF BIT 2 OFF
80A4  F0 06              BEQ L01100
80A6  20 88 15           JSR L00195          ; Move man right 1 pixel
80A9  4C 88 15           JMP L00195
80AC  20 55 15   L01100  JSR L00191          ; Move man left 1 pixel
80AF  4C 55 15           JMP L00191
                 ;________________________________________
80B2  02                 BYT $02
80B3  02                 BYT $02
80B4  FF                 BYT $FF
80B5  FF                 BYT $FF
80B6  02                 BYT $02
80B7  FF                 BYT $FF
80B8  FF                 BYT $FF
80B9  FF                 BYT $FF
80BA  FF                 BYT $FF
80BB  FF                 BYT $FF
80BC  FF                 BYT $FF
80BD  FF                 BYT $FF
80BE  FF                 BYT $FF
80BF  FF                 BYT $FF
                 ;________________________________________
                 ;
                 ;   Song no. 10 data
                 ;
80C0                     BYT $C0, $C1, $C2, $C3, $C4, $C5
80C6                     BYT $C6, $C7, $C8, $C9, $CA, $CB
80CC                     BYT $CC, $CD, $CE, $CF, $D0, $D1
80D2                     BYT $D2, $D3, $D4, $D5, $D6, $FF
                 ;________________________________________
80D8  00                 BYT $00
80D9  00                 BYT $00
80DA  00                 BYT $00
80DB  00                 BYT $00
80DC  00                 BYT $00
80DD  00                 BYT $00
80DE  00                 BYT $00
80DF  00                 BYT $00
80E0  00                 BYT $00
80E1  00                 BYT $00
80E2  00                 BYT $00
80E3  00                 BYT $00
80E4  00                 BYT $00
80E5  00                 BYT $00
80E6  00                 BYT $00
80E7  00                 BYT $00
80E8  00                 BYT $00
80E9  00                 BYT $00
80EA  00                 BYT $00
80EB  00                 BYT $00
80EC  00                 BYT $00
80ED  00                 BYT $00
80EE  00                 BYT $00
80EF  00                 BYT $00
80F0  00                 BYT $00
80F1  00                 BYT $00
80F2  00                 BYT $00
80F3  00                 BYT $00
80F4  00                 BYT $00
80F5  00                 BYT $00
80F6  00                 BYT $00
80F7  00                 BYT $00
80F8  00                 BYT $00
80F9  00                 BYT $00
80FA  00                 BYT $00
80FB  00                 BYT $00
80FC  00                 BYT $00
80FD  00                 BYT $00
80FE  00                 BYT $00
80FF  8A                 BYT $8A
                 ;________________________________________
                 ;
                 ;   Song no. 1 data
                 ;
8100                     BYT $12, $D1, $04, $B4, $04, $B4
8106                     BYT $12, $D1, $04, $B2, $04, $B4
810C                     BYT $12, $D1, $04, $B6, $04, $B4
8112                     BYT $12, $D1, $04, $B0, $04, $B4
8118                     BYT $12, $D1, $04, $B2, $04, $B4
811E                     BYT $12, $D1, $04, $AC, $04, $B4
8124                     BYT $1C, $31, $04, $AF, $04, $B4
812A                     BYT $1A, $9C, $04, $BC, $04, $B4
8130                     BYT $1C, $31, $04, $BA, $04, $B4
8136                     BYT $1C, $31, $00, $00, $00, $00
813C                     BYT $1C, $31, $03, $80, $03, $86
8142                     BYT $1C, $31, $00, $00, $00, $00
8148                     BYT $00, $00, $04, $B8, $04, $B4
814E                     BYT $00, $00, $00, $00, $00, $00
8154                     BYT $00, $00, $03, $80, $03, $86
815A                     BYT $00, $00, $00, $00, $00, $00
8160                     BYT $12, $D1, $07, $0C, $04, $B4
8166                     BYT $12, $D1, $07, $0C, $04, $B4
816C                     BYT $12, $D1, $07, $0C, $04, $B4
8172                     BYT $12, $D1, $07, $0C, $04, $B4
8178                     BYT $12, $D1, $07, $77, $04, $B4
817E                     BYT $12, $D1, $07, $77, $04, $B4
8184                     BYT $21, $87, $07, $0C, $04, $B4
818A                     BYT $1F, $A5, $07, $0C, $04, $B4
8190                     BYT $21, $87, $08, $61, $04, $30
8196                     BYT $21, $87, $07, $77, $00, $00
819C                     BYT $21, $87, $08, $61, $03, $86
81A2                     BYT $21, $87, $0A, $8F, $00, $00
81A8                     BYT $21, $87, $0A, $8F, $04, $30
81AE                     BYT $21, $87, $0E, $18, $00, $00
81B4                     BYT $21, $87, $10, $C3, $03, $23
81BA                     BYT $21, $87, $0F, $D2, $00, $00
81C0                     BYT $25, $A2, $0E, $EF, $03, $BB
81C6                     BYT $25, $A2, $0E, $18, $03, $BB
81CC                     BYT $25, $A2, $0A, $8F, $03, $BB
81D2                     BYT $25, $A2, $0B, $30, $03, $BB
81D8                     BYT $21, $87, $0A, $8F, $04, $30
81DE                     BYT $21, $87, $0B, $30, $04, $30
81E4                     BYT $21, $87, $0A, $8F, $04, $30
81EA                     BYT $21, $87, $0B, $30, $04, $30
81F0                     BYT $1C, $31, $0A, $8F, $03, $86
81F6                     BYT $1C, $31, $0B, $30, $00, $00
81FC                     BYT $1C, $31, $0A, $8F, $03, $86
8202                     BYT $1C, $31, $0B, $30, $03, $86
8208                     BYT $1C, $31, $25, $A2, $00, $00
820E                     BYT $1C, $31, $21, $87, $03, $86
8214                     BYT $1C, $31, $1D, $DF, $00, $00
821A                     BYT $1C, $31, $1C, $31, $03, $86
8220                     BYT $21, $87, $19, $1E, $03, $86
8226                     BYT $21, $87, $0B, $30, $03, $86
822C                     BYT $21, $87, $0A, $8F, $05, $47
8232                     BYT $21, $87, $09, $68, $05, $47
8238                     BYT $21, $87, $08, $61, $03, $86
823E                     BYT $21, $87, $07, $77, $03, $86
8244                     BYT $21, $87, $07, $0C, $04, $30
824A                     BYT $21, $87, $07, $0C, $04, $30
8250                     BYT $00, $00, $04, $B8, $04, $B4   ; Song no. 2 start point
8256                     BYT $00, $00, $04, $B0, $04, $B4
825C                     BYT $0E, $18, $0B, $DA, $00, $00
8262                     BYT $0E, $18, $0B, $DA, $00, $00
8268                     BYT $00, $00, $03, $80, $03, $86
826E                     BYT $00, $00, $03, $80, $03, $86
8274                     BYT $10, $C3, $0C, $8F, $00, $00
827A                     BYT $10, $C3, $0C, $8F, $00, $00
8280                     BYT $00, $00, $04, $B8, $04, $B4
8286                     BYT $00, $00, $04, $B0, $04, $B4
828C                     BYT $0E, $18, $0B, $DA, $00, $00
8292                     BYT $0E, $18, $0B, $DA, $00, $00
8298                     BYT $00, $00, $03, $80, $03, $86
829E                     BYT $00, $00, $03, $80, $03, $86
82A4                     BYT $10, $C3, $0C, $8F, $00, $00
82AA                     BYT $10, $C3, $0C, $8F, $00, $00
82B0                     BYT $00, $00, $04, $B8, $04, $B4
82B6                     BYT $00, $00, $04, $B0, $04, $B4
82BC                     BYT $0E, $18, $0B, $DA, $00, $00
82C2                     BYT $0E, $18, $0B, $DA, $00, $00
82C8                     BYT $00, $00, $03, $80, $03, $86
82CE                     BYT $00, $00, $03, $80, $03, $86
82D4                     BYT $10, $C3, $0C, $8F, $00, $00
82DA                     BYT $10, $C3, $0C, $8F, $00, $00
82E0                     BYT $00, $00, $04, $B8, $04, $B4
82E6                     BYT $00, $00, $04, $B0, $04, $B4
82EC                     BYT $0E, $18, $0B, $DA, $00, $00
82F2                     BYT $0E, $18, $0B, $DA, $00, $00
82F8                     BYT $00, $00, $03, $80, $03, $86
82FE                     BYT $00, $00, $03, $80, $03, $86
8304                     BYT $10, $C3, $0C, $8F, $00, $00
830A                     BYT $10, $C3, $0C, $8F, $00, $00
8310                     BYT $09, $68, $04, $B8, $04, $B4
8316                     BYT $09, $68, $04, $B0, $04, $B4
831C                     BYT $0E, $18, $0B, $DA, $00, $00
8322                     BYT $0E, $18, $0B, $DA, $00, $00
8328                     BYT $0E, $18, $03, $80, $03, $86
832E                     BYT $0E, $18, $03, $80, $03, $86
8334                     BYT $0C, $8F, $0C, $8F, $00, $00
833A                     BYT $0B, $DA, $0C, $8F, $00, $00
8340                     BYT $09, $68, $04, $B8, $04, $B4
8346                     BYT $09, $68, $04, $B0, $04, $B4
834C                     BYT $07, $0C, $0B, $DA, $00, $00
8352                     BYT $07, $0C, $0B, $DA, $00, $00
8358                     BYT $07, $0C, $03, $80, $03, $86
835E                     BYT $07, $0C, $03, $80, $03, $86
8364                     BYT $0E, $18, $0C, $8F, $00, $00
836A                     BYT $0E, $18, $0C, $8F, $00, $00
8370                     BYT $10, $C3, $04, $B8, $04, $B4
8376                     BYT $10, $C3, $04, $B0, $04, $B4
837C                     BYT $10, $C3, $0B, $DA, $00, $00
8382                     BYT $10, $C3, $0B, $DA, $00, $00
8388                     BYT $10, $C3, $03, $80, $03, $86
838E                     BYT $10, $C3, $03, $80, $03, $86
8394                     BYT $0E, $EF, $0C, $8F, $00, $00
839A                     BYT $0D, $4E, $0C, $8F, $00, $00
83A0                     BYT $0E, $18, $04, $B8, $04, $B4
83A6                     BYT $0E, $18, $04, $B0, $04, $B4
83AC                     BYT $0E, $18, $0B, $DA, $00, $00
83B2                     BYT $0E, $18, $0B, $DA, $00, $00
83B8                     BYT $0E, $18, $03, $80, $03, $86
83BE                     BYT $0E, $18, $03, $80, $03, $86
83C4                     BYT $0E, $18, $0C, $8F, $00, $00
83CA                     BYT $0E, $18, $0C, $8F, $00, $00
83D0                     BYT $09, $68, $04, $B8, $04, $B4
83D6                     BYT $09, $68, $04, $B0, $04, $B4
83DC                     BYT $0E, $18, $0B, $DA, $00, $00
83E2                     BYT $0E, $18, $0B, $DA, $00, $00
83E8                     BYT $0E, $18, $03, $80, $03, $86
83EE                     BYT $0E, $18, $03, $80, $03, $86
83F4                     BYT $0C, $8F, $0C, $8F, $00, $00
83FA                     BYT $0B, $DA, $0C, $8F, $00, $00
8400                     BYT $09, $68, $04, $B8, $04, $B4
8406                     BYT $09, $68, $04, $B0, $04, $B4
840C                     BYT $0C, $8F, $09, $68, $03, $BB
8412                     BYT $0C, $8F, $09, $68, $03, $BB
8418                     BYT $0C, $8F, $07, $77, $03, $23
841E                     BYT $0C, $8F, $07, $77, $03, $23
8424                     BYT $0C, $8F, $09, $68, $03, $BB
842A                     BYT $0C, $8F, $09, $68, $03, $BB
8430                     BYT $10, $C3, $0A, $8F, $03, $86
8436                     BYT $10, $C3, $08, $61, $03, $86
843C                     BYT $15, $1F, $07, $0C, $03, $86
8442                     BYT $15, $1F, $08, $61, $03, $86
8448                     BYT $12, $D1, $0C, $8F, $04, $30
844E                     BYT $12, $D1, $0B, $DA, $04, $30
8454                     BYT $10, $C3, $0A, $8F, $04, $30
845A                     BYT $10, $C3, $0B, $DA, $04, $30
8460                     BYT $12, $D1, $04, $B4, $04, $B0
8466                     BYT $12, $D1, $04, $B8, $04, $B4
846C                     BYT $12, $D1, $0B, $DA, $00, $00
8472                     BYT $12, $D1, $0B, $DA, $00, $00
8478                     BYT $12, $D1, $03, $80, $03, $86
847E                     BYT $12, $D1, $03, $80, $03, $86
8484                     BYT $12, $D1, $0C, $8F, $00, $00
848A                     BYT $12, $D1, $0C, $8F, $00, $00
8490                     BYT $00, $00, $04, $B8, $04, $B4
8496                     BYT $00, $00, $04, $B0, $04, $B4
849C                     BYT $0E, $18, $0B, $DA, $00, $00
84A2                     BYT $0E, $18, $0B, $DA, $00, $00
84A8                     BYT $00, $00, $03, $80, $03, $86
84AE                     BYT $00, $00, $03, $80, $03, $86
84B4                     BYT $10, $C3, $0C, $8F, $00, $00
84BA                     BYT $10, $C3, $0C, $8F, $00, $00
84C0                     BYT $00, $00, $04, $B8, $04, $B4
84C6                     BYT $00, $00, $04, $B0, $04, $B4
84CC                     BYT $0E, $18, $0B, $DA, $00, $00
84D2                     BYT $0E, $18, $0B, $DA, $00, $00
84D8                     BYT $00, $00, $04, $B4, $04, $B0
84DE                     BYT $00, $00, $04, $B4, $04, $B8
84E4                     BYT $00, $00, $04, $B4, $04, $B8
84EA                     BYT $00, $00, $04, $B4, $04, $FF
                 ;________________________________________
                 ;
                 ;   Song no. 2 data
                 ;
84F0                     BYT $09, $68, $1C, $31, $04, $B4
84F6                     BYT $09, $68, $1C, $31, $04, $B4
84FC                     BYT $0E, $18, $1C, $31, $00, $00
8502                     BYT $0E, $18, $1D, $DF, $00, $00
8508                     BYT $0E, $18, $21, $87, $03, $86
850E                     BYT $0E, $18, $21, $87, $03, $86
8514                     BYT $1D, $DF, $0C, $8F, $00, $00
851A                     BYT $1C, $31, $0C, $8F, $00, $00
8520                     BYT $1D, $DF, $04, $B8, $04, $B4
8526                     BYT $1C, $31, $04, $B0, $04, $B4
852C                     BYT $19, $1E, $0B, $DA, $00, $00
8532                     BYT $1C, $31, $0B, $DA, $00, $00
8538                     BYT $17, $B5, $03, $80, $03, $86
853E                     BYT $12, $D1, $03, $80, $03, $86
8544                     BYT $1C, $31, $0C, $8F, $00, $00
854A                     BYT $21, $87, $0C, $8F, $00, $00
8550                     BYT $2A, $3E, $04, $B8, $04, $B4
8556                     BYT $25, $A2, $04, $B0, $04, $B4
855C                     BYT $21, $87, $0B, $DA, $00, $00
8562                     BYT $1D, $DF, $0B, $DA, $00, $00
8568                     BYT $25, $A2, $03, $80, $03, $86
856E                     BYT $21, $87, $03, $80, $03, $86
8574                     BYT $1D, $DF, $0C, $8F, $00, $00
857A                     BYT $1A, $9C, $0C, $8F, $00, $00
8580                     BYT $1C, $31, $04, $B8, $04, $B4
8586                     BYT $1C, $31, $04, $B0, $04, $B4
858C                     BYT $1C, $31, $0B, $DA, $00, $00
8592                     BYT $1D, $DF, $0B, $DA, $00, $00
8598                     BYT $23, $86, $03, $80, $03, $86
859E                     BYT $1D, $DF, $03, $80, $03, $86
85A4                     BYT $1A, $9C, $0C, $8F, $00, $00
85AA                     BYT $0E, $18, $1C, $31, $03, $86
85B0                     BYT $09, $68, $1C, $31, $04, $B4
85B6                     BYT $09, $68, $1C, $31, $04, $B4
85BC                     BYT $0E, $18, $1C, $31, $00, $00
85C2                     BYT $0E, $18, $1D, $DF, $00, $00
85C8                     BYT $0E, $18, $21, $87, $03, $86
85CE                     BYT $0E, $18, $21, $87, $03, $86
85D4                     BYT $0C, $8F, $1D, $DF, $00, $00
85DA                     BYT $0B, $DA, $1C, $31, $00, $00
85E0                     BYT $09, $68, $1D, $DF, $04, $B4
85E6                     BYT $09, $68, $1C, $31, $04, $B4
85EC                     BYT $0C, $8F, $1D, $DF, $03, $BB
85F2                     BYT $0C, $8F, $1C, $31, $03, $BB
85F8                     BYT $0C, $8F, $19, $1E, $03, $23
85FE                     BYT $0C, $8F, $1C, $31, $03, $23
8604                     BYT $0C, $8F, $1D, $DF, $03, $BB
860A                     BYT $0C, $8F, $21, $87, $03, $BB
8610                     BYT $10, $C3, $2A, $3E, $03, $86
8616                     BYT $10, $C3, $2A, $3E, $03, $86
861C                     BYT $15, $1F, $25, $A2, $03, $86
8622                     BYT $15, $1F, $25, $A2, $03, $86
8628                     BYT $12, $D1, $21, $87, $04, $30
862E                     BYT $12, $D1, $21, $87, $04, $30
8634                     BYT $10, $C3, $1D, $DF, $04, $30
863A                     BYT $10, $C3, $1D, $DF, $04, $30
8640                     BYT $12, $D1, $04, $B8, $04, $B4
8646                     BYT $12, $D1, $04, $B0, $04, $B4
864C                     BYT $12, $D1, $0B, $DA, $00, $00
8652                     BYT $12, $D1, $0B, $DA, $00, $00
8658                     BYT $12, $D1, $03, $80, $03, $86
865E                     BYT $12, $D1, $03, $80, $03, $86
8664                     BYT $12, $D1, $0C, $8F, $00, $00
866A                     BYT $12, $D1, $0C, $8F, $00, $00
8670                     BYT $00, $00, $04, $B8, $04, $B4
8676                     BYT $00, $00, $04, $B0, $04, $B4
867C                     BYT $0E, $18, $0B, $DA, $00, $00
8682                     BYT $0E, $18, $0B, $DA, $00, $00
8688                     BYT $00, $00, $03, $80, $03, $86
868E                     BYT $00, $00, $03, $80, $03, $86
8694                     BYT $10, $C3, $0C, $8F, $00, $00
869A                     BYT $10, $C3, $0C, $8F, $00, $FF
                 ;________________________________________
86A0  12                 BYT $12
86A1  D1                 BYT $D1
86A2  04                 BYT $04
86A3  B8                 BYT $B8
86A4  04                 BYT $04
86A5  B4                 BYT $B4
86A6  12                 BYT $12
86A7  D1                 BYT $D1
86A8  04                 BYT $04
86A9  B0                 BYT $B0
86AA  04                 BYT $04
86AB  B4                 BYT $B4
86AC  12                 BYT $12
86AD  D1                 BYT $D1
86AE  04                 BYT $04
86AF  B4                 BYT $B4
86B0  04                 BYT $04
86B1  B2                 BYT $B2
86B2  12                 BYT $12
86B3  D1                 BYT $D1
86B4  04                 BYT $04
86B5  B4                 BYT $B4
86B6  04                 BYT $04
86B7  FF                 BYT $FF
86B8  FF                 BYT $FF
86B9  FF                 BYT $FF
86BA  FF                 BYT $FF
86BB  FF                 BYT $FF
86BC  FF                 BYT $FF
86BD  FF                 BYT $FF
86BE  FF                 BYT $FF
86BF  FF                 BYT $FF
                 ;________________________________________
                 ;
                 ;   Song no. 9 data (Elevator)
                 ;
86C0                     BYT $90, $00, $FE, $00, $F0, $F0
86C6                     BYT $00, $00, $01, $00, $01, $F0
86CC                     BYT $09, $00, $00, $00, $00, $00
86D2                     BYT $00, $00, $00, $00, $00, $00
86D8                     BYT $09, $00, $00, $00, $00, $00
86DE                     BYT $00, $00, $00, $00, $00, $00
86E4                     BYT $09, $00, $00, $00, $00, $00
86EA                     BYT $00, $00, $00, $00, $00, $FF
                 ;________________________________________
                 ;
                 ;   Song no. 3 data
                 ;
86F0                     BYT $0E, $18, $07, $0C, $00, $00
86F6                     BYT $12, $D1, $09, $68, $04, $B4
86FC                     BYT $15, $1F, $0A, $8F, $04, $B4
8702                     BYT $16, $60, $0B, $30, $07, $0C
8708                     BYT $1C, $31, $0E, $18, $07, $0C
870E                     BYT $1D, $DF, $0E, $EF, $06, $47
8714                     BYT $15, $1F, $0A, $8F, $06, $47
871A                     BYT $15, $1F, $0A, $8F, $07, $77
8720                     BYT $0E, $18, $07, $0C, $07, $77
8726                     BYT $11, $C3, $08, $E1, $07, $0C
872C                     BYT $12, $D1, $09, $68, $07, $0C
8732                     BYT $21, $87, $10, $C3, $05, $47
8738                     BYT $1D, $DF, $0E, $EF, $05, $47
873E                     BYT $1C, $31, $0E, $18, $09, $68
8744                     BYT $1C, $31, $0E, $18, $09, $68
874A                     BYT $12, $D1, $09, $68, $04, $B4
8750                     BYT $15, $1F, $0A, $8F, $04, $B4
8756                     BYT $16, $60, $0B, $30, $07, $0C
875C                     BYT $25, $A2, $12, $D1, $07, $0C
8762                     BYT $21, $87, $10, $C3, $06, $47
8768                     BYT $1D, $DF, $0E, $EF, $06, $47
876E                     BYT $15, $1F, $0A, $8F, $07, $77
8774                     BYT $1D, $DF, $0E, $EF, $07, $77
877A                     BYT $1C, $31, $0E, $18, $09, $68
8780                     BYT $12, $D1, $09, $68, $04, $B4
8786                     BYT $16, $60, $0B, $30, $07, $0C
878C                     BYT $11, $C3, $08, $E1, $07, $0C
8792                     BYT $12, $D1, $09, $68, $04, $B4
8798                     BYT $12, $D1, $09, $68, $04, $FF
                 ;________________________________________
879E  FF                 BYT $FF
879F  FF                 BYT $FF
                 ;________________________________________
                 ;
                 ;   Song no. 5 data
                 ;
87A0                     BYT $3F, $52, $32, $40, $0A, $8F
87A6                     BYT $3F, $52, $32, $40, $0A, $8F
87AC                     BYT $3F, $52, $32, $40, $0F, $D2
87B2                     BYT $3F, $52, $32, $40, $0F, $D2
87B8                     BYT $47, $0C, $35, $39, $11, $C3
87BE                     BYT $47, $0C, $35, $39, $11, $C3
87C4                     BYT $47, $0C, $35, $39, $08, $E1
87CA                     BYT $47, $0C, $35, $39, $08, $FF
                 ;________________________________________
                 ;
                 ;   Song no. 8 data
                 ;
87D0                     BYT $03, $86, $03, $84, $03, $88
87D6                     BYT $03, $86, $03, $88, $03, $82
87DC                     BYT $03, $84, $03, $86, $03, $88
87E2                     BYT $03, $86, $03, $80, $03, $FF
                 ;________________________________________
87E8  00                 BYT $00
87E9  00                 BYT $00
87EA  00                 BYT $00
87EB  00                 BYT $00
87EC  00                 BYT $00
87ED  00                 BYT $00
87EE  00                 BYT $00
87EF  00                 BYT $00
                 ;________________________________________
                 ;
                 ;   Song pointer - Start screen
                 ;
87F0  00                 BYT $00
87F1  8A                 BYT $8A             ; $8A00 = Location
87F2  0C                 BYT $0C
87F3  00                 BYT $00
87F4  00                 BYT $00
87F5  8A                 BYT $8A             ; $8A00 = Start
87F6  0C                 BYT $0C
87F7  00                 BYT $00
                 ;________________________________________
                 ;
                 ;   Song pointer - Song no. 2
                 ;
87F8  F0                 BYT $F0
87F9  84                 BYT $84             ; $84F0 = Location
87FA  0A                 BYT $0A
87FB  00                 BYT $00
87FC  50                 BYT $50
87FD  82                 BYT $82             ; $8250 = Start
87FE  0A                 BYT $0A
87FF  00                 BYT $00
                 ;________________________________________
8800  A9 80      L01175  LDA #$80
8802  85 12              STA $12
8804  A2 08              LDX #$08
8806  BD 07 D0   L01176  LDA $D007,X
8809  C9 B0              CMP #$B0
880B  F0 0B              BEQ L01178
880D  B0 06              BCS L01177
880F  FE 07 D0           INC $D007,X
8812  4C 18 88           JMP L01178
8815  DE 07 D0   L01177  DEC $D007,X
8818  BD 06 D0   L01178  LDA $D006,X
881B  DD F0 89           CMP $89F0,X
881E  F0 2C              BEQ L01182
8820  B0 17      L01179  BCS L01181
8822  AD 10 D0           LDA $D010
8825  25 12              AND $12
8827  D0 10              BNE L01181
8829  FE 06 D0           INC $D006,X
882C  D0 08              BNE L01180
882E  AD 10 D0           LDA $D010
8831  05 12              ORA $12
8833  8D 10 D0           STA $D010
8836  4C 4C 88   L01180  JMP L01182
8839  DE 06 D0   L01181  DEC $D006,X
883C  D0 0E              BNE L01182
883E  A5 12              LDA $12
8840  49 FF              EOR #$FF
8842  85 13              STA $13
8844  AD 10 D0           LDA $D010
8847  25 13              AND $13
8849  8D 10 D0           STA $D010
884C  46 12      L01182  LSR $12
884E  CA                 DEX
884F  CA                 DEX
8850  10 B4              BPL L01176
8852  A2 08              LDX #$08
8854  BD 06 D0   L01183  LDA $D006,X
8857  DD F0 89           CMP $89F0,X
885A  D0 11              BNE L01185
885C  BD 07 D0           LDA $D007,X
885F  C9 B0              CMP #$B0
8861  D0 0A              BNE L01185
8863  CA                 DEX
8864  CA                 DEX
8865  10 ED              BPL L01183
8867  A9 80      L01184  LDA #$80
8869  8D 10 D0           STA $D010
886C  60                 RTS
886D  20 D0 92   L01185  JSR L01372
8870  4C 00 88           JMP L01175
                 ;________________________________________
8873  00                 BYT $00
8874  00                 BYT $00
8875  00                 BYT $00
8876  00                 BYT $00
8877  00                 BYT $00
8878  00                 BYT $00
8879  00                 BYT $00
887A  00                 BYT $00
                 ;________________________________________
887B  A9 07      L01186  LDA #$07
887D  8D 1C D0           STA $D01C           ; SPRITE MULTICOLOR MODE
8880  A2 06              LDX #$06
8882  BD F0 87   L01187  LDA $87F0,X         ; Song pointer - Song no. 1
8885  95 30              STA $30,X
8887  CA                 DEX
8888  10 F8              BPL L01187
888A  A9 21              LDA #$21            ; ENABLE
888C  8D 04 D4           STA $D404           ; VOICE 1
888F  8D 0B D4           STA $D40B           ; VOICE 2
8892  A9 41              LDA #$41            ; ENABLE
8894  8D 12 D4           STA $D412           ; VOICE 3
8897  A2 00              LDX #$00
8899  20 90 11           JSR L00106          ; Set sprite pointers for man
889C  A0 07              LDY #$07
889E  20 20 11           JSR L00097
88A1  A9 08              LDA #$08
88A3  20 87 95           JSR L01417          ; Set Color RAM and Background Color to BLACK
88A6  A9 07              LDA #$07            ; YELLOW
88A8  8D 22 D0           STA $D022           ; BACKGROUND COLOR 1
88AB  8D 23 D0           STA $D023           ; BACKGROUND COLOR 2
88AE  20 F0 96           JSR L01450
88B1  20 00 88           JSR L01175
88B4  A2 04              LDX #$04
88B6  A9 CA      L01188  LDA #$CA            ; Egyptian dance right
88B8  9D FB 07           STA $07FB,X         ; SPRITE 3-7 PTR
88BB  A9 08              LDA #$08
88BD  9D 2A D0           STA $D02A,X
88C0  CA                 DEX
88C1  10 F3              BPL L01188
88C3  A9 F8              LDA #$F8
88C5  8D 17 D0           STA $D017           ; EXPAND SPRITE IN Y-DIR.
88C8  8D 1D D0           STA $D01D           ; EXPAND SPRITE IN X-DIR.
88CB  A9 F8              LDA #$F8
88CD  8D 1B D0           STA $D01B           ; SPRITE-BACKGROUND PRIORITY
88D0  A2 06              LDX #$06
88D2  BD F8 87   L01189  LDA $87F8,X         ; Song pointer - Song no. 2
88D5  95 30              STA $30,X
88D7  CA                 DEX
88D8  10 F8              BPL L01189
88DA  A9 00              LDA #$00
88DC  85 12              STA $12
88DE  20 B0 89   L01190  JSR L01210
88E1  4C EB 88           JMP L01191
                 ;________________________________________
88E4  C6 13              DEC $13
88E6  F0 03              BEQ L01191
88E8  4C 66 89           JMP L01204
88EB  A9 20      L01191  LDA #$20
88ED  85 13              STA $13
88EF  A5 12              LDA $12
88F1  D0 39              BNE L01198
88F3  A0 03              LDY #$03
88F5  A2 08      L01192  LDX #$08
88F7  FE 06 D0   L01193  INC $D006,X
88FA  CA                 DEX
88FB  CA                 DEX
88FC  10 F9              BPL L01193
88FE  88                 DEY
88FF  10 F4              BPL L01192
8901  AD FB 07           LDA $07FB           ; SPRITE 3 PTR
8904  C9 CA              CMP #$CA            ; Egyptian dance right?
8906  D0 06              BNE L01194
8908  20 A2 89           JSR L01208
890B  4C 11 89           JMP L01195
890E  20 E5 89   L01194  JSR L01216
8911  AD 06 D0   L01195  LDA $D006           ; SPRITE 3 X POS
8914  C9 F8              CMP #$F8
8916  90 0C              BCC L01197
8918  E6 12              INC $12
891A  A2 04              LDX #$04
891C  A9 C8              LDA #$C8            ; Egyptian dance left
891E  9D FB 07   L01196  STA $07FB,X         ; SPRITE 3-7 PTR
8921  CA                 DEX
8922  10 FA              BPL L01196
8924  A9 41      L01197  LDA #$41            ; ENABLE
8926  8D 12 D4           STA $D412           ; VOICE 3
8929  4C 66 89           JMP L01204
892C  A0 03      L01198  LDY #$03
892E  A2 08      L01199  LDX #$08
8930  DE 06 D0   L01200  DEC $D006,X
8933  CA                 DEX
8934  CA                 DEX
8935  10 F9              BPL L01200
8937  88                 DEY
8938  10 F4              BPL L01199
893A  AD FB 07           LDA $07FB           ; SPRITE 3 PTR
893D  C9 C8              CMP #$C8            ; Egyptian dance left?
893F  D0 06              BNE L01201
8941  20 A2 89           JSR L01208
8944  4C 4A 89           JMP L01202
8947  20 E5 89   L01201  JSR L01216
894A  A9 41      L01202  LDA #$41            ; ENABLE
894C  8D 12 D4           STA $D412           ; VOICE 3
894F  EA                 NOP
8950  EA                 NOP
8951  EA                 NOP
8952  EA                 NOP
8953  AD 0E D0           LDA $D00E           ; SPRITE 7 X POS
8956  C9 04              CMP #$04
8958  B0 0C              BCS L01204
895A  C6 12              DEC $12
895C  A2 04              LDX #$04
895E  A9 CA              LDA #$CA            ; Egyptian dance right
8960  9D FB 07   L01203  STA $07FB,X         ; SPRITE 3-7 PTR
8963  CA                 DEX
8964  10 FA              BPL L01203
8966  A4 50      L01204  LDY $50
8968  AD 04 DC           LDA $DC04           ; Timer A low byte
896B  A9 BA              LDA #$BA
896D  91 52              STA ($52),Y
896F  A9 07              LDA #$07
8971  91 54              STA ($54),Y
8973  E6 50              INC $50
8975  A5 50              LDA $50
8977  C9 28              CMP #$28
8979  D0 20              BNE L01207
897B  A9 00              LDA #$00
897D  85 50              STA $50
897F  38                 SEC
8980  A5 52              LDA $52
8982  E9 28              SBC #$28
8984  85 52              STA $52
8986  85 54              STA $54
8988  B0 04              BCS L01206
898A  C6 53              DEC $53
898C  C6 55              DEC $55
898E  A5 53      L01206  LDA $53
8990  C9 04              CMP #$04
8992  D0 35              BNE L01213
8994  A5 52              LDA $52
8996  D0 31              BNE L01213
8998  4C 00 0C           JMP L00001
899B  20 95 9F   L01207  JSR L01569
899E  4C DE 88           JMP L01190
89A1  00                 BYT $00
89A2  A2 04      L01208  LDX #$04
89A4  FE FB 07   L01209  INC $07FB,X         ; SPRITE 3-7 PTR
89A7  CA                 DEX
89A8  10 FA              BPL L01209
89AA  60                 RTS
89AB  00                 BYT $00
89AC  00                 BYT $00
89AD  00                 BYT $00
89AE  00                 BYT $00
89AF  00                 BYT $00
89B0  AD 04 DC   L01210  LDA $DC04           ; Timer A low byte
89B3  29 1F              AND #$1F            ; IF NOT BIT 0 1 2 3 4 OFF
89B5  D0 03              BNE L01212
89B7  4C 61 1E   L01211  JMP L00374
89BA  AA         L01212  TAX
89BB  BD B0 10           LDA $10B0,X
89BE  F0 F7              BEQ L01211
89C0  A8                 TAY
89C1  A2 08              LDX #$08
89C3  20 A0 11           JSR L00108
89C6  4C D0 10           JMP L00088
89C9  20 80 9F   L01213  JSR L01565          ; Pause
89CC  4C C0 92           JMP L01370
                 ;________________________________________
89CF  00                 BYT $00
                 ;________________________________________
89D0  A9 00      L01214  LDA #$00
89D2  85 50              STA $50
89D4  A9 C0              LDA #$C0
89D6  85 52              STA $52
89D8  85 54              STA $54
89DA  A9 07              LDA #$07
89DC  85 53              STA $53
89DE  A9 DB              LDA #$DB
89E0  85 55              STA $55
89E2  4C 7B 88           JMP L01186
                 ;________________________________________
89E5  A2 04      L01216  LDX #$04
89E7  DE FB 07   L01217  DEC $07FB,X         ; SPRITE 3-7 PTR
89EA  CA                 DEX
89EB  10 FA              BPL L01217
89ED  60                 RTS
                 ;________________________________________
89EE  00                 BYT $00
89EF  00                 BYT $00
89F0  40                 BYT $40             ; SPRITE 3 X POS
89F1  00                 BYT $00             ; SPRITE 3 Y POS
89F2  70                 BYT $70             ; SPRITE 4 X POS
89F3  00                 BYT $00             ; SPRITE 4 Y POS
89F4  A0                 BYT $A0             ; SPRITE 5 X POS
89F5  00                 BYT $00             ; SPRITE 5 Y POS
89F6  D0                 BYT $D0             ; SPRITE 6 X POS
89F7  00                 BYT $00             ; SPRITE 6 Y POS
89F8  02                 BYT $02             ; SPRITE 7 X POS
89F9  00                 BYT $00             ; SPRITE 7 Y POS
89FA  00                 BYT $00
89FB  00                 BYT $00
89FC  00                 BYT $00
89FD  00                 BYT $00
89FE  00                 BYT $00
89FF  00                 BYT $00
                 ;________________________________________
                 ;
                 ;   Song no. 1, 9, 10, 11 and 12 data (Return point)
                 ;
8A00                     BYT $00, $00, $00, $00, $00, $00
8A06                     BYT $00, $00, $00, $00, $00, $00
8A0C                     BYT $00, $00, $00, $00, $00, $00
8A12                     BYT $00, $00, $00, $00, $00, $FF
                 ;________________________________________
8A18  00                 BYT $00
8A19  00                 BYT $00
8A1A  00                 BYT $00
8A1B  00                 BYT $00
8A1C  00                 BYT $00
8A1D  00                 BYT $00
8A1E  00                 BYT $00
8A1F  00                 BYT $00
8A20  A0                 BYT $A0
8A21  A1                 BYT $A1
8A22  A2                 BYT $A2
8A23  A3                 BYT $A3
8A24  A4                 BYT $A4
8A25  A5                 BYT $A5
8A26  A6                 BYT $A6
8A27  A7                 BYT $A7
8A28  A8                 BYT $A8
8A29  A9                 BYT $A9
8A2A  AA                 BYT $AA
8A2B  AB                 BYT $AB
8A2C  AC                 BYT $AC
8A2D  AD                 BYT $AD
8A2E  AE                 BYT $AE
8A2F  AF                 BYT $AF
8A30  B0                 BYT $B0
8A31  B1                 BYT $B1
8A32  B2                 BYT $B2
8A33  B3                 BYT $B3
8A34  B4                 BYT $B4
8A35  B5                 BYT $B5
8A36  B6                 BYT $B6
8A37  FF                 BYT $FF
8A38  20                 BYT $20
8A39  8A                 BYT $8A
8A3A  01                 BYT $01
8A3B  00                 BYT $00
8A3C  20                 BYT $20
8A3D  8A                 BYT $8A
8A3E  01                 BYT $01
8A3F  11                 BYT $11
8A40  11                 BYT $11
8A41  11                 BYT $11
8A42  08                 BYT $08
8A43  00                 BYT $00
8A44  00                 BYT $00
8A45  00                 BYT $00
8A46  00                 BYT $00
8A47  00                 BYT $00
8A48  FF                 BYT $FF
8A49  FF                 BYT $FF
8A4A  FF                 BYT $FF
8A4B  FF                 BYT $FF
8A4C  FF                 BYT $FF
8A4D  FF                 BYT $FF
8A4E  FF                 BYT $FF
8A4F  FF                 BYT $FF
8A50  30                 BYT $30
8A51  00                 BYT $00
8A52  F0                 BYT $F0
8A53  00                 BYT $00
8A54  30                 BYT $30
8A55  00                 BYT $00
8A56  00                 BYT $00
8A57  00                 BYT $00
8A58  00                 BYT $00
8A59  00                 BYT $00
8A5A  00                 BYT $00
8A5B  00                 BYT $00
8A5C  00                 BYT $00
8A5D  00                 BYT $00
8A5E  00                 BYT $00
8A5F  00                 BYT $00
8A60  00                 BYT $00
8A61  00                 BYT $00
8A62  00                 BYT $00
8A63  00                 BYT $00
8A64  00                 BYT $00
8A65  00                 BYT $00
8A66  00                 BYT $00
8A67  00                 BYT $00
8A68  00                 BYT $00
8A69  00                 BYT $00
8A6A  00                 BYT $00
8A6B  00                 BYT $00
8A6C  00                 BYT $00
8A6D  00                 BYT $00
8A6E  00                 BYT $00
8A6F  00                 BYT $00
8A70  00                 BYT $00
8A71  00                 BYT $00
8A72  00                 BYT $00
8A73  00                 BYT $00
8A74  00                 BYT $00
8A75  00                 BYT $00
8A76  00                 BYT $00
8A77  FF                 BYT $FF
8A78  50                 BYT $50
8A79  8A                 BYT $8A
8A7A  01                 BYT $01
8A7B  00                 BYT $00
8A7C  50                 BYT $50
8A7D  8A                 BYT $8A
8A7E  01                 BYT $01
8A7F  81                 BYT $81
8A80  81                 BYT $81
8A81  81                 BYT $81
8A82  06                 BYT $06
8A83  00                 BYT $00
8A84  00                 BYT $00
8A85  00                 BYT $00
8A86  00                 BYT $00
8A87  00                 BYT $00
8A88  FF                 BYT $FF
8A89  FF                 BYT $FF
8A8A  FF                 BYT $FF
8A8B  FF                 BYT $FF
8A8C  FF                 BYT $FF
8A8D  FF                 BYT $FF
8A8E  FF                 BYT $FF
8A8F  FF                 BYT $FF
8A90  EB                 BYT $EB
8A91  00                 BYT $00
8A92  F0                 BYT $F0
8A93  00                 BYT $00
8A94  F0                 BYT $F0
8A95  F0                 BYT $F0
8A96  00                 BYT $00
8A97  00                 BYT $00
8A98  00                 BYT $00
8A99  00                 BYT $00
8A9A  00                 BYT $00
8A9B  F0                 BYT $F0
8A9C  00                 BYT $00
8A9D  00                 BYT $00
8A9E  00                 BYT $00
8A9F  00                 BYT $00
8AA0  00                 BYT $00
8AA1  00                 BYT $00
8AA2  00                 BYT $00
8AA3  00                 BYT $00
8AA4  00                 BYT $00
8AA5  00                 BYT $00
8AA6  F0                 BYT $F0
8AA7  00                 BYT $00
8AA8  00                 BYT $00
8AA9  00                 BYT $00
8AAA  00                 BYT $00
8AAB  00                 BYT $00
8AAC  06                 BYT $06
8AAD  80                 BYT $80
8AAE  00                 BYT $00
8AAF  00                 BYT $00
8AB0  00                 BYT $00
8AB1  00                 BYT $00
8AB2  00                 BYT $00
8AB3  00                 BYT $00
8AB4  00                 BYT $00
8AB5  00                 BYT $00
8AB6  00                 BYT $00
8AB7  FF                 BYT $FF
8AB8  90                 BYT $90
8AB9  8A                 BYT $8A
8ABA  02                 BYT $02
8ABB  00                 BYT $00
8ABC  90                 BYT $90
8ABD  8A                 BYT $8A
8ABE  02                 BYT $02
8ABF  81                 BYT $81
8AC0  41                 BYT $41
8AC1  11                 BYT $11
8AC2  08                 BYT $08
8AC3  00                 BYT $00
8AC4  00                 BYT $00
8AC5  00                 BYT $00
8AC6  00                 BYT $00
8AC7  00                 BYT $00
8AC8  FF                 BYT $FF
8AC9  FF                 BYT $FF
8ACA  FF                 BYT $FF
8ACB  FF                 BYT $FF
8ACC  FF                 BYT $FF
8ACD  FF                 BYT $FF
8ACE  FF                 BYT $FF
8ACF  FF                 BYT $FF
8AD0  00                 BYT $00
8AD1  8A                 BYT $8A
8AD2  0E                 BYT $0E
8AD3  00                 BYT $00
8AD4  00                 BYT $00
8AD5  8A                 BYT $8A
8AD6  0E                 BYT $0E
8AD7  41                 BYT $41
8AD8  21                 BYT $21
8AD9  21                 BYT $21
8ADA  08                 BYT $08
8ADB  FF                 BYT $FF
8ADC  FF                 BYT $FF
8ADD  FF                 BYT $FF
8ADE  FF                 BYT $FF
8ADF  FF                 BYT $FF
                 ;________________________________________
                 ;
                 ;   Song no. 12 data
                 ;
8AE0                     BYT $40, $00, $41, $00, $42, $00
8AE6                     BYT $40, $00, $41, $00, $42, $00
8AEC                     BYT $40, $00, $41, $00, $42, $00
8AF2                     BYT $40, $00, $41, $00, $42, $FF
                 ;________________________________________
8AF8  00                 BYT $00
8AF9  00                 BYT $00
8AFA  00                 BYT $00
8AFB  00                 BYT $00
8AFC  00                 BYT $00
8AFD  00                 BYT $00
8AFE  00                 BYT $00
8AFF  00                 BYT $00
8B00  00                 BYT $00
8B01  00                 BYT $00
8B02  00                 BYT $00
8B03  00                 BYT $00
8B04  00                 BYT $00
8B05  00                 BYT $00
8B06  00                 BYT $00
8B07  00                 BYT $00
8B08  00                 BYT $00
8B09  00                 BYT $00
8B0A  00                 BYT $00
8B0B  00                 BYT $00
8B0C  00                 BYT $00
8B0D  00                 BYT $00
8B0E  00                 BYT $00
8B0F  00                 BYT $00
8B10  00                 BYT $00
8B11  00                 BYT $00
8B12  00                 BYT $00
8B13  00                 BYT $00
8B14  00                 BYT $00
8B15  00                 BYT $00
8B16  00                 BYT $00
8B17  00                 BYT $00
8B18  00                 BYT $00
8B19  00                 BYT $00
8B1A  00                 BYT $00
8B1B  00                 BYT $00
8B1C  00                 BYT $00
8B1D  00                 BYT $00
8B1E  00                 BYT $00
8B1F  00                 BYT $00
8B20  00                 BYT $00
8B21  00                 BYT $00
8B22  00                 BYT $00
8B23  00                 BYT $00
8B24  00                 BYT $00
8B25  00                 BYT $00
8B26  00                 BYT $00
8B27  00                 BYT $00
8B28  FF                 BYT $FF
8B29  FF                 BYT $FF
8B2A  FF                 BYT $FF
8B2B  FF                 BYT $FF
8B2C  FF                 BYT $FF
8B2D  FF                 BYT $FF
8B2E  FF                 BYT $FF
8B2F  FF                 BYT $FF
8B30  01                 BYT $01             ; BACKGROUND COLOR 3 = WHITE
8B31  0F                 BYT $0F             ; BACKGROUND COLOR 2 = LIGHT GRAY
8B32  0C                 BYT $0C             ; BACKGROUND COLOR 1 = MEDIUM GRAY
8B33  0B                 BYT $0B             ; BACKGROUND COLOR 0 = DARK GRAY
8B34  FF                 BYT $FF
8B35  FF                 BYT $FF
8B36  FF                 BYT $FF
8B37  FF                 BYT $FF
8B38  FF                 BYT $FF
8B39  FF                 BYT $FF
8B3A  FF                 BYT $FF
8B3B  FF                 BYT $FF
8B3C  FF                 BYT $FF
8B3D  FF                 BYT $FF
8B3E  FF                 BYT $FF
8B3F  FF                 BYT $FF
                 ;________________________________________
                 ;
                 ;   Song pointer - Song no. 8 (End game)
                 ;
8B40  D0                 BYT $D0
8B41  87                 BYT $87             ; $87D0 = Location
8B42  08                 BYT $08
8B43  00                 BYT $00
8B44  D0                 BYT $D0
8B45  87                 BYT $87             ; $87D0 = Start
8B46  08                 BYT $08
8B47  00                 BYT $00
                 ;________________________________________
                 ;
                 ;   Song pointer - Song no. 6 (Falling)
                 ;
8B48  A0                 BYT $A0
8B49  8B                 BYT $8B             ; $8BA0 = Location
8B4A  0A                 BYT $0A
8B4B  00                 BYT $00
8B4C  A0                 BYT $A0
8B4D  8B                 BYT $8B             ; $8BA0 = Start
8B4E  0A                 BYT $0A
8B4F  00                 BYT $00
                 ;________________________________________
                 ;
                 ;   Song pointer - Song no. 1 (Start screen)
                 ;
8B50  00                 BYT $00
8B51  8A                 BYT $8A             ; $8A00 = Location
8B52  0E                 BYT $0E
8B53  00                 BYT $00
8B54  00                 BYT $00
8B55  8A                 BYT $8A             ; $8A00 = Start
8B56  0E                 BYT $0E
8B57  00                 BYT $00
                 ;________________________________________
                 ;
                 ;   Song pointer - Song no. 7
                 ;
8B58  70                 BYT $70
8B59  8B                 BYT $8B             ; $8B70 = Location
8B5A  0C                 BYT $0C
8B5B  00                 BYT $00
8B5C  70                 BYT $70
8B5D  8B                 BYT $8B             ; $8B70 = Start
8B5E  0C                 BYT $0C
8B5F  00                 BYT $00
                 ;________________________________________
8B60  B8                 BYT $B8
8B61  86                 BYT $86
8B62  0C                 BYT $0C
8B63  00                 BYT $00
8B64  00                 BYT $00
8B65  81                 BYT $81
8B66  0C                 BYT $0C
8B67  00                 BYT $00
8B68  FF                 BYT $FF
8B69  FF                 BYT $FF
8B6A  FF                 BYT $FF
8B6B  FF                 BYT $FF
8B6C  FF                 BYT $FF
8B6D  FF                 BYT $FF
8B6E  FF                 BYT $FF
8B6F  FF                 BYT $FF
                 ;________________________________________
                 ;
                 ;   Song no. 7 data
                 ;
8B70                     BYT $03, $86, $03, $80, $03, $7C
8B76                     BYT $00, $00, $00, $00, $00, $00
8B7C                     BYT $03, $88, $03, $84, $03, $86
8B82                     BYT $00, $00, $00, $00, $00, $00
8B88                     BYT $4E, $20, $4E, $00, $50, $00
8B8E                     BYT $4D, $C0, $4D, $30, $52, $00
8B94                     BYT $4C, $00, $4B, $00, $54, $00
8B9A                     BYT $4A, $80, $49, $50, $56, $FF
                 ;________________________________________
                 ;
                 ;   Song no. 6 data
                 ;
8BA0                     BYT $19, $1E, $12, $D1, $04, $B4
8BA6                     BYT $17, $B5, $11, $C3, $04, $B4
8BAC                     BYT $16, $60, $10, $C3, $04, $B4
8BB2                     BYT $15, $1F, $0F, $D2, $04, $FF
                 ;________________________________________
8BB8  01                 BYT $01
8BB9  80                 BYT $80
8BBA  02                 BYT $02
8BBB  00                 BYT $00
8BBC  02                 BYT $02
8BBD  80                 BYT $80
8BBE  00                 BYT $00
8BBF  C0                 BYT $C0
8BC0  01                 BYT $01
8BC1  00                 BYT $00
8BC2  01                 BYT $01
8BC3  40                 BYT $40
8BC4  00                 BYT $00
8BC5  40                 BYT $40
8BC6  02                 BYT $02
8BC7  80                 BYT $80
8BC8  03                 BYT $03
8BC9  00                 BYT $00
8BCA  03                 BYT $03
8BCB  40                 BYT $40
8BCC  02                 BYT $02
8BCD  20                 BYT $20
8BCE  03                 BYT $03
8BCF  FF                 BYT $FF
8BD0  00                 BYT $00
8BD1  00                 BYT $00
8BD2  00                 BYT $00
8BD3  00                 BYT $00
8BD4  00                 BYT $00
8BD5  00                 BYT $00
8BD6  00                 BYT $00
8BD7  00                 BYT $00
8BD8  00                 BYT $00
8BD9  00                 BYT $00
8BDA  00                 BYT $00
8BDB  00                 BYT $00
8BDC  00                 BYT $00
8BDD  00                 BYT $00
8BDE  00                 BYT $00
8BDF  00                 BYT $00
8BE0  00                 BYT $00
8BE1  00                 BYT $00
8BE2  00                 BYT $00
8BE3  00                 BYT $00
8BE4  00                 BYT $00
8BE5  00                 BYT $00
8BE6  00                 BYT $00
8BE7  00                 BYT $00
8BE8  00                 BYT $00
8BE9  00                 BYT $00
8BEA  00                 BYT $00
8BEB  00                 BYT $00
8BEC  00                 BYT $00
8BED  00                 BYT $00
8BEE  00                 BYT $00
8BEF  00                 BYT $00
8BF0  00                 BYT $00
8BF1  00                 BYT $00
8BF2  00                 BYT $00
8BF3  00                 BYT $00
8BF4  00                 BYT $00
8BF5  00                 BYT $00
8BF6  00                 BYT $00
8BF7  00                 BYT $00
8BF8  FF                 BYT $FF
8BF9  FF                 BYT $FF
8BFA  FF                 BYT $FF
8BFB  FF                 BYT $FF
8BFC  FF                 BYT $FF
8BFD  FF                 BYT $FF
8BFE  FF                 BYT $FF
8BFF  FF                 BYT $FF
                 ;________________________________________
8C00  C6 54      L01239  DEC $54
8C02  F0 01              BEQ L01240
8C04  60                 RTS
8C05  A5 50      L01240  LDA $50
8C07  C9 01              CMP #$01
8C09  F0 55              BEQ L01249
8C0B  C9 02              CMP #$02
8C0D  D0 03              BNE L01241
8C0F  4C C0 8C           JMP L01257
8C12  C9 03      L01241  CMP #$03
8C14  D0 03              BNE L01242
8C16  4C F0 8C           JMP L01262
8C19  C9 04      L01242  CMP #$04
8C1B  F0 5B              BEQ L01251
8C1D  C9 05              CMP #$05
8C1F  D0 03              BNE L01243
8C21  4C 30 8D           JMP L01268
8C24  C9 06      L01243  CMP #$06
8C26  D0 03              BNE L01244
8C28  4C 60 8D           JMP L01273
8C2B  C9 07      L01244  CMP #$07
8C2D  F0 61              BEQ L01253
8C2F  C9 08              CMP #$08
8C31  D0 03              BNE L01245
8C33  4C A0 8D           JMP L01278
8C36  C9 09      L01245  CMP #$09
8C38  D0 03              BNE L01246
8C3A  4C D0 8D           JMP L01283
8C3D  C9 0A      L01246  CMP #$0A
8C3F  F0 67              BEQ L01255
8C41  C9 0B              CMP #$0B
8C43  D0 03              BNE L01247
8C45  4C 10 8E           JMP L01288
8C48  C9 0C      L01247  CMP #$0C
8C4A  D0 03              BNE L01248
8C4C  4C 40 8E           JMP L01293
8C4F  A9 01      L01248  LDA #$01
8C51  85 50              STA $50
8C53  A9 80              LDA #$80
8C55  85 54              STA $54
8C57  60                 RTS
8C58  EA                 NOP
8C59  EA                 NOP
8C5A  EA                 NOP
8C5B  EA                 NOP
8C5C  EA                 NOP
8C5D  EA                 NOP
8C5E  EA                 NOP
8C5F  EA                 NOP
8C60  A9 DE      L01249  LDA #$DE
8C62  85 52              STA $52
8C64  A9 4C              LDA #$4C
8C66  85 53              STA $53
8C68  A9 00              LDA #$00
8C6A  85 51              STA $51
8C6C  E6 50              INC $50
8C6E  A9 02      L01250  LDA #$02
8C70  85 54              STA $54
8C72  60                 RTS
8C73  00                 BYT $00
8C74  00                 BYT $00
8C75  00                 BYT $00
8C76  00                 BYT $00
8C77  00                 BYT $00
8C78  A9 8D      L01251  LDA #$8D
8C7A  85 52              STA $52
8C7C  A9 53              LDA #$53
8C7E  85 53              STA $53
8C80  A9 3F              LDA #$3F
8C82  85 51              STA $51
8C84  E6 50              INC $50
8C86  A9 02      L01252  LDA #$02
8C88  85 54              STA $54
8C8A  60                 RTS
8C8B  00                 BYT $00
8C8C  00                 BYT $00
8C8D  00                 BYT $00
8C8E  00                 BYT $00
8C8F  00                 BYT $00
8C90  A9 CC      L01253  LDA #$CC
8C92  85 52              STA $52
8C94  A9 64              LDA #$64
8C96  85 53              STA $53
8C98  A9 00              LDA #$00
8C9A  85 51              STA $51
8C9C  E6 50              INC $50
8C9E  A9 02      L01254  LDA #$02
8CA0  85 54              STA $54
8CA2  60                 RTS
8CA3  00                 BYT $00
8CA4  00                 BYT $00
8CA5  00                 BYT $00
8CA6  00                 BYT $00
8CA7  00                 BYT $00
8CA8  A9 2A      L01255  LDA #$2A
8CAA  85 52              STA $52
8CAC  A9 65              LDA #$65
8CAE  85 53              STA $53
8CB0  A9 3F              LDA #$3F
8CB2  85 51              STA $51
8CB4  E6 50              INC $50
8CB6  A9 02      L01256  LDA #$02
8CB8  85 54              STA $54
8CBA  60                 RTS
                 ;________________________________________
8CBB  00                 BYT $00
8CBC  00                 BYT $00
8CBD  00                 BYT $00
8CBE  00                 BYT $00
8CBF  00                 BYT $00
                 ;________________________________________
8CC0  A0 07      L01257  LDY #$07
8CC2  A6 51              LDX $51
8CC4  B1 52      L01258  LDA ($52),Y
8CC6  C9 20              CMP #$20
8CC8  D0 05              BNE L01259
8CCA  BD 00 8F           LDA $8F00,X
8CCD  91 52              STA ($52),Y
8CCF  E8         L01259  INX
8CD0  88                 DEY
8CD1  10 F1              BPL L01258
8CD3  86 51              STX $51
8CD5  E0 40              CPX #$40
8CD7  D0 03              BNE L01260
8CD9  4C 60 8C           JMP L01249
8CDC  18         L01260  CLC
8CDD  A5 52              LDA $52
8CDF  69 A0              ADC #$A0
8CE1  85 52              STA $52
8CE3  90 02              BCC L01261
8CE5  E6 53              INC $53
8CE7  4C 6E 8C   L01261  JMP L01250
                 ;________________________________________
8CEA  EA                 NOP
8CEB  EA                 NOP
8CEC  EA                 NOP
8CED  EA                 NOP
8CEE  EA                 NOP
8CEF  EA                 NOP
8CF0  A0 07      L01262  LDY #$07
8CF2  A6 51              LDX $51
8CF4  B1 52      L01263  LDA ($52),Y
8CF6  C9 AB              CMP #$AB
8CF8  90 08              BCC L01264
8CFA  C9 B0              CMP #$B0
8CFC  B0 04              BCS L01264
8CFE  A9 20              LDA #$20
8D00  91 52              STA ($52),Y
8D02  E8         L01264  INX
8D03  88                 DEY
8D04  10 EE              BPL L01263
8D06  86 51              STX $51
8D08  E0 40              CPX #$40
8D0A  F0 0E              BEQ L01266
8D0C  18                 CLC
8D0D  A5 52              LDA $52
8D0F  69 A0              ADC #$A0
8D11  85 52              STA $52
8D13  90 02              BCC L01265
8D15  E6 53              INC $53
8D17  4C 6E 8C   L01265  JMP L01250
8D1A  E6 50      L01266  INC $50
8D1C  A9 50              LDA #$50
8D1E  85 54              STA $54
8D20  60         L01267  RTS
                 ;________________________________________
8D21  EA                 NOP
8D22  EA                 NOP
8D23  EA                 NOP
8D24  EA                 NOP
8D25  EA                 NOP
8D26  EA                 NOP
8D27  EA                 NOP
8D28  EA                 NOP
8D29  EA                 NOP
8D2A  EA                 NOP
8D2B  EA                 NOP
8D2C  EA                 NOP
8D2D  EA                 NOP
8D2E  EA                 NOP
8D2F  EA                 NOP
8D30  A0 07      L01268  LDY #$07
8D32  A6 51              LDX $51
8D34  B1 52      L01269  LDA ($52),Y
8D36  C9 20              CMP #$20
8D38  D0 05              BNE L01270
8D3A  BD 80 8F           LDA $8F80,X
8D3D  91 52              STA ($52),Y
8D3F  CA         L01270  DEX
8D40  88                 DEY
8D41  10 F1              BPL L01269
8D43  86 51              STX $51
8D45  E0 FF              CPX #$FF
8D47  D0 03              BNE L01271
8D49  4C 78 8C           JMP L01251
8D4C  38         L01271  SEC
8D4D  A5 52              LDA $52
8D4F  E9 A0              SBC #$A0
8D51  85 52              STA $52
8D53  B0 02              BCS L01272
8D55  C6 53              DEC $53
8D57  4C 86 8C   L01272  JMP L01252
                 ;________________________________________
8D5A  EA                 NOP
8D5B  EA                 NOP
8D5C  EA                 NOP
8D5D  EA                 NOP
8D5E  EA                 NOP
8D5F  EA                 NOP
8D60  A0 07      L01273  LDY #$07
8D62  A6 51              LDX $51
8D64  B1 52      L01274  LDA ($52),Y
8D66  C9 AB              CMP #$AB
8D68  90 08              BCC L01275
8D6A  C9 B0              CMP #$B0
8D6C  B0 04              BCS L01275
8D6E  A9 20              LDA #$20
8D70  91 52              STA ($52),Y
8D72  CA         L01275  DEX
8D73  88                 DEY
8D74  10 EE              BPL L01274
8D76  86 51              STX $51
8D78  E0 FF              CPX #$FF
8D7A  F0 0E              BEQ L01277
8D7C  38                 SEC
8D7D  A5 52              LDA $52
8D7F  E9 A0              SBC #$A0
8D81  85 52              STA $52
8D83  B0 02              BCS L01276
8D85  C6 53              DEC $53
8D87  4C 86 8C   L01276  JMP L01252
8D8A  E6 50      L01277  INC $50
8D8C  A9 30              LDA #$30
8D8E  85 54              STA $54
8D90  60                 RTS
                 ;________________________________________
8D91  00                 BYT $00
8D92  EA                 NOP
8D93  00                 BYT $00
8D94  EA                 NOP
8D95  00                 BYT $00
8D96  00                 BYT $00
8D97  00                 BYT $00
8D98  00                 BYT $00
8D99  00                 BYT $00
8D9A  00                 BYT $00
8D9B  00                 BYT $00
8D9C  00                 BYT $00
8D9D  00                 BYT $00
8D9E  00                 BYT $00
8D9F  00                 BYT $00
                 ;________________________________________
8DA0  A0 07      L01278  LDY #$07
8DA2  A6 51              LDX $51
8DA4  B1 52      L01279  LDA ($52),Y
8DA6  C9 20              CMP #$20
8DA8  D0 05              BNE L01280
8DAA  BD 40 8F           LDA $8F40,X
8DAD  91 52              STA ($52),Y
8DAF  E8         L01280  INX
8DB0  88                 DEY
8DB1  10 F1              BPL L01279
8DB3  86 51              STX $51
8DB5  E0 40              CPX #$40
8DB7  D0 03              BNE L01281
8DB9  4C 90 8C           JMP L01253
8DBC  18         L01281  CLC
8DBD  A5 52              LDA $52
8DBF  69 A0              ADC #$A0
8DC1  85 52              STA $52
8DC3  90 02              BCC L01282
8DC5  E6 53              INC $53
8DC7  4C 9E 8C   L01282  JMP L01254
                 ;________________________________________
8DCA  EA                 NOP
8DCB  EA                 NOP
8DCC  EA                 NOP
8DCD  EA                 NOP
8DCE  EA                 NOP
8DCF  EA                 NOP
8DD0  A0 07      L01283  LDY #$07
8DD2  A6 51              LDX $51
8DD4  B1 52      L01284  LDA ($52),Y
8DD6  C9 AB              CMP #$AB
8DD8  90 08              BCC L01285
8DDA  C9 B0              CMP #$B0
8DDC  B0 04              BCS L01285
8DDE  A9 20              LDA #$20
8DE0  91 52              STA ($52),Y
8DE2  E8         L01285  INX
8DE3  88                 DEY
8DE4  10 EE              BPL L01284
8DE6  86 51              STX $51
8DE8  E0 40              CPX #$40
8DEA  F0 0E              BEQ L01287
8DEC  18                 CLC
8DED  A5 52              LDA $52
8DEF  69 A0              ADC #$A0
8DF1  85 52              STA $52
8DF3  90 02              BCC L01286
8DF5  E6 53              INC $53
8DF7  4C 9E 8C   L01286  JMP L01254
8DFA  E6 50      L01287  INC $50
8DFC  A9 40              LDA #$40
8DFE  85 54              STA $54
8E00  60                 RTS
                 ;________________________________________
8E01  EA                 NOP
8E02  EA                 NOP
8E03  EA                 NOP
8E04  EA                 NOP
8E05  EA                 NOP
8E06  EA                 NOP
8E07  EA                 NOP
8E08  EA                 NOP
8E09  EA                 NOP
8E0A  EA                 NOP
8E0B  EA                 NOP
8E0C  EA                 NOP
8E0D  EA                 NOP
8E0E  EA                 NOP
8E0F  EA                 NOP
8E10  A0 07      L01288  LDY #$07
8E12  A6 51              LDX $51
8E14  B1 52      L01289  LDA ($52),Y
8E16  C9 20              CMP #$20
8E18  D0 05              BNE L01290
8E1A  BD C0 8F           LDA $8FC0,X
8E1D  91 52              STA ($52),Y
8E1F  CA         L01290  DEX
8E20  88                 DEY
8E21  10 F1              BPL L01289
8E23  86 51              STX $51
8E25  E0 FF              CPX #$FF
8E27  D0 03              BNE L01291
8E29  4C A8 8C           JMP L01255
8E2C  38         L01291  SEC
8E2D  A5 52              LDA $52
8E2F  E9 A0              SBC #$A0
8E31  85 52              STA $52
8E33  B0 02              BCS L01292
8E35  C6 53              DEC $53
8E37  4C B6 8C   L01292  JMP L01256
                 ;________________________________________
8E3A  EA                 NOP
8E3B  EA                 NOP
8E3C  EA                 NOP
8E3D  EA                 NOP
8E3E  EA                 NOP
8E3F  EA                 NOP
8E40  A0 07      L01293  LDY #$07
8E42  A6 51              LDX $51
8E44  B1 52      L01294  LDA ($52),Y
8E46  C9 AB              CMP #$AB
8E48  90 08              BCC L01295
8E4A  C9 B0              CMP #$B0
8E4C  B0 04              BCS L01295
8E4E  A9 20              LDA #$20
8E50  91 52              STA ($52),Y
8E52  CA         L01295  DEX
8E53  88                 DEY
8E54  10 EE              BPL L01294
8E56  86 51              STX $51
8E58  E0 FF              CPX #$FF
8E5A  F0 0E              BEQ L01297
8E5C  38                 SEC
8E5D  A5 52              LDA $52
8E5F  E9 A0              SBC #$A0
8E61  85 52              STA $52
8E63  B0 02              BCS L01296
8E65  C6 53              DEC $53
8E67  4C B6 8C   L01296  JMP L01256
8E6A  E6 50      L01297  INC $50
8E6C  A9 20              LDA #$20
8E6E  85 54              STA $54
8E70  60                 RTS
                 ;________________________________________
8E71  00                 BYT $00
8E72  00                 BYT $00
8E73  00                 BYT $00
8E74  00                 BYT $00
8E75  00                 BYT $00
8E76  00                 BYT $00
                 ;________________________________________
8E77  EA                 NOP
8E78  EA                 NOP
8E79  EA                 NOP
8E7A  EA                 NOP
8E7B  EA                 NOP
8E7C  EA                 NOP
8E7D  EA                 NOP
8E7E  EA                 NOP
8E7F  EA                 NOP
                 ;________________________________________
                 ;
                 ;   Set SPRITE X POS MSB
                 ;
8E80  AD 10 D0   L01298  LDA $D010
8E83  25 12              AND $12
8E85  D0 09              BNE L01300
8E87  AD 10 D0   L01299  LDA $D010
8E8A  05 12              ORA $12
8E8C  8D 10 D0           STA $D010
8E8F  60                 RTS
8E90  A5 12      L01300  LDA $12
8E92  49 FF              EOR #$FF
8E94  85 13              STA $13
8E96  AD 10 D0           LDA $D010
8E99  25 13              AND $13
8E9B  8D 10 D0           STA $D010
8E9E  60                 RTS
                 ;________________________________________
8E9F  00                 BYT $00
                 ;________________________________________
8EA0  AD 04 DC           LDA $DC04           ; Timer A low byte (used as random freq)
8EA3  29 07              AND #$07            ; BIT 3 4 5 6 7 OFF
8EA5  8D 0F D4           STA $D40F           ; FREQUENCY VOICE 3 - HI
8EA8  4C 95 9F           JMP L01569
                 ;________________________________________
8EAB  00                 BYT $00
8EAC  00                 BYT $00
8EAD  00                 BYT $00
8EAE  00                 BYT $00
8EAF  00                 BYT $00
                 ;________________________________________
                 ;
                 ;   Random value between $F0 - $FF
                 ;
8EB0  AD 04 DC   L01301  LDA $DC04           ; Timer A low byte
8EB3  29 0F              AND #$0F
8EB5  09 F0              ORA #$F0
8EB7  60                 RTS
                 ;________________________________________
8EB8  00                 BYT $00
8EB9  00                 BYT $00
8EBA  00                 BYT $00
8EBB  00                 BYT $00
8EBC  00                 BYT $00
8EBD  00                 BYT $00
8EBE  00                 BYT $00
8EBF  00                 BYT $00
                 ;________________________________________
8EC0  A9 21              LDA #$21            ; ENABLE
8EC2  8D 04 D4           STA $D404           ; VOICE 1
8EC5  8D 0B D4           STA $D40B           ; VOICE 2
8EC8  A9 41              LDA #$41            ; ENABLE
8ECA  8D 12 D4           STA $D412           ; VOICE 3
8ECD  A9 E0              LDA #$E0
8ECF  85 30              STA $30
8ED1  85 34              STA $34
8ED3  A9 8A              LDA #$8A            ; Song pointer - Song no. 12
8ED5  85 31              STA $31
8ED7  85 35              STA $35
8ED9  A9 00              LDA #$00
8EDB  85 33              STA $33
8EDD  A9 0E              LDA #$0E
8EDF  85 32              STA $32
8EE1  85 36              STA $36
8EE3  4C 80 9F           JMP L01565          ; Pause
                 ;________________________________________
8EE6  EA                 NOP
8EE7  00                 BYT $00
8EE8  00                 BYT $00
8EE9  00                 BYT $00
                 ;________________________________________
8EEA  AD 04 DC   L01302  LDA $DC04           ; Timer A low byte (used as random freq)
8EED  29 07              AND #$07            ; BIT 3 4 5 6 7 OFF
8EEF  8D 01 D4           STA $D401           ; FREQUENCY VOICE 1 - HI
8EF2  29 03              AND #$03
8EF4  8D 07 D4           STA $D407           ; FREQUENCY VOICE 2 - LO
8EF7  60                 RTS
                 ;________________________________________
8EF8  00                 BYT $00
8EF9  00                 BYT $00
8EFA  00                 BYT $00
8EFB  00                 BYT $00
8EFC  00                 BYT $00
8EFD  00                 BYT $00
8EFE  00                 BYT $00
8EFF  00                 BYT $00
                 ;________________________________________
8F00  20                 BYT $20
8F01  20                 BYT $20
8F02  20                 BYT $20
8F03  20                 BYT $20
8F04  20                 BYT $20
8F05  20                 BYT $20
8F06  AB                 BYT $AB
8F07  AC                 BYT $AC
8F08  20                 BYT $20
8F09  20                 BYT $20
8F0A  20                 BYT $20
8F0B  20                 BYT $20
8F0C  20                 BYT $20
8F0D  AB                 BYT $AB
8F0E  AC                 BYT $AC
8F0F  AD                 BYT $AD
8F10  20                 BYT $20
8F11  20                 BYT $20
8F12  20                 BYT $20
8F13  20                 BYT $20
8F14  AB                 BYT $AB
8F15  AC                 BYT $AC
8F16  AD                 BYT $AD
8F17  20                 BYT $20
8F18  20                 BYT $20
8F19  20                 BYT $20
8F1A  AB                 BYT $AB
8F1B  AC                 BYT $AC
8F1C  AC                 BYT $AC
8F1D  AD                 BYT $AD
8F1E  20                 BYT $20
8F1F  20                 BYT $20
8F20  20                 BYT $20
8F21  AB                 BYT $AB
8F22  AC                 BYT $AC
8F23  AC                 BYT $AC
8F24  AD                 BYT $AD
8F25  20                 BYT $20
8F26  20                 BYT $20
8F27  20                 BYT $20
8F28  AB                 BYT $AB
8F29  AC                 BYT $AC
8F2A  AC                 BYT $AC
8F2B  AC                 BYT $AC
8F2C  AD                 BYT $AD
8F2D  20                 BYT $20
8F2E  20                 BYT $20
8F2F  20                 BYT $20
8F30  20                 BYT $20
8F31  AB                 BYT $AB
8F32  AC                 BYT $AC
8F33  AD                 BYT $AD
8F34  20                 BYT $20
8F35  20                 BYT $20
8F36  20                 BYT $20
8F37  20                 BYT $20
8F38  20                 BYT $20
8F39  20                 BYT $20
8F3A  AD                 BYT $AD
8F3B  20                 BYT $20
8F3C  20                 BYT $20
8F3D  20                 BYT $20
8F3E  20                 BYT $20
8F3F  20                 BYT $20
8F40  AC                 BYT $AC
8F41  AE                 BYT $AE
8F42  20                 BYT $20
8F43  20                 BYT $20
8F44  20                 BYT $20
8F45  20                 BYT $20
8F46  20                 BYT $20
8F47  20                 BYT $20
8F48  AF                 BYT $AF
8F49  AC                 BYT $AC
8F4A  AE                 BYT $AE
8F4B  20                 BYT $20
8F4C  20                 BYT $20
8F4D  20                 BYT $20
8F4E  20                 BYT $20
8F4F  20                 BYT $20
8F50  20                 BYT $20
8F51  AF                 BYT $AF
8F52  AC                 BYT $AC
8F53  AE                 BYT $AE
8F54  20                 BYT $20
8F55  20                 BYT $20
8F56  20                 BYT $20
8F57  20                 BYT $20
8F58  20                 BYT $20
8F59  20                 BYT $20
8F5A  AF                 BYT $AF
8F5B  AC                 BYT $AC
8F5C  AC                 BYT $AC
8F5D  AE                 BYT $AE
8F5E  20                 BYT $20
8F5F  20                 BYT $20
8F60  20                 BYT $20
8F61  20                 BYT $20
8F62  20                 BYT $20
8F63  AF                 BYT $AF
8F64  AC                 BYT $AC
8F65  AC                 BYT $AC
8F66  AE                 BYT $AE
8F67  20                 BYT $20
8F68  20                 BYT $20
8F69  20                 BYT $20
8F6A  20                 BYT $20
8F6B  AF                 BYT $AF
8F6C  AC                 BYT $AC
8F6D  AC                 BYT $AC
8F6E  AC                 BYT $AC
8F6F  AE                 BYT $AE
8F70  20                 BYT $20
8F71  20                 BYT $20
8F72  20                 BYT $20
8F73  20                 BYT $20
8F74  AF                 BYT $AF
8F75  AC                 BYT $AC
8F76  AE                 BYT $AE
8F77  20                 BYT $20
8F78  20                 BYT $20
8F79  20                 BYT $20
8F7A  20                 BYT $20
8F7B  20                 BYT $20
8F7C  20                 BYT $20
8F7D  AF                 BYT $AF
8F7E  20                 BYT $20
8F7F  20                 BYT $20
8F80  20                 BYT $20
8F81  20                 BYT $20
8F82  AB                 BYT $AB
8F83  20                 BYT $20
8F84  20                 BYT $20
8F85  20                 BYT $20
8F86  20                 BYT $20
8F87  20                 BYT $20
8F88  20                 BYT $20
8F89  AC                 BYT $AC
8F8A  AC                 BYT $AC
8F8B  AB                 BYT $AB
8F8C  20                 BYT $20
8F8D  20                 BYT $20
8F8E  20                 BYT $20
8F8F  20                 BYT $20
8F90  AD                 BYT $AD
8F91  AC                 BYT $AC
8F92  AC                 BYT $AC
8F93  AC                 BYT $AC
8F94  AB                 BYT $AB
8F95  20                 BYT $20
8F96  20                 BYT $20
8F97  20                 BYT $20
8F98  20                 BYT $20
8F99  AD                 BYT $AD
8F9A  AC                 BYT $AC
8F9B  AC                 BYT $AC
8F9C  AB                 BYT $AB
8F9D  20                 BYT $20
8F9E  20                 BYT $20
8F9F  20                 BYT $20
8FA0  20                 BYT $20
8FA1  20                 BYT $20
8FA2  AD                 BYT $AD
8FA3  AC                 BYT $AC
8FA4  AC                 BYT $AC
8FA5  AB                 BYT $AB
8FA6  20                 BYT $20
8FA7  20                 BYT $20
8FA8  20                 BYT $20
8FA9  20                 BYT $20
8FAA  20                 BYT $20
8FAB  20                 BYT $20
8FAC  AD                 BYT $AD
8FAD  AC                 BYT $AC
8FAE  AB                 BYT $AB
8FAF  20                 BYT $20
8FB0  20                 BYT $20
8FB1  20                 BYT $20
8FB2  20                 BYT $20
8FB3  20                 BYT $20
8FB4  20                 BYT $20
8FB5  AD                 BYT $AD
8FB6  AC                 BYT $AC
8FB7  AB                 BYT $AB
8FB8  20                 BYT $20
8FB9  20                 BYT $20
8FBA  20                 BYT $20
8FBB  20                 BYT $20
8FBC  20                 BYT $20
8FBD  20                 BYT $20
8FBE  AD                 BYT $AD
8FBF  AB                 BYT $AB
8FC0  20                 BYT $20
8FC1  20                 BYT $20
8FC2  20                 BYT $20
8FC3  20                 BYT $20
8FC4  20                 BYT $20
8FC5  AE                 BYT $AE
8FC6  20                 BYT $20
8FC7  20                 BYT $20
8FC8  20                 BYT $20
8FC9  20                 BYT $20
8FCA  20                 BYT $20
8FCB  20                 BYT $20
8FCC  AE                 BYT $AE
8FCD  AC                 BYT $AC
8FCE  AF                 BYT $AF
8FCF  20                 BYT $20
8FD0  20                 BYT $20
8FD1  20                 BYT $20
8FD2  20                 BYT $20
8FD3  AE                 BYT $AE
8FD4  AC                 BYT $AC
8FD5  AC                 BYT $AC
8FD6  AC                 BYT $AC
8FD7  AF                 BYT $AF
8FD8  20                 BYT $20
8FD9  20                 BYT $20
8FDA  20                 BYT $20
8FDB  AE                 BYT $AE
8FDC  AC                 BYT $AC
8FDD  AC                 BYT $AC
8FDE  AF                 BYT $AF
8FDF  20                 BYT $20
8FE0  20                 BYT $20
8FE1  20                 BYT $20
8FE2  AE                 BYT $AE
8FE3  AC                 BYT $AC
8FE4  AC                 BYT $AC
8FE5  AF                 BYT $AF
8FE6  20                 BYT $20
8FE7  20                 BYT $20
8FE8  20                 BYT $20
8FE9  AE                 BYT $AE
8FEA  AC                 BYT $AC
8FEB  AF                 BYT $AF
8FEC  20                 BYT $20
8FED  20                 BYT $20
8FEE  20                 BYT $20
8FEF  20                 BYT $20
8FF0  AE                 BYT $AE
8FF1  AC                 BYT $AC
8FF2  AF                 BYT $AF
8FF3  20                 BYT $20
8FF4  20                 BYT $20
8FF5  20                 BYT $20
8FF6  20                 BYT $20
8FF7  20                 BYT $20
8FF8  AC                 BYT $AC
8FF9  AF                 BYT $AF
8FFA  20                 BYT $20
8FFB  20                 BYT $20
8FFC  20                 BYT $20
8FFD  20                 BYT $20
8FFE  20                 BYT $20
8FFF  20                 BYT $20
                 ;________________________________________
9000  A9 00      L01305  LDA #$00
9002  85 38              STA $38
9004  A9 04              LDA #$04
9006  85 39              STA $39
9008  A0 00      L01306  LDY #$00
900A  B1 38      L01307  LDA ($38),Y
900C  C9 B0              CMP #$B0
900E  D0 05              BNE L01308
9010  84 38              STY $38
9012  4C 25 90           JMP L01310
9015  C8         L01308  INY
9016  D0 F2              BNE L01307
9018  E6 39              INC $39
901A  A5 39              LDA $39
901C  C9 07              CMP #$07
901E  90 E8              BCC L01306
9020  C0 E8      L01309  CPY #$E8
9022  D0 E4              BNE L01306
9024  60                 RTS
9025  A5 39      L01310  LDA $39
9027  C9 04              CMP #$04
9029  D0 03              BNE L01311
902B  4C 40 90           JMP L01314
902E  C9 05      L01311  CMP #$05
9030  D0 03              BNE L01312
9032  4C 55 90           JMP L01317
9035  C9 06      L01312  CMP #$06
9037  D0 03              BNE L01313
9039  4C 6A 90           JMP L01320
903C  4C 80 90   L01313  JMP L01323
                 ;________________________________________
903F  EA                 NOP
9040  A2 00      L01314  LDX #$00
9042  A5 38      L01315  LDA $38
9044  DD E0 90           CMP $90E0,X
9047  90 05              BCC L01316
9049  E8                 INX
904A  E0 07              CPX #$07
904C  D0 F4              BNE L01315
904E  CA         L01316  DEX
904F  BD E0 90           LDA $90E0,X
9052  4C 92 90           JMP L01326
                 ;________________________________________
9055  A2 00      L01317  LDX #$00
9057  A5 38      L01318  LDA $38
9059  DD E7 90           CMP $90E7,X
905C  90 05              BCC L01319
905E  E8                 INX
905F  E0 07              CPX #$07
9061  D0 F4              BNE L01318
9063  CA         L01319  DEX
9064  BD E7 90           LDA $90E7,X
9067  4C 92 90           JMP L01326
                 ;________________________________________
906A  A2 00      L01320  LDX #$00
906C  A5 38      L01321  LDA $38
906E  DD ED 90           CMP $90ED,X
9071  90 05              BCC L01322
9073  E8                 INX
9074  E0 07              CPX #$07
9076  D0 F4              BNE L01321
9078  CA         L01322  DEX
9079  BD ED 90           LDA $90ED,X
907C  4C 92 90           JMP L01326
                 ;________________________________________
907F  00                 BYT $00
                 ;________________________________________
9080  A2 00      L01323  LDX #$00
9082  A5 38      L01324  LDA $38
9084  DD F4 90           CMP $90F4,X
9087  90 05              BCC L01325
9089  E8                 INX
908A  E0 07              CPX #$07
908C  D0 F4              BNE L01324
908E  CA         L01325  DEX
908F  BD F4 90           LDA $90F4,X
9092  85 3A      L01326  STA $3A
9094  85 3B              STA $3B
9096  38                 SEC
9097  A5 38              LDA $38
9099  E5 3A              SBC $3A
909B  85 3A              STA $3A
909D  18                 CLC
909E  06 3A              ASL $3A
90A0  06 3A              ASL $3A
90A2  06 3A              ASL $3A
90A4  90 08      L01327  BCC L01328
90A6  AD 10 D0           LDA $D010
90A9  09 80              ORA #$80            ; BIT 7 ON
90AB  8D 10 D0           STA $D010
90AE  18         L01328  CLC
90AF  A5 3A              LDA $3A
90B1  69 18              ADC #$18
90B3  85 3A              STA $3A
90B5  90 08              BCC L01329
90B7  AD 10 D0           LDA $D010
90BA  09 80              ORA #$80            ; BIT 7 ON
90BC  8D 10 D0           STA $D010
90BF  A2 00      L01329  LDX #$00
90C1  BD E0 90   L01330  LDA $90E0,X
90C4  C5 3B              CMP $3B
90C6  F0 05              BEQ L01331
90C8  E8                 INX
90C9  E0 1A              CPX #$1A
90CB  D0 F4              BNE L01330
90CD  18         L01331  CLC
90CE  A9 00              LDA #$00
90D0  69 08      L01332  ADC #$08
90D2  85 3B              STA $3B
90D4  CA                 DEX
90D5  D0 F9              BNE L01332
90D7  18                 CLC
90D8  A5 3B              LDA $3B
90DA  69 32              ADC #$32
90DC  85 3B              STA $3B
90DE  60                 RTS
                 ;________________________________________
90DF  EA                 NOP
90E0  00                 BYT $00
90E1  28                 BYT $28
90E2  50                 BYT $50
90E3  78                 BYT $78
90E4  A0                 BYT $A0
90E5  C8                 BYT $C8
90E6  F0                 BYT $F0
90E7  18                 BYT $18
90E8  40                 BYT $40
90E9  68                 BYT $68
90EA  90                 BYT $90
90EB  B8                 BYT $B8
90EC  E0                 BYT $E0
90ED  08                 BYT $08
90EE  30                 BYT $30
90EF  58                 BYT $58
90F0  80                 BYT $80
90F1  A8                 BYT $A8
90F2  D0                 BYT $D0
90F3  F8                 BYT $F8
90F4  20                 BYT $20
90F5  48                 BYT $48
90F6  70                 BYT $70
90F7  98                 BYT $98
90F8  C0                 BYT $C0
90F9  E8                 BYT $E8
90FA  00                 BYT $00
90FB  00                 BYT $00
90FC  00                 BYT $00
90FD  00                 BYT $00
90FE  00                 BYT $00
90FF  00                 BYT $00
                 ;________________________________________
9100  A9 93      L01334  LDA #$93
9102  20 D2 FF           JSR $FFD2           ; Clear screen via CHROUT
9105  AD 18 D0           LDA $D018           ; VIC MEMORY CONTROL REGISTER
9108  29 F0              AND #$F0
910A  09 0E              ORA #$0E            ; Chars at $3800
910C  8D 18 D0           STA $D018           ; VIC MEMORY CONTROL REGISTER
910F  AD 16 D0           LDA $D016           ; VIC CONTROL REGISTER 2
9112  09 10              ORA #$10            ; MCM ON
9114  8D 16 D0           STA $D016
9117  A9 0C              LDA #$0C            ; GRAY 2
9119  8D 22 D0           STA $D022           ; BACKGROUND COLOR 1
911C  A9 08              LDA #$08            ; ORANGE
911E  8D 23 D0           STA $D023           ; BACKGROUND COLOR 2
9121  A9 00              LDA #$00            ; BLACK
9123  8D 20 D0           STA $D020           ; BORDER COLOR
9126  8D 21 D0           STA $D021           ; BACKGROUND COLOR
9129  A9 0E              LDA #$0E
912B  20 87 95           JSR L01417          ; Set Color RAM and Background Color to BLACK
912E  A2 28              LDX #$28
9130  A9 00      L01336  LDA #$00
9132  9D 00 D4           STA $D400,X
9135  CA                 DEX
9136  10 F8              BPL L01336
9138  A2 18              LDX #$18
913A  BD 10 9C   L01337  LDA $9C10,X
913D  9D 00 D4           STA $D400,X         ; Initialise SID registers
9140  CA                 DEX
9141  10 F7              BPL L01337
9143  78                 SEI
9144  A9 00              LDA #$00
9146  8D 14 03           STA $0314           ; HARDWARE IRQ VECTOR - LO
9149  A9 80              LDA #$80            ; Interrupt routine at $8000
914B  8D 15 03           STA $0315           ; HARDWARE IRQ VECTOR - HI
914E  58                 CLI
914F  EA                 NOP
9150  EA                 NOP
9151  EA                 NOP
9152  EA                 NOP
9153  EA                 NOP
9154  EA                 NOP
9155  EA                 NOP
9156  A9 05      L01339  LDA #$05
9158  8D FA 9F           STA $9FFA
915B  A9 0A              LDA #$0A            ; 2 * No. of lives to begin game with
915D  A2 00              LDX #$00
915F  8D F9 9F           STA $9FF9           ; 2 * Initial no. of lives
9162  8E F8 9F           STX $9FF8
9165  20 88 93           JSR L01388          ; Initialise page zero
9168  A2 00              LDX #$00
916A  A0 00      L01341  LDY #$00
916C  BD 70 9A   L01342  LDA $9A70,X
916F  91 60              STA ($60),Y         ; Show initial whirl
9171  E8                 INX
9172  C8                 INY
9173  C0 10              CPY #$10
9175  D0 F5              BNE L01342
9177  18                 CLC
9178  A5 60              LDA $60
917A  69 28              ADC #$28
917C  85 60              STA $60
917E  90 02              BCC L01343
9180  E6 61              INC $61
9182  C6 64      L01343  DEC $64
9184  10 E4              BPL L01341
9186  20 B0 91           JSR L01347          ; Pause
9189  A2 00              LDX #$00
918B  A0 00      L01344  LDY #$00
918D  BD 20 9B   L01345  LDA $9B20,X
9190  91 62              STA ($62),Y         ; Show 'COSMI' text
9192  E8                 INX
9193  C8                 INY
9194  C0 14              CPY #$14
9196  D0 F5              BNE L01345
9198  18                 CLC
9199  A5 62              LDA $62
919B  69 28              ADC #$28
919D  85 62              STA $62
919F  90 02              BCC L01346
91A1  E6 63              INC $63
91A3  C6 65      L01346  DEC $65
91A5  10 E4              BPL L01344
91A7  20 B0 91           JSR L01347          ; Pause
91AA  4C C2 91           JMP L01350
                 ;________________________________________
91AD  EA                 NOP
91AE  EA                 NOP
91AF  EA                 NOP
                 ;________________________________________
                 ;
                 ;   Pause
                 ;
91B0  A9 00      L01347  LDA #$00
91B2  A8         L01348  TAY
91B3  AA                 TAX
91B4  AD 12 D0   L01349  LDA $D012           ; VIC RASTER REGISTER
91B7  D0 FB              BNE L01349          ; Wait for line 0
91B9  CA                 DEX
91BA  D0 F8              BNE L01349
91BC  C8                 INY
91BD  C0 23              CPY #$23
91BF  D0 F3              BNE L01349
91C1  60                 RTS
                 ;________________________________________
91C2  A2 00      L01350  LDX #$00
91C4  AD 04 DC   L01351  LDA $DC04           ; Timer A low byte (used as random char)
91C7  29 7F              AND #$7F
91C9  9D 00 04           STA $0400,X         ; Show title screen
91CC  9D 00 05           STA $0500,X
91CF  9D 00 06           STA $0600,X
91D2  E8                 INX
91D3  D0 EF              BNE L01351
91D5  AD 04 DC   L01352  LDA $DC04           ; Timer A low byte (used as random char)
91D8  29 7F              AND #$7F
91DA  9D 00 07           STA $0700,X
91DD  E8                 INX
91DE  E0 E8              CPX #$E8
91E0  D0 F3              BNE L01352
91E2  A9 04              LDA #$04
91E4  85 64              STA $64
91E6  A9 F7              LDA #$F7
91E8  85 60              STA $60
91EA  A9 5F              LDA #$5F
91EC  85 62              STA $62
91EE  A9 04              LDA #$04
91F0  85 61              STA $61
91F2  A9 06              LDA #$06
91F4  85 63              STA $63
91F6  A2 00              LDX #$00
91F8  A0 00      L01353  LDY #$00
91FA  BD 30 9C   L01354  LDA $9C30,X
91FD  91 60              STA ($60),Y
91FF  BD B0 9C           LDA $9CB0,X
9202  91 62              STA ($62),Y
9204  E8                 INX
9205  C8                 INY
9206  C0 19              CPY #$19
9208  D0 F0              BNE L01354
920A  18                 CLC
920B  A5 60              LDA $60
920D  69 28              ADC #$28
920F  85 60              STA $60
9211  90 02              BCC L01355
9213  E6 61              INC $61
9215  18         L01355  CLC
9216  A5 62              LDA $62
9218  69 28              ADC #$28
921A  85 62              STA $62
921C  90 02              BCC L01356
921E  E6 63              INC $63
9220  C6 64      L01356  DEC $64
9222  10 D4              BPL L01353
9224  A2 04              LDX #$04
9226  BD 30 9D   L01357  LDA $9D30,X
9229  9D F1 05           STA $05F1,X
922C  BD 35 9D           LDA $9D35,X
922F  9D 19 06           STA $0619,X
9232  CA                 DEX
9233  10 F1              BPL L01357
9235  20 B0 91           JSR L01347          ; Pause
9238  4C 51 92           JMP L01359
                 ;________________________________________
923B  EA                 NOP
923C  EA                 NOP
923D  EA                 NOP
923E  EA                 NOP
923F  EA                 NOP
9240  EA                 NOP
9241  EA                 NOP
9242  EA                 NOP
9243  EA                 NOP
9244  EA                 NOP
9245  EA                 NOP
9246  EA                 NOP
9247  EA                 NOP
9248  EA                 NOP
9249  EA                 NOP
924A  EA                 NOP
924B  EA                 NOP
924C  EA                 NOP
924D  EA                 NOP
924E  20 88 93   L01358  JSR L01388          ; Initialise page zero
9251  20 68 93   L01359  JSR L01384
9254  20 C0 93           JSR L01392
9257  20 60 92           JSR L01361
925A  20 D0 9D           JSR L01523          ; Empty slots on map
925D  4C 03 10   L01360  JMP L00075
                 ;________________________________________
9260  A4 37      L01361  LDY $37
9262  A9 03              LDA #$03
9264  EA                 NOP
9265  85 12              STA $12
9267  AD 04 DC   L01362  LDA $DC04           ; Timer A low byte
926A  29 3E              AND #$3E
926C  AA                 TAX
926D  BD 00 9E           LDA $9E00,X
9270  85 4E              STA $4E
9272  E8                 INX
9273  BD 00 9E           LDA $9E00,X
9276  85 4F              STA $4F
9278  A0 00              LDY #$00
927A  A9 B0              LDA #$B0
927C  91 4E              STA ($4E),Y
927E  AD 10 D0           LDA $D010
9281  29 7F              AND #$7F            ; BIT 7 OFF
9283  8D 10 D0           STA $D010
9286  20 80 9F           JSR L01565          ; Pause
9289  C6 12              DEC $12
928B  10 DA              BPL L01362
928D  60                 RTS
                 ;________________________________________
928E  EA                 NOP
928F  EA                 NOP
9290  A5 1F      L01364  LDA $1F
9292  C9 01              CMP #$01
9294  B0 04              BCS L01365
9296  A9 18              LDA #$18
9298  D0 1A              BNE L01369
929A  C9 02      L01365  CMP #$02
929C  B0 04              BCS L01366
929E  A9 14              LDA #$14
92A0  D0 12              BNE L01369
92A2  C9 03      L01366  CMP #$03
92A4  B0 04              BCS L01367
92A6  A9 0F              LDA #$0F
92A8  D0 0A              BNE L01369
92AA  C9 04      L01367  CMP #$04
92AC  B0 04              BCS L01368
92AE  A9 0A              LDA #$0A
92B0  D0 02              BNE L01369
92B2  A9 05      L01368  LDA #$05
92B4  85 3F      L01369  STA $3F
92B6  4C F0 92           JMP L01375
                 ;________________________________________
92B9  00                 BYT $00
92BA  00                 BYT $00
92BB  00                 BYT $00
92BC  00                 BYT $00
92BD  00                 BYT $00
92BE  00                 BYT $00
92BF  00                 BYT $00
                 ;________________________________________
92C0  C6 3F      L01370  DEC $3F
92C2  10 03              BPL L01371
92C4  4C 00 0C           JMP L00001
92C7  4C DE 88   L01371  JMP L01190
                 ;________________________________________
92CA  EA                 NOP
92CB  00                 BYT $00
92CC  00                 BYT $00
92CD  00                 BYT $00
92CE  00                 BYT $00
92CF  00                 BYT $00
                 ;________________________________________
92D0  A9 24      L01372  LDA #$24
92D2  4C 82 9F           JMP L01566
                 ;________________________________________
92D5  00                 BYT $00
92D6  00                 BYT $00
92D7  00                 BYT $00
92D8  00                 BYT $00
92D9  00                 BYT $00
92DA  00                 BYT $00
                 ;________________________________________
92DB  A9 00      L01373  LDA #$00
92DD  8D 15 D0           STA $D015           ; SPRITE DISPLAY
92E0  A9 21      L01374  LDA #$21            ; ENABLE
92E2  8D 04 D4           STA $D404           ; VOICE 1
92E5  8D 0B D4           STA $D40B           ; VOICE 2
92E8  A9 41              LDA #$41            ; ENABLE
92EA  8D 12 D4           STA $D412           ; VOICE 3
92ED  4C 56 91           JMP L01339
                 ;________________________________________
92F0  A9 21      L01375  LDA #$21            ; ENABLE
92F2  8D 04 D4           STA $D404           ; VOICE 1
92F5  8D 0B D4           STA $D40B           ; VOICE 2
92F8  A9 41              LDA #$41            ; ENABLE
92FA  8D 12 D4           STA $D412           ; VOICE 3
92FD  4C D0 89           JMP L01214
                 ;________________________________________
9300  A9 B0      L01376  LDA #$B0
9302  85 1C              STA $1C
9304  A9 44              LDA #$44
9306  85 1D              STA $1D
9308  A0 00      L01377  LDY #$00
930A  B1 1C      L01378  LDA ($1C),Y         ; $55E5 ???
930C  C9 7F              CMP #$7F            ; Elevator Cable?
930E  F0 08              BEQ L01379
9310  C9 82              CMP #$82
9312  90 08              BCC L01380
9314  C9 87              CMP #$87
9316  B0 04              BCS L01380
9318  A9 20      L01379  LDA #$20
931A  91 1C              STA ($1C),Y
931C  C8         L01380  INY
931D  D0 EB              BNE L01378
931F  E6 1D              INC $1D
9321  A5 1D              LDA $1D
9323  C9 7A              CMP #$7A
9325  D0 E1              BNE L01377
9327  A9 85              LDA #$85
9329  8D 6D 43           STA $436D           ; Draw elevator cage
932C  8D 6E 43           STA $436E
932F  8D 6F 43           STA $436F
9332  A9 83              LDA #$83
9334  8D 0D 44           STA $440D
9337  8D 0E 44           STA $440E
933A  8D 0F 44           STA $440F
933D  A9 86              LDA #$86
933F  8D AD 44           STA $44AD
9342  8D AE 44           STA $44AE
9345  8D AF 44           STA $44AF
9348  60                 RTS
                 ;________________________________________
9349  60                 RTS
                 ;________________________________________
934A  AD F9 9F   L01381  LDA $9FF9           ; 2 * Initial no. of lives
934D  C9 03              CMP #$03
934F  90 06              BCC L01382
9351  CE F9 9F           DEC $9FF9           ; Is this instruction ever reached?
9354  CE F9 9F           DEC $9FF9           ; 2 * Initial no. of lives
9357  AD FA 9F   L01382  LDA $9FFA
935A  C9 02              CMP #$02
935C  90 03              BCC L01383
935E  CE FA 9F           DEC $9FFA           ; Is this instruction ever reached?
9361  4C 4E 92   L01383  JMP L01358
                 ;________________________________________
9364  EA                 NOP
9365  00                 BYT $00
9366  00                 BYT $00
9367  00                 BYT $00
                 ;________________________________________
9368  A9 00      L01384  LDA #$00
936A  85 1C              STA $1C
936C  A9 40              LDA #$40
936E  85 1D              STA $1D
9370  A0 00      L01385  LDY #$00
9372  B1 1C      L01386  LDA ($1C),Y         ; $55E5 ???
9374  C9 B0              CMP #$B0
9376  D0 04              BNE L01387
9378  A9 20              LDA #$20
937A  91 1C              STA ($1C),Y
937C  C8         L01387  INY
937D  D0 F3              BNE L01386
937F  E6 1D              INC $1D
9381  A5 1D              LDA $1D
9383  C9 80              CMP #$80
9385  D0 E9              BNE L01385
9387  60                 RTS
                 ;________________________________________
                 ;
                 ;   Initialise page zero
                 ;
9388  A2 02      L01388  LDX #$02
938A  BD 00 9A   L01389  LDA $9A00,X
938D  95 00              STA $00,X
938F  E8                 INX
9390  E0 68              CPX #$68
9392  D0 F6              BNE L01389
9394  60                 RTS
                 ;________________________________________
9395  A6 09      L01390  LDX $09             ; Put tombstone on map ($09 = 0, 2, 4, 6, 8)
9397  A9 B2              LDA #$B2
9399  9D FA 43           STA $43FA,X
939C  A9 B3              LDA #$B3
939E  9D 9A 44           STA $449A,X
93A1  A9 B4              LDA #$B4
93A3  9D FB 43           STA $43FB,X
93A6  A9 B5              LDA #$B5
93A8  9D 9B 44           STA $449B,X
93AB  E6 09              INC $09             ; No. of tombstones
93AD  E6 09              INC $09
93AF  A5 09              LDA $09             ; No. of tombstones
93B1  CD F9 9F           CMP $9FF9           ; 2 * Initial no. of lives
93B4  90 09              BCC L01391
93B6  20 A0 95           JSR L01421
93B9  20 D0 96           JSR L01447
93BC  4C DB 92           JMP L01373
93BF  60         L01391  RTS
                 ;________________________________________
93C0  A2 00      L01392  LDX #$00
93C2  A9 20      L01393  LDA #$20
93C4  9D FA 43           STA $43FA,X         ; Remove tombstones from map
93C7  9D 9A 44           STA $449A,X
93CA  EA                 NOP
93CB  E8                 INX
93CC  E0 0A              CPX #$0A
93CE  D0 F2              BNE L01393
93D0  4C 00 93           JMP L01376
                 ;________________________________________
93D3  00                 BYT $00
93D4  EA                 NOP
93D5  EA                 NOP
93D6  EA                 NOP
93D7  EA                 NOP
93D8  EA                 NOP
93D9  EA                 NOP
93DA  EA                 NOP
93DB  EA                 NOP
93DC  EA                 NOP
93DD  EA                 NOP
93DE  EA                 NOP
93DF  EA                 NOP
93E0  EA                 NOP
93E1  EA                 NOP
93E2  EA                 NOP
93E3  EA                 NOP
93E4  EA                 NOP
93E5  EA                 NOP
93E6  EA                 NOP
93E7  EA                 NOP
                 ;________________________________________
93E8  86 12      L01394  STX $12
93EA  84 13              STY $13
93EC  20 95 9F           JSR L01569
93EF  A6 12              LDX $12
93F1  A4 13              LDY $13
93F3  A9 81              LDA #$81            ; ENABLE
93F5  8D 12 D4           STA $D412           ; VOICE 3
93F8  A9 E0              LDA #$E0
93FA  8D 0F D4           STA $D40F           ; FREQUENCY VOICE 3 - HI
93FD  60                 RTS
                 ;________________________________________
93FE  EA                 NOP
93FF  EA                 NOP
                 ;________________________________________
                 ;
                 ;   Start end game
                 ;
9400  A9 07      L01395  LDA #$07
9402  8D 15 D0           STA $D015           ; SPRITE DISPLAY
9405  A0 06              LDY #$06
9407  A2 06              LDX #$06
9409  B9 40 8B   L01396  LDA $8B40,Y         ; Song pointer - Song no. 8 (End game)
940C  95 30              STA $30,X
940E  88                 DEY
940F  CA                 DEX
9410  10 F7              BPL L01396
9412  20 80 9F           JSR L01565          ; Pause
9415  A9 C0              LDA #$C0
9417  85 4E              STA $4E
9419  20 70 35   L01397  JSR L00622          ; Scroll screen right
941C  20 80 9F           JSR L01565          ; Pause
941F  20 40 36           JSR L00639          ; Scroll screen left
9422  20 80 9F           JSR L01565          ; Pause
9425  C6 4E              DEC $4E
9427  D0 F0              BNE L01397
9429  A0 00              LDY #$00
942B  A2 03      L01399  LDX #$03
942D  BD 30 8B   L01400  LDA $8B30,X
9430  99 21 D0           STA $D021,Y         ; Set background colors
9433  20 E8 93           JSR L01394
9436  CA                 DEX
9437  10 F4              BPL L01400
9439  C8                 INY
943A  C0 03              CPY #$03
943C  D0 ED              BNE L01399
943E  A9 09              LDA #$09
9440  20 87 95           JSR L01417          ; Set Color RAM and Background Color to BLACK
9443  20 95 9F           JSR L01569
9446  A9 07              LDA #$07            ; YELLOW
9448  8D 22 D0           STA $D022           ; BACKGROUND COLOR 1
944B  A9 02              LDA #$02            ; RED
944D  8D 23 D0           STA $D023           ; BACKGROUND COLOR 2
9450  A0 06              LDY #$06
9452  A2 06              LDX #$06
9454  B9 48 8B   L01401  LDA $8B48,Y         ; Song pointer - Song no. 6 (Falling)
9457  95 30              STA $30,X
9459  88                 DEY
945A  CA                 DEX
945B  10 F7              BPL L01401
945D  A2 33              LDX #$33            ; Falling man
945F  20 90 11           JSR L00106          ; Set sprite pointers for man
9462  A9 0E              LDA #$0E
9464  20 87 95           JSR L01417          ; Set Color RAM and Background Color to BLACK
9467  A9 C0              LDA #$C0
9469  85 12              STA $12
946B  A9 02              LDA #$02
946D  85 13              STA $13
946F  20 A0 95           JSR L01421
9472  20 90 96   L01402  JSR L01441
9475  20 40 96           JSR L01436
9478  20 AD 95           JSR L01422
947B  EA                 NOP
947C  EA                 NOP
947D  EA                 NOP
947E  C6 12              DEC $12
9480  D0 F0              BNE L01402
9482  C6 13              DEC $13
9484  D0 EC              BNE L01402
9486  A9 07              LDA #$07
9488  8D 15 D0           STA $D015           ; SPRITE DISPLAY
948B  A9 19              LDA #$19
948D  85 12              STA $12
948F  20 40 96   L01403  JSR L01436
9492  20 D8 96           JSR L01448
9495  C6 12              DEC $12
9497  D0 F6              BNE L01403
9499  A0 06              LDY #$06
949B  A2 06              LDX #$06
949D  B9 50 8B   L01404  LDA $8B50,Y         ; Song pointer - Song no. 1 (Start screen)
94A0  95 30              STA $30,X
94A2  88                 DEY
94A3  CA                 DEX
94A4  10 F7              BPL L01404
94A6  A2 00              LDX #$00
94A8  20 C6 95           JSR L01425
94AB  A9 08              LDA #$08
94AD  20 87 95           JSR L01417          ; Set Color RAM and Background Color to BLACK
94B0  A9 00              LDA #$00            ; BLACK
94B2  8D 22 D0           STA $D022           ; BACKGROUND COLOR 1
94B5  8D 23 D0           STA $D023           ; BACKGROUND COLOR 2
94B8  20 F0 96           JSR L01450
94BB  A9 0B              LDA #$0B            ; GRAY 1
94BD  8D 27 D0           STA $D027           ; SPRITE 0 COLOR
94C0  8D 28 D0           STA $D028           ; SPRITE 1 COLOR
94C3  8D 29 D0           STA $D029           ; SPRITE 2 COLOR
94C6  20 80 9F           JSR L01565          ; Pause
94C9  A0 06              LDY #$06
94CB  A2 06              LDX #$06
94CD  B9 58 8B   L01405  LDA $8B58,Y         ; Song pointer - Song no. 7
94D0  95 30              STA $30,X
94D2  88                 DEY
94D3  CA                 DEX
94D4  10 F7              BPL L01405
94D6  A9 09              LDA #$09            ; BROWN
94D8  8D 27 D0           STA $D027           ; SPRITE 0 COLOR
94DB  8D 28 D0           STA $D028           ; SPRITE 1 COLOR
94DE  8D 29 D0           STA $D029           ; SPRITE 2 COLOR
94E1  20 1C 97           JSR L01454
94E4  EE 22 D0   L01406  INC $D022
94E7  EE 23 D0           INC $D023
94EA  20 80 97           JSR L01459
94ED  20 00 0F           JSR L00044
94F0  AD 1E D0           LDA $D01E           ; SPRITE-SPRITE COLLISION
94F3  29 F8              AND #$F8
94F5  C9 08              CMP #$08
94F7  F0 13              BEQ L01408
94F9  C9 10              CMP #$10
94FB  F0 0F              BEQ L01408
94FD  C9 20              CMP #$20
94FF  F0 02              BEQ L01407
9501  C9 40              CMP #$40
9503  F0 07      L01407  BEQ L01408
9505  C9 80              CMP #$80
9507  F0 03              BEQ L01408
9509  4C 36 95           JMP L01411
950C  A2 33      L01408  LDX #$33            ; Falling man
950E  20 90 11           JSR L00106          ; Set sprite pointers for man
9511  4C D9 95           JMP L01426
                 ;________________________________________
9514  A9 08      L01409  LDA #$08
9516  20 87 95           JSR L01417          ; Set Color RAM and Background Color to BLACK
9519  A9 05              LDA #$05            ; GREEN
951B  8D 22 D0           STA $D022           ; BACKGROUND COLOR 1
951E  8D 23 D0           STA $D023           ; BACKGROUND COLOR 2
9521  20 F0 96           JSR L01450
9524  EA                 NOP
9525  EA                 NOP
9526  EA                 NOP
9527  EA                 NOP
9528  EA                 NOP
9529  EA                 NOP
952A  EA                 NOP
952B  EA                 NOP
952C  EA                 NOP
952D  EA                 NOP
952E  EA                 NOP
952F  EA                 NOP
9530  EA                 NOP
9531  EA                 NOP
9532  EA                 NOP
9533  4C 00 0E           JMP L00022
                 ;________________________________________
9536  AD 04 D0   L01411  LDA $D004           ; SPRITE 2 X POS
9539  C9 A0              CMP #$A0
953B  90 0E              BCC L01412
953D  C9 A8              CMP #$A8
953F  B0 0A              BCS L01412
9541  AD 05 D0           LDA $D005           ; SPRITE 2 Y POS
9544  C9 70              CMP #$70
9546  B0 03              BCS L01412
9548  4C 90 92           JMP L01364
954B  4C 79 95   L01412  JMP L01415
                 ;________________________________________
954E  00                 BYT $00
954F  00                 BYT $00
                 ;________________________________________
9550  20 80 95   L01413  JSR L01416
9553  A9 0C              LDA #$0C            ; GRAY 2
9555  8D 22 D0           STA $D022           ; BACKGROUND COLOR 1
9558  A9 08              LDA #$08            ; ORANGE
955A  8D 23 D0           STA $D023           ; BACKGROUND COLOR 2
955D  A9 00              LDA #$00
955F  8D 15 D0           STA $D015           ; SPRITE DISPLAY
9562  A0 06              LDY #$06
9564  A2 06              LDX #$06
9566  B9 50 8B   L01414  LDA $8B50,Y         ; Song pointer - Song no. 1 (Start screen)
9569  95 30              STA $30,X
956B  88                 DEY
956C  CA                 DEX
956D  10 F7              BPL L01414
956F  20 A0 9F           JSR L01571
9572  EA                 NOP
9573  EA                 NOP
9574  EA                 NOP
9575  4C E0 92           JMP L01374
                 ;________________________________________
9578  EA                 NOP
9579  20 D0 92   L01415  JSR L01372
957C  4C E4 94           JMP L01406
                 ;________________________________________
957F  EA                 NOP
9580  A9 93      L01416  LDA #$93
9582  20 D2 FF           JSR $FFD2           ; Clear screen via CHROUT
9585  A9 0E              LDA #$0E
9587  A2 00      L01417  LDX #$00
9589  9D 00 D8   L01418  STA $D800,X         ; Set Color RAM to 0 (BLACK)
958C  9D 00 D9           STA $D900,X
958F  9D 00 DA           STA $DA00,X
9592  E8                 INX
9593  D0 F4              BNE L01418
9595  9D 00 DB   L01420  STA $DB00,X
9598  E8                 INX
9599  E0 E8              CPX #$E8
959B  D0 F8              BNE L01420
959D  4C B6 96           JMP L01445
                 ;________________________________________
95A0  A9 21      L01421  LDA #$21            ; ENABLE
95A2  8D 04 D4           STA $D404           ; VOICE 1
95A5  8D 0B D4           STA $D40B           ; VOICE 2
95A8  4C 80 95           JMP L01416
                 ;________________________________________
95AB  EA                 NOP
95AC  EA                 NOP
95AD  C6 4E      L01422  DEC $4E
95AF  D0 14              BNE L01424
95B1  AD 05 D0           LDA $D005           ; SPRITE 2 Y POS
95B4  C9 E8              CMP #$E8
95B6  B0 09              BCS L01423
95B8  EE 01 D0           INC $D001           ; SPRITE 0 Y POS
95BB  EE 03 D0           INC $D003           ; SPRITE 1 Y POS
95BE  EE 05 D0           INC $D005           ; SPRITE 2 Y POS
95C1  A9 04      L01423  LDA #$04
95C3  85 4E              STA $4E
95C5  60         L01424  RTS
                 ;________________________________________
95C6  A9 41      L01425  LDA #$41            ; ENABLE
95C8  8D 12 D4           STA $D412           ; VOICE 3
95CB  A2 00              LDX #$00
95CD  4C 90 11           JMP L00106          ; Set sprite pointers for man
                 ;________________________________________
95D0  A9 08              LDA #$08
95D2  85 4E              STA $4E
95D4  A9 00              LDA #$00
95D6  85 1F              STA $1F
95D8  60                 RTS
                 ;________________________________________
95D9  E6 1F      L01426  INC $1F
95DB  A5 1F              LDA $1F
95DD  C9 06              CMP #$06
95DF  90 03              BCC L01427
95E1  4C 14 95           JMP L01409
95E4  AD 04 D0   L01427  LDA $D004           ; SPRITE 2 X POS
95E7  C9 A0              CMP #$A0
95E9  F0 12              BEQ L01430
95EB  90 06              BCC L01429
95ED  20 55 15   L01428  JSR L00191          ; Move man left 1 pixel
95F0  4C FD 95           JMP L01430
95F3  AD 10 D0   L01429  LDA $D010
95F6  29 04              AND #$04            ; IF NOT BIT 2 OFF
95F8  D0 F3              BNE L01428
95FA  20 88 15           JSR L00195          ; Move man right 1 pixel
95FD  AD 05 D0   L01430  LDA $D005           ; SPRITE 2 Y POS
9600  C9 F0              CMP #$F0
9602  F0 25              BEQ L01434
9604  B0 0C              BCS L01431
9606  EE 01 D0           INC $D001           ; SPRITE 0 Y POS
9609  EE 03 D0           INC $D003           ; SPRITE 1 Y POS
960C  EE 05 D0           INC $D005           ; SPRITE 2 Y POS
960F  4C 1B 96           JMP L01432
9612  CE 01 D0   L01431  DEC $D001           ; SPRITE 0 Y POS
9615  CE 03 D0           DEC $D003           ; SPRITE 1 Y POS
9618  CE 05 D0           DEC $D005           ; SPRITE 2 Y POS
961B  20 D0 92   L01432  JSR L01372
961E  4C E4 95           JMP L01427
9621  A9 00      L01433  LDA #$00
9623  20 61 1E           JSR L00374
9626  4C 33 96           JMP L01435
9629  AD 04 D0   L01434  LDA $D004           ; SPRITE 2 X POS
962C  C9 A0              CMP #$A0
962E  F0 F1              BEQ L01433
9630  4C E4 95           JMP L01427
9633  AD 1E D0   L01435  LDA $D01E           ; SPRITE-SPRITE COLLISION
9636  4C E4 94           JMP L01406
                 ;________________________________________
9639  00                 BYT $00
963A  00                 BYT $00
963B  00                 BYT $00
963C  EA                 NOP
963D  00                 BYT $00
963E  EA                 NOP
963F  EA                 NOP
                 ;________________________________________
9640  A2 00      L01436  LDX #$00
9642  BD 28 04   L01437  LDA $0428,X
9645  9D 00 08           STA $0800,X         ; Copy screen from $0428 to $0800
9648  BD 28 05           LDA $0528,X
964B  9D 00 09           STA $0900,X
964E  BD 28 06           LDA $0628,X
9651  9D 00 0A           STA $0A00,X
9654  E8                 INX
9655  D0 EB              BNE L01437
9657  BD 28 07   L01438  LDA $0728,X
965A  9D 00 0B           STA $0B00,X
965D  E8                 INX
965E  E0 C0              CPX #$C0
9660  D0 F5              BNE L01438
9662  A2 00              LDX #$00
9664  BD 00 08   L01439  LDA $0800,X
9667  9D 00 04           STA $0400,X         ; Move screen up 1 line using copy
966A  BD 00 09           LDA $0900,X
966D  9D 00 05           STA $0500,X
9670  BD 00 0A           LDA $0A00,X
9673  9D 00 06           STA $0600,X
9676  E8                 INX
9677  D0 EB              BNE L01439
9679  BD 00 0B   L01440  LDA $0B00,X
967C  9D 00 07           STA $0700,X
967F  E8                 INX
9680  E0 E8              CPX #$E8
9682  D0 F5              BNE L01440
9684  60                 RTS
                 ;________________________________________
9685  00                 BYT $00
9686  00                 BYT $00
9687  00                 BYT $00
9688  00                 BYT $00
9689  00                 BYT $00
968A  00                 BYT $00
968B  00                 BYT $00
968C  00                 BYT $00
968D  00                 BYT $00
968E  00                 BYT $00
968F  00                 BYT $00
                 ;________________________________________
9690  A2 27      L01441  LDX #$27
9692  E0 18      L01442  CPX #$18
9694  B0 09              BCS L01443
9696  E0 10              CPX #$10
9698  90 05              BCC L01443
969A  A9 20              LDA #$20
969C  4C A4 96           JMP L01444
969F  AD 04 DC   L01443  LDA $DC04           ; Timer A low byte
96A2  29 7F              AND #$7F
96A4  9D C0 07   L01444  STA $07C0,X
96A7  CA                 DEX
96A8  10 E8              BPL L01442
96AA  60                 RTS
                 ;________________________________________
96AB  EA                 NOP
96AC  EA                 NOP
96AD  EA                 NOP
96AE  EA                 NOP
96AF  EA                 NOP
96B0  A9 81              LDA #$81            ; ENABLE
96B2  8D 12 D4           STA $D412           ; VOICE 3
96B5  60                 RTS
                 ;________________________________________
96B6  A9 00      L01445  LDA #$00            ; BLACK
96B8  8D 21 D0           STA $D021           ; BACKGROUND COLOR
96BB  60                 RTS
                 ;________________________________________
96BC  A9 41              LDA #$41            ; ENABLE
96BE  8D 12 D4           STA $D412           ; VOICE 3
96C1  A2 00              LDX #$00
96C3  4C 90 11           JMP L00106          ; Set sprite pointers for man
                 ;________________________________________
96C6  EA                 NOP
96C7  EA                 NOP
96C8  00                 BYT $00
96C9  00                 BYT $00
96CA  00         L01446  BRK
96CB  00                 BRK
96CC  00                 BRK
96CD  9D 91 06           STA $0691,X
96D0  CA         L01447  DEX
96D1  10 F7              BPL L01446          ; Jump never taken
96D3  60                 RTS
                 ;________________________________________
96D4  00                 BYT $00
96D5  00                 BYT $00
96D6  00                 BYT $00
96D7  00                 BYT $00
                 ;________________________________________
96D8  A9 20      L01448  LDA #$20
96DA  A2 27              LDX #$27
96DC  9D C0 07   L01449  STA $07C0,X
96DF  9D 98 07           STA $0798,X
96E2  CA                 DEX
96E3  10 F7              BPL L01449
96E5  60                 RTS
                 ;________________________________________
96E6  00                 BYT $00
96E7  00                 BYT $00
96E8  00                 BYT $00
96E9  00                 BYT $00
96EA  00                 BYT $00
96EB  00                 BYT $00
96EC  00                 BYT $00
96ED  00                 BYT $00
96EE  00                 BYT $00
96EF  00                 BYT $00
                 ;________________________________________
96F0  A9 0C      L01450  LDA #$0C
96F2  85 62              STA $62
96F4  A9 5C              LDA #$5C
96F6  85 60              STA $60
96F8  A9 04              LDA #$04
96FA  85 61              STA $61
96FC  A2 00              LDX #$00
96FE  A0 00      L01451  LDY #$00
9700  BD 80 9E   L01452  LDA $9E80,X
9703  91 60              STA ($60),Y
9705  E8                 INX
9706  C8                 INY
9707  C0 0E              CPY #$0E
9709  D0 F5              BNE L01452
970B  18                 CLC
970C  A5 60              LDA $60
970E  69 28              ADC #$28
9710  85 60              STA $60
9712  90 02              BCC L01453
9714  E6 61              INC $61
9716  C6 62      L01453  DEC $62
9718  10 E4              BPL L01451
971A  60                 RTS
                 ;________________________________________
971B  00                 BYT $00
                 ;________________________________________
971C  A9 00      L01454  LDA #$00
971E  85 1F              STA $1F
9720  A2 04      L01455  LDX #$04
9722  A9 CC      L01456  LDA #$CC            ; Khafka mask
9724  9D FB 07           STA $07FB,X         ; SPRITE 3-7 PTR
9727  A9 0A              LDA #$0A
9729  9D 2A D0           STA $D02A,X
972C  CA                 DEX
972D  10 F3              BPL L01456
972F  A9 FF              LDA #$FF
9731  8D 15 D0           STA $D015           ; SPRITE DISPLAY
9734  A9 38              LDA #$38
9736  8D 06 D0           STA $D006           ; SPRITE 3 X POS
9739  8D 08 D0           STA $D008           ; SPRITE 4 X POS
973C  A9 40              LDA #$40
973E  8D 07 D0           STA $D007           ; SPRITE 3 Y POS
9741  8D 0B D0           STA $D00B           ; SPRITE 5 Y POS
9744  A9 C0              LDA #$C0
9746  8D 09 D0           STA $D009           ; SPRITE 4 Y POS
9749  8D 0D D0           STA $D00D           ; SPRITE 6 Y POS
974C  A9 B8              LDA #$B8
974E  8D 0A D0           STA $D00A           ; SPRITE 5 X POS
9751  8D 0C D0           STA $D00C           ; SPRITE 6 X POS
9754  A9 A0              LDA #$A0
9756  8D 0E D0           STA $D00E           ; SPRITE 7 X POS
9759  A9 60              LDA #$60
975B  8D 0F D0           STA $D00F           ; SPRITE 7 Y POS
975E  A9 10              LDA #$10
9760  8D 10 D0           STA $D010
9763  A2 04              LDX #$04
9765  A9 00              LDA #$00
9767  95 60      L01457  STA $60,X
9769  CA                 DEX
976A  10 FB              BPL L01457
976C  A9 01              LDA #$01
976E  85 65              STA $65
9770  A9 D0              LDA #$D0
9772  8D 01 D0           STA $D001           ; SPRITE 0 Y POS
9775  A9 DC              LDA #$DC
9777  8D 03 D0           STA $D003           ; SPRITE 1 Y POS
977A  A9 F0              LDA #$F0
977C  8D 05 D0           STA $D005           ; SPRITE 2 Y POS
977F  60         L01458  RTS
                 ;________________________________________
9780  20 8C 97   L01459  JSR L01460
9783  C6 65              DEC $65
9785  D0 F8              BNE L01458
9787  AD FA 9F           LDA $9FFA
978A  85 65              STA $65
978C  A5 60      L01460  LDA $60
978E  D0 1B              BNE L01463
9790  EE 06 D0           INC $D006           ; SPRITE 3 X POS
9793  D0 08              BNE L01461
9795  AD 10 D0           LDA $D010
9798  09 08              ORA #$08            ; BIT 3 ON
979A  8D 10 D0           STA $D010
979D  AD 06 D0   L01461  LDA $D006           ; SPRITE 3 X POS
97A0  C9 38              CMP #$38
97A2  D0 2E              BNE L01466
97A4  A2 00      L01462  LDX #$00
97A6  20 00 99           JSR L01490
97A9  90 27              BCC L01466
97AB  C9 01      L01463  CMP #$01
97AD  D0 1A              BNE L01465
97AF  EE 07 D0           INC $D007           ; SPRITE 3 Y POS
97B2  CE 06 D0           DEC $D006           ; SPRITE 3 X POS
97B5  D0 08              BNE L01464
97B7  AD 10 D0           LDA $D010
97BA  29 F7              AND #$F7            ; BIT 3 OFF
97BC  8D 10 D0           STA $D010
97BF  AD 06 D0   L01464  LDA $D006           ; SPRITE 3 X POS
97C2  C9 B8              CMP #$B8
97C4  F0 DE              BEQ L01462
97C6  4C D2 97           JMP L01466
97C9  CE 07 D0   L01465  DEC $D007           ; SPRITE 3 Y POS
97CC  CE 06 D0           DEC $D006           ; SPRITE 3 X POS
97CF  4C 9D 97           JMP L01461
97D2  A5 61      L01466  LDA $61
97D4  D0 1B              BNE L01469
97D6  CE 08 D0           DEC $D008           ; SPRITE 4 X POS
97D9  D0 08              BNE L01467
97DB  AD 10 D0           LDA $D010
97DE  29 EF              AND #$EF            ; BIT 4 OFF
97E0  8D 10 D0           STA $D010
97E3  AD 08 D0   L01467  LDA $D008           ; SPRITE 4 X POS
97E6  C9 38              CMP #$38
97E8  D0 2E              BNE L01472
97EA  A2 01      L01468  LDX #$01
97EC  20 00 99           JSR L01490
97EF  90 27              BCC L01472
97F1  C9 01      L01469  CMP #$01
97F3  D0 10              BNE L01470
97F5  CE 09 D0           DEC $D009           ; SPRITE 4 Y POS
97F8  EE 08 D0           INC $D008           ; SPRITE 4 X POS
97FB  AD 08 D0           LDA $D008           ; SPRITE 4 X POS
97FE  C9 B8              CMP #$B8
9800  F0 E8              BEQ L01468
9802  4C 18 98           JMP L01472
9805  EE 09 D0   L01470  INC $D009           ; SPRITE 4 Y POS
9808  EE 08 D0           INC $D008           ; SPRITE 4 X POS
980B  D0 08              BNE L01471
980D  AD 10 D0           LDA $D010
9810  09 10              ORA #$10            ; BIT 4 ON
9812  8D 10 D0           STA $D010
9815  4C E3 97   L01471  JMP L01467
9818  A5 62      L01472  LDA $62
981A  D0 17              BNE L01474
981C  EE 0B D0           INC $D00B           ; SPRITE 5 Y POS
981F  CE 0A D0           DEC $D00A           ; SPRITE 5 X POS
9822  CE 0A D0           DEC $D00A           ; SPRITE 5 X POS
9825  AD 0A D0           LDA $D00A           ; SPRITE 5 X POS
9828  C9 38              CMP #$38
982A  D0 28              BNE L01476
982C  A2 02      L01473  LDX #$02
982E  20 00 99           JSR L01490
9831  90 21              BCC L01476
9833  C9 01      L01474  CMP #$01
9835  D0 13              BNE L01475
9837  EE 0A D0           INC $D00A           ; SPRITE 5 X POS
983A  EE 0A D0           INC $D00A           ; SPRITE 5 X POS
983D  EE 0B D0           INC $D00B           ; SPRITE 5 Y POS
9840  AD 0A D0           LDA $D00A           ; SPRITE 5 X POS
9843  C9 B8              CMP #$B8
9845  F0 E5              BEQ L01473
9847  4C 54 98           JMP L01476
984A  CE 0B D0   L01475  DEC $D00B           ; SPRITE 5 Y POS
984D  AD 0B D0           LDA $D00B           ; SPRITE 5 Y POS
9850  C9 40              CMP #$40
9852  F0 D8              BEQ L01473
9854  A5 63      L01476  LDA $63
9856  D0 11              BNE L01478
9858  CE 0D D0           DEC $D00D           ; SPRITE 6 Y POS
985B  AD 0D D0           LDA $D00D           ; SPRITE 6 Y POS
985E  C9 40              CMP #$40
9860  D0 56              BNE L01484
9862  A2 03      L01477  LDX #$03
9864  20 00 99           JSR L01490
9867  90 4F              BCC L01484
9869  C9 01      L01478  CMP #$01
986B  D0 27              BNE L01481
986D  EE 0D D0           INC $D00D           ; SPRITE 6 Y POS
9870  EE 0C D0           INC $D00C           ; SPRITE 6 X POS
9873  D0 08              BNE L01479
9875  AD 10 D0           LDA $D010
9878  09 40              ORA #$40            ; BIT 6 ON
987A  8D 10 D0           STA $D010
987D  EE 0C D0   L01479  INC $D00C           ; SPRITE 6 X POS
9880  D0 08              BNE L01480
9882  AD 10 D0           LDA $D010
9885  09 40              ORA #$40            ; BIT 6 ON
9887  8D 10 D0           STA $D010
988A  AD 0C D0   L01480  LDA $D00C           ; SPRITE 6 X POS
988D  C9 38              CMP #$38
988F  F0 D1              BEQ L01477
9891  4C B8 98           JMP L01484
9894  EE 0D D0   L01481  INC $D00D           ; SPRITE 6 Y POS
9897  CE 0C D0           DEC $D00C           ; SPRITE 6 X POS
989A  D0 08              BNE L01482
989C  AD 10 D0           LDA $D010
989F  29 BF              AND #$BF            ; BIT 6 OFF
98A1  8D 10 D0           STA $D010
98A4  CE 0C D0   L01482  DEC $D00C           ; SPRITE 6 X POS
98A7  D0 08              BNE L01483
98A9  AD 10 D0           LDA $D010
98AC  29 BF              AND #$BF            ; BIT 6 OFF
98AE  8D 10 D0           STA $D010
98B1  AD 0C D0   L01483  LDA $D00C           ; SPRITE 6 X POS
98B4  C9 B8              CMP #$B8
98B6  F0 AA              BEQ L01477
98B8  A5 64      L01484  LDA $64
98BA  D0 10              BNE L01487
98BC  EE 0E D0           INC $D00E           ; SPRITE 7 X POS
98BF  AD 0E D0           LDA $D00E           ; SPRITE 7 X POS
98C2  C9 E8              CMP #$E8
98C4  D0 05              BNE L01486
98C6  A2 04      L01485  LDX #$04
98C8  20 00 99           JSR L01490
98CB  60         L01486  RTS
98CC  C9 01      L01487  CMP #$01
98CE  D0 0B              BNE L01488
98D0  EE 0F D0           INC $D00F           ; SPRITE 7 Y POS
98D3  AD 0F D0           LDA $D00F           ; SPRITE 7 Y POS
98D6  C9 98              CMP #$98
98D8  F0 EC              BEQ L01485
98DA  60                 RTS
98DB  C9 02      L01488  CMP #$02
98DD  D0 0B              BNE L01489
98DF  CE 0E D0           DEC $D00E           ; SPRITE 7 X POS
98E2  AD 0E D0           LDA $D00E           ; SPRITE 7 X POS
98E5  C9 88              CMP #$88
98E7  F0 DD              BEQ L01485
98E9  60                 RTS
98EA  CE 0F D0   L01489  DEC $D00F           ; SPRITE 7 Y POS
98ED  AD 0F D0           LDA $D00F           ; SPRITE 7 Y POS
98F0  C9 60              CMP #$60
98F2  F0 D2              BEQ L01485
98F4  60                 RTS
                 ;________________________________________
98F5  00                 BYT $00
98F6  00                 BYT $00
98F7  00                 BYT $00
98F8  00                 BYT $00
98F9  00                 BYT $00
98FA  00                 BYT $00
98FB  00                 BYT $00
98FC  00                 BYT $00
98FD  00                 BYT $00
98FE  00                 BYT $00
98FF  00                 BYT $00
                 ;________________________________________
9900  E0 04      L01490  CPX #$04
9902  F0 0E              BEQ L01492
9904  F6 60              INC $60,X
9906  B5 60              LDA $60,X
9908  C9 03              CMP #$03
990A  90 04              BCC L01491
990C  A9 00              LDA #$00
990E  95 60              STA $60,X
9910  18         L01491  CLC
9911  60                 RTS
9912  F6 60      L01492  INC $60,X
9914  B5 60              LDA $60,X
9916  C9 04              CMP #$04
9918  90 F6              BCC L01491
991A  A9 00              LDA #$00
991C  95 60              STA $60,X
991E  4C 10 99           JMP L01491
                 ;________________________________________
9921  FF                 BYT $FF             ; 255      GFX
                 ;________________________________________
9922  AD 10 D0   L01494  LDA $D010
9925  29 F7              AND #$F7            ; BIT 3 OFF
9927  8D 10 D0   L01495  STA $D010
992A  60                 RTS
                 ;________________________________________
992B  FF                 BYT $FF             ; 255      GFX
992C  FF                 BYT $FF             ; 255      GFX
992D  FF                 BYT $FF             ; 255      GFX
992E  FF                 BYT $FF             ; 255      GFX
992F  FF                 BYT $FF             ; 255      GFX
                 ;________________________________________
9930  A5 67      L01496  LDA $67
9932  D0 16              BNE L01498
9934  A2 06              LDX #$06
9936  BD 4B 99   L01497  LDA $994B,X         ; Song pointer - Song no. 9 (Elevator)
9939  95 30              STA $30,X
993B  CA                 DEX
993C  10 F8              BPL L01497
993E  A9 11              LDA #$11            ; ENABLE
9940  8D 04 D4           STA $D404           ; VOICE 1
9943  A9 81              LDA #$81            ; ENABLE
9945  8D 12 D4           STA $D412           ; VOICE 3
9948  E6 67              INC $67
994A  60         L01498  RTS
                 ;________________________________________
                 ;
                 ;   Song pointer - Song no. 9 (Elevator)
                 ;
994B  C0                 BYT $C0
994C  86                 BYT $86             ; $86C0 = Location
994D  02                 BYT $02
994E  00                 BYT $00
994F  C0                 BYT $C0
9950  86                 BYT $86             ; $86C0 = Start
9951  02                 BYT $02
                 ;________________________________________
9952  A9 00      L01499  LDA #$00
9954  85 67              STA $67
9956  A9 F0              LDA #$F0
9958  85 30              STA $30
995A  A9 86              LDA #$86            ; $86F0 = Song no. 3
995C  85 31              STA $31
995E  A9 28              LDA #$28
9960  85 36      L01500  STA $36
9962  A9 11              LDA #$11            ; ENABLE
9964  8D 04 D4           STA $D404           ; VOICE 1
9967  8D 0B D4           STA $D40B           ; VOICE 2
996A  8D 12 D4           STA $D412           ; VOICE 3
996D  60         L01501  RTS
                 ;________________________________________
996E  A5 67      L01502  LDA $67
9970  D0 FB              BNE L01501
9972  A9 C0              LDA #$C0
9974  85 30              STA $30
9976  A9 80              LDA #$80
9978  85 31              STA $31             ; $80C0 = Song no. 10
997A  A9 01              LDA #$01
997C  E6 67              INC $67
997E  4C 60 99           JMP L01500
                 ;________________________________________
9981  A5 67      L01503  LDA $67
9983  D0 16              BNE L01504
9985  A9 D0              LDA #$D0
9987  85 30              STA $30
9989  A9 7E              LDA #$7E            ; $7ED0 = Song no. 11
998B  85 31              STA $31
998D  A9 01              LDA #$01
998F  85 36              STA $36
9991  A9 81              LDA #$81            ; ENABLE
9993  8D 0B D4           STA $D40B           ; VOICE 2
9996  8D 04 D4           STA $D404           ; VOICE 1
9999  E6 67              INC $67
999B  60         L01504  RTS
                 ;________________________________________
999C  EA                 NOP
999D  EA                 NOP
999E  70                 BYT $70             ; 112      GFX
999F  87                 BYT $87             ; 135      g
99A0  02                 BYT $02             ; 2        b
99A1  00                 BYT $00
                 ;________________________________________
                 ;
                 ;   Scroll screen down and move sprites
                 ;
99A2  20 00 34   L01505  JSR L00587          ; Scroll screen down
99A5  A5 1A              LDA $1A             ; Was scrolling possible?
99A7  D0 12              BNE L01506
99A9  EE 0F D0           INC $D00F           ; SPRITE 7 Y POS
99AC  EE 0B D0           INC $D00B           ; SPRITE 5 Y POS
99AF  EE 0D D0           INC $D00D           ; SPRITE 6 Y POS
99B2  A5 56              LDA $56
99B4  C9 02              CMP #$02
99B6  B0 03              BCS L01506
99B8  CE 09 D0           DEC $D009           ; SPRITE 4 Y POS
99BB  60         L01506  RTS
                 ;________________________________________
99BC  EA                 NOP
99BD  EA                 NOP
99BE  EA                 NOP
99BF  EA                 NOP
99C0  EA                 NOP
99C1  EA                 NOP
                 ;________________________________________
                 ;
                 ;   Scroll screen up and move sprites
                 ;
99C2  20 C0 34   L01507  JSR L00607          ; Scroll screen up
99C5  A5 1A              LDA $1A             ; Was scrolling possible?
99C7  D0 12              BNE L01508
99C9  CE 0F D0           DEC $D00F           ; SPRITE 7 Y POS
99CC  CE 0B D0           DEC $D00B           ; SPRITE 5 Y POS
99CF  CE 0D D0           DEC $D00D           ; SPRITE 6 Y POS
99D2  A5 56              LDA $56
99D4  C9 02              CMP #$02
99D6  B0 03              BCS L01508
99D8  CE 09 D0           DEC $D009           ; SPRITE 4 Y POS
99DB  60         L01508  RTS
                 ;________________________________________
99DC  00                 BYT $00
99DD  00                 BYT $00
99DE  00                 BYT $00
99DF  00                 BYT $00
                 ;________________________________________
99E0  48         L01509  PHA
99E1  AD 10 D0           LDA $D010
99E4  29 02              AND #$02            ; IF NOT BIT 1 OFF
99E6  D0 06              BNE L01510
99E8  20 22 99           JSR L01494
99EB  4C F6 99           JMP L01511
99EE  AD 10 D0   L01510  LDA $D010
99F1  09 08              ORA #$08            ; BIT 3 ON
99F3  8D 10 D0           STA $D010
99F6  68         L01511  PLA
99F7  4C B7 16           JMP L00222
                 ;________________________________________
99FA  00                 BYT $00
99FB  00                 BYT $00
99FC  00                 BYT $00
99FD  00                 BYT $00
99FE  00                 BYT $00
99FF  00                 BYT $00
9A00  00                 BYT $00
9A01  00                 BYT $00
                 ;________________________________________
                 ;
                 ;   Page zero initial values
                 ;
9A02  00                 BYT $00
9A03  00                 BYT $00
9A04  00                 BYT $00
9A05  00                 BYT $00
9A06  01                 BYT $01
9A07  00                 BYT $00
9A08  00                 BYT $00
9A09  00                 BYT $00
9A0A  00                 BYT $00
9A0B  00                 BYT $00
9A0C  00                 BYT $00
9A0D  00                 BYT $00
9A0E  00                 BYT $00
9A0F  00                 BYT $00
9A10  00                 BYT $00
9A11  40                 BYT $40             ; $4000 = Start position on map
9A12  00                 BYT $00
9A13  00                 BYT $00
9A14  00                 BYT $00
9A15  00                 BYT $00
9A16  00                 BYT $00
9A17  40                 BYT $40             ; $4000 = Left border
9A18  78                 BYT $78
9A19  40                 BYT $40             ; $4078 = Right border
9A1A  00                 BYT $00
9A1B  00                 BYT $00
9A1C  00                 BYT $00
9A1D  00                 BYT $00
9A1E  00                 BYT $00
9A1F  06                 BYT $06
9A20  00                 BYT $00
9A21  00                 BYT $00
9A22  00                 BYT $00
9A23  00                 BYT $00
9A24  00                 BYT $00
9A25  00                 BYT $00
9A26  00                 BYT $00
9A27  00                 BYT $00
9A28  00                 BYT $00
9A29  00                 BYT $00
9A2A  00                 BYT $00
9A2B  00                 BYT $00
9A2C  00                 BYT $00
9A2D  00                 BYT $00
9A2E  01                 BYT $01
9A2F  00                 BYT $00             ; Value of JOYSTICK 2 reading
9A30  00                 BYT $00
9A31  8A                 BYT $8A             ; $8A00 = Initial song location
9A32  0E                 BYT $0E
9A33  00                 BYT $00
9A34  00                 BYT $00
9A35  81                 BYT $81             ; $8100 = Initial song start
9A36  0E                 BYT $0E
9A37  00                 BYT $00
9A38  00                 BYT $00
9A39  00                 BYT $00
9A3A  00                 BYT $00
9A3B  00                 BYT $00
9A3C  00                 BYT $00
9A3D  00                 BYT $00
9A3E  00                 BYT $00
9A3F  00                 BYT $00
9A40  6D                 BYT $6D
9A41  43                 BYT $43             ; $436D = Elevator position on map
9A42  01                 BYT $01
9A43  00                 BYT $00
9A44  00                 BYT $00
9A45  00                 BYT $00
9A46  E8                 BYT $E8
9A47  4B                 BYT $4B
9A48  00                 BYT $00
9A49  00                 BYT $00
9A4A  7A                 BYT $7A
9A4B  4C                 BYT $4C
9A4C  00                 BYT $00
9A4D  00                 BYT $00
9A4E  00                 BYT $00
9A4F  00                 BYT $00
9A50  00                 BYT $00
9A51  00                 BYT $00
9A52  00                 BYT $00
9A53  00                 BYT $00
9A54  01                 BYT $01
9A55  00                 BYT $00
9A56  00                 BYT $00
9A57  00                 BYT $00
9A58  00                 BYT $00
9A59  00                 BYT $00
9A5A  00                 BYT $00
9A5B  00                 BYT $00
9A5C  00                 BYT $00
9A5D  00                 BYT $00
9A5E  00                 BYT $00
9A5F  00                 BYT $00
9A60  24                 BYT $24
9A61  05                 BYT $05
9A62  2A                 BYT $2A
9A63  07                 BYT $07
9A64  0A                 BYT $0A
9A65  03                 BYT $03
9A66  00                 BYT $00
9A67  00                 BYT $00
                 ;________________________________________
9A68  00                 BYT $00
9A69  00                 BYT $00
9A6A  00                 BYT $00
9A6B  00                 BYT $00
9A6C  00                 BYT $00
9A6D  00                 BYT $00
9A6E  00                 BYT $00
9A6F  00                 BYT $00
9A70  20                 BYT $20
9A71  20                 BYT $20
9A72  20                 BYT $20
9A73  20                 BYT $20
9A74  00                 BYT $00
9A75  01                 BYT $01
9A76  02                 BYT $02
9A77  03                 BYT $03
9A78  04                 BYT $04
9A79  05                 BYT $05
9A7A  06                 BYT $06
9A7B  07                 BYT $07
9A7C  20                 BYT $20
9A7D  20                 BYT $20
9A7E  20                 BYT $20
9A7F  20                 BYT $20
9A80  20                 BYT $20
9A81  20                 BYT $20
9A82  08                 BYT $08
9A83  09                 BYT $09
9A84  0A                 BYT $0A
9A85  0B                 BYT $0B
9A86  0C                 BYT $0C
9A87  0D                 BYT $0D
9A88  0E                 BYT $0E
9A89  0F                 BYT $0F
9A8A  10                 BYT $10
9A8B  11                 BYT $11
9A8C  12                 BYT $12
9A8D  20                 BYT $20
9A8E  20                 BYT $20
9A8F  20                 BYT $20
9A90  20                 BYT $20
9A91  13                 BYT $13
9A92  14                 BYT $14
9A93  15                 BYT $15
9A94  16                 BYT $16
9A95  17                 BYT $17
9A96  18                 BYT $18
9A97  19                 BYT $19
9A98  1A                 BYT $1A
9A99  1B                 BYT $1B
9A9A  1C                 BYT $1C
9A9B  1D                 BYT $1D
9A9C  1E                 BYT $1E
9A9D  1F                 BYT $1F
9A9E  21                 BYT $21
9A9F  20                 BYT $20
9AA0  22                 BYT $22
9AA1  23                 BYT $23
9AA2  24                 BYT $24
9AA3  25                 BYT $25
9AA4  26                 BYT $26
9AA5  27                 BYT $27
9AA6  28                 BYT $28
9AA7  29                 BYT $29
9AA8  2A                 BYT $2A
9AA9  2B                 BYT $2B
9AAA  2C                 BYT $2C
9AAB  2D                 BYT $2D
9AAC  2E                 BYT $2E
9AAD  2F                 BYT $2F
9AAE  30                 BYT $30
9AAF  20                 BYT $20
9AB0  31                 BYT $31
9AB1  32                 BYT $32
9AB2  33                 BYT $33
9AB3  34                 BYT $34
9AB4  35                 BYT $35
9AB5  36                 BYT $36
9AB6  37                 BYT $37
9AB7  38                 BYT $38
9AB8  39                 BYT $39
9AB9  3A                 BYT $3A
9ABA  3B                 BYT $3B
9ABB  3C                 BYT $3C
9ABC  3D                 BYT $3D
9ABD  3E                 BYT $3E
9ABE  3F                 BYT $3F
9ABF  40                 BYT $40
9AC0  41                 BYT $41
9AC1  42                 BYT $42
9AC2  43                 BYT $43
9AC3  44                 BYT $44
9AC4  45                 BYT $45
9AC5  46                 BYT $46
9AC6  47                 BYT $47
9AC7  48                 BYT $48
9AC8  49                 BYT $49
9AC9  4A                 BYT $4A
9ACA  4B                 BYT $4B
9ACB  4C                 BYT $4C
9ACC  4D                 BYT $4D
9ACD  4E                 BYT $4E
9ACE  4F                 BYT $4F
9ACF  50                 BYT $50
9AD0  51                 BYT $51
9AD1  52                 BYT $52
9AD2  53                 BYT $53
9AD3  54                 BYT $54
9AD4  55                 BYT $55
9AD5  56                 BYT $56
9AD6  57                 BYT $57
9AD7  58                 BYT $58
9AD8  59                 BYT $59
9AD9  5A                 BYT $5A
9ADA  5B                 BYT $5B
9ADB  5C                 BYT $5C
9ADC  5D                 BYT $5D
9ADD  5E                 BYT $5E
9ADE  5F                 BYT $5F
9ADF  60                 BYT $60
9AE0  20                 BYT $20
9AE1  61                 BYT $61
9AE2  62                 BYT $62
9AE3  63                 BYT $63
9AE4  64                 BYT $64
9AE5  65                 BYT $65
9AE6  66                 BYT $66
9AE7  67                 BYT $67
9AE8  68                 BYT $68
9AE9  69                 BYT $69
9AEA  6A                 BYT $6A
9AEB  6B                 BYT $6B
9AEC  6C                 BYT $6C
9AED  6D                 BYT $6D
9AEE  6E                 BYT $6E
9AEF  20                 BYT $20
9AF0  20                 BYT $20
9AF1  6F                 BYT $6F
9AF2  70                 BYT $70
9AF3  71                 BYT $71
9AF4  72                 BYT $72
9AF5  73                 BYT $73
9AF6  74                 BYT $74
9AF7  75                 BYT $75
9AF8  76                 BYT $76
9AF9  77                 BYT $77
9AFA  78                 BYT $78
9AFB  79                 BYT $79
9AFC  7A                 BYT $7A
9AFD  7B                 BYT $7B
9AFE  20                 BYT $20
9AFF  20                 BYT $20
9B00  20                 BYT $20
9B01  20                 BYT $20
9B02  20                 BYT $20
9B03  7C                 BYT $7C
9B04  7D                 BYT $7D
9B05  7E                 BYT $7E
9B06  DF                 BYT $DF
9B07  E0                 BYT $E0
9B08  E1                 BYT $E1
9B09  E2                 BYT $E2
9B0A  E3                 BYT $E3
9B0B  E4                 BYT $E4
9B0C  E5                 BYT $E5
9B0D  E6                 BYT $E6
9B0E  20                 BYT $20
9B0F  20                 BYT $20
9B10  20                 BYT $20
9B11  20                 BYT $20
9B12  20                 BYT $20
9B13  E7                 BYT $E7
9B14  E8                 BYT $E8
9B15  E9                 BYT $E9
9B16  EA                 BYT $EA
9B17  EB                 BYT $EB
9B18  EC                 BYT $EC
9B19  ED                 BYT $ED
9B1A  EE                 BYT $EE
9B1B  EF                 BYT $EF
9B1C  20                 BYT $20
9B1D  20                 BYT $20
9B1E  20                 BYT $20
9B1F  20                 BYT $20
9B20  A8                 BYT $A8
9B21  A8                 BYT $A8
9B22  A8                 BYT $A8
9B23  20                 BYT $20
9B24  A8                 BYT $A8
9B25  A8                 BYT $A8
9B26  A8                 BYT $A8
9B27  20                 BYT $20
9B28  A8                 BYT $A8
9B29  A8                 BYT $A8
9B2A  A8                 BYT $A8
9B2B  20                 BYT $20
9B2C  A8                 BYT $A8
9B2D  B6                 BYT $B6
9B2E  B7                 BYT $B7
9B2F  A8                 BYT $A8
9B30  20                 BYT $20
9B31  A8                 BYT $A8
9B32  A8                 BYT $A8
9B33  A8                 BYT $A8
9B34  A8                 BYT $A8
9B35  20                 BYT $20
9B36  20                 BYT $20
9B37  20                 BYT $20
9B38  A8                 BYT $A8
9B39  20                 BYT $20
9B3A  A8                 BYT $A8
9B3B  20                 BYT $20
9B3C  A8                 BYT $A8
9B3D  A8                 BYT $A8
9B3E  20                 BYT $20
9B3F  20                 BYT $20
                 ;________________________________________
                 ;
                 ;   Song pointer
                 ;
9B40  A8                 BYT $A8
9B41  A8                 BYT $A8             ; $A8A8 = Location ???
9B42  A8                 BYT $A8
9B43  A8                 BYT $A8
9B44  20                 BYT $20
9B45  20                 BYT $20             ; $2020 = Start ???
9B46  A8                 BYT $A8
9B47  20                 BYT $20
                 ;________________________________________
                 ;
                 ;   Song pointer
                 ;
9B48  A8                 BYT $A8
9B49  20                 BYT $20             ; $20A8 = Location
9B4A  20                 BYT $20
9B4B  20                 BYT $20
9B4C  A8                 BYT $A8
9B4D  20                 BYT $20             ; $20A8 = Start
9B4E  A8                 BYT $A8
9B4F  20                 BYT $20
                 ;________________________________________
9B50  20                 BYT $20
9B51  A8                 BYT $A8
9B52  A8                 BYT $A8
9B53  20                 BYT $20
9B54  A8                 BYT $A8
9B55  B8                 BYT $B8
9B56  B9                 BYT $B9
9B57  A8                 BYT $A8
9B58  20                 BYT $20
9B59  20                 BYT $20
9B5A  A8                 BYT $A8
9B5B  20                 BYT $20
9B5C  A8                 BYT $A8
9B5D  A8                 BYT $A8
9B5E  A8                 BYT $A8
9B5F  20                 BYT $20
9B60  A8                 BYT $A8
9B61  A8                 BYT $A8
9B62  A8                 BYT $A8
9B63  20                 BYT $20
9B64  A8                 BYT $A8
9B65  A8                 BYT $A8
9B66  A8                 BYT $A8
9B67  20                 BYT $20
9B68  A8                 BYT $A8
9B69  20                 BYT $20
9B6A  20                 BYT $20
9B6B  A8                 BYT $A8
9B6C  20                 BYT $20
9B6D  A8                 BYT $A8
9B6E  A8                 BYT $A8
9B6F  A8                 BYT $A8
9B70  FF                 BYT $FF
9B71  FF                 BYT $FF
9B72  FF                 BYT $FF
9B73  FF                 BYT $FF
9B74  FF                 BYT $FF
9B75  FF                 BYT $FF
9B76  FF                 BYT $FF
9B77  FF                 BYT $FF
                 ;________________________________________
                 ;
                 ;   Song pointer - Song no. 4
                 ;
9B78  80                 BYT $80
9B79  9B                 BYT $9B             ; $9B80 = Location
9B7A  20                 BYT $20
9B7B  00                 BYT $00
9B7C  80                 BYT $80
9B7D  9B                 BYT $9B             ; $9B80 = Start
9B7E  20                 BYT $20
9B7F  00                 BYT $00
                 ;________________________________________
                 ;
                 ;   Song no. 4 data
                 ;
9B80  3F                 BYT $3F, $4B, $38, $63, $2A, $3E
9B86  3F                 BYT $3F, $4B, $38, $63, $2A, $3E
9B8C  38                 BYT $38, $63, $2A, $3E, $10, $C3
9B92  38                 BYT $38, $63, $2A, $3E, $10, $C3
9B98  4B                 BYT $4B, $45, $43, $0F, $32, $3C
9B9E  4B                 BYT $4B, $45, $43, $0F, $32, $3C
9BA4  43                 BYT $43, $0F, $32, $3C, $27, $DF
9BAA  43                 BYT $43, $0F, $32, $3C, $2F, $DF
9BB0  15                 BYT $15, $1F, $0A, $8F, $05, $47
9BB6  15                 BYT $15, $1F, $0A, $8F, $05, $47
9BBC  15                 BYT $15, $1F, $0A, $8F, $05, $47
9BC2  15                 BYT $15, $1F, $0A, $8F, $05, $47
9BC8  0A                 BYT $0A, $8F, $05, $47, $05, $45
9BCE  0A                 BYT $0A, $8F, $05, $47, $05, $43
9BD4  0A                 BYT $0A, $8F, $05, $47, $05, $4A
9BDA  0A                 BYT $0A, $8F, $05, $47, $05, $FF
                 ;________________________________________
9BE0  00                 BYT $00
9BE1  00                 BYT $00
9BE2  00                 BYT $00
9BE3  00                 BYT $00
9BE4  00                 BYT $00
9BE5  00                 BYT $00
9BE6  00                 BYT $00
9BE7  00                 BYT $00
9BE8  00                 BYT $00
9BE9  00                 BYT $00
9BEA  00                 BYT $00
9BEB  00                 BYT $00
9BEC  00                 BYT $00
9BED  00                 BYT $00
9BEE  00                 BYT $00
9BEF  00                 BYT $00
9BF0  00                 BYT $00
9BF1  00                 BYT $00
9BF2  00                 BYT $00
9BF3  00                 BYT $00
9BF4  00                 BYT $00
9BF5  00                 BYT $00
9BF6  00                 BYT $00
9BF7  00                 BYT $00
9BF8  00                 BYT $00
9BF9  00                 BYT $00
9BFA  00                 BYT $00
9BFB  00                 BYT $00
9BFC  00                 BYT $00
9BFD  00                 BYT $00
9BFE  00                 BYT $00
9BFF  00                 BYT $00
9C00  00                 BYT $00
9C01  00                 BYT $00
9C02  00                 BYT $00
9C03  00                 BYT $00
9C04  00                 BYT $00
9C05  00                 BYT $00
9C06  00                 BYT $00
9C07  00                 BYT $00
9C08  FF                 BYT $FF
9C09  FF                 BYT $FF
9C0A  FF                 BYT $FF
9C0B  FF                 BYT $FF
9C0C  FF                 BYT $FF
9C0D  FF                 BYT $FF
9C0E  FF                 BYT $FF
9C0F  FF                 BYT $FF
                 ;________________________________________
                 ;
                 ;   SID initialise values
                 ;
9C10  00                 BYT $00
9C11  00                 BYT $00
9C12  80                 BYT $80
9C13  80                 BYT $80
9C14  21                 BYT $21
9C15  08                 BYT $08
9C16  80                 BYT $80
9C17  00                 BYT $00
9C18  00                 BYT $00
9C19  F0                 BYT $F0
9C1A  F0                 BYT $F0
9C1B  21                 BYT $21
9C1C  08                 BYT $08
9C1D  80                 BYT $80
9C1E  00                 BYT $00
9C1F  00                 BYT $00
9C20  C0                 BYT $C0
9C21  F0                 BYT $F0
9C22  41                 BYT $41
9C23  08                 BYT $08
9C24  80                 BYT $80
9C25  00                 BYT $00
9C26  00                 BYT $00
9C27  00                 BYT $00
9C28  0F                 BYT $0F
                 ;
                 ;   End of SID initialise values
                 ;________________________________________
9C29  00                 BYT $00
9C2A  00                 BYT $00
9C2B  00                 BYT $00
9C2C  00                 BYT $00
9C2D  00                 BYT $00
9C2E  00                 BYT $00
9C2F  00                 BYT $00
9C30  A8                 BYT $A8
9C31  A8                 BYT $A8
9C32  20                 BYT $20
9C33  20                 BYT $20
9C34  A8                 BYT $A8
9C35  20                 BYT $20
9C36  20                 BYT $20
9C37  A8                 BYT $A8
9C38  20                 BYT $20
9C39  A8                 BYT $A8
9C3A  20                 BYT $20
9C3B  A8                 BYT $A8
9C3C  A8                 BYT $A8
9C3D  20                 BYT $20
9C3E  A8                 BYT $A8
9C3F  A8                 BYT $A8
9C40  A8                 BYT $A8
9C41  20                 BYT $20
9C42  A8                 BYT $A8
9C43  20                 BYT $20
9C44  A8                 BYT $A8
9C45  20                 BYT $20
9C46  A8                 BYT $A8
9C47  A8                 BYT $A8
9C48  A8                 BYT $A8
9C49  A8                 BYT $A8
9C4A  20                 BYT $20
9C4B  20                 BYT $20
9C4C  A8                 BYT $A8
9C4D  20                 BYT $20
9C4E  A8                 BYT $A8
9C4F  20                 BYT $20
9C50  A8                 BYT $A8
9C51  20                 BYT $20
9C52  A8                 BYT $A8
9C53  20                 BYT $20
9C54  A8                 BYT $A8
9C55  20                 BYT $20
9C56  20                 BYT $20
9C57  A8                 BYT $A8
9C58  20                 BYT $20
9C59  A8                 BYT $A8
9C5A  20                 BYT $20
9C5B  A8                 BYT $A8
9C5C  B6                 BYT $B6
9C5D  A8                 BYT $A8
9C5E  20                 BYT $20
9C5F  A8                 BYT $A8
9C60  20                 BYT $20
9C61  20                 BYT $20
9C62  A8                 BYT $A8
9C63  20                 BYT $20
9C64  20                 BYT $20
9C65  A8                 BYT $A8
9C66  A8                 BYT $A8
9C67  A8                 BYT $A8
9C68  20                 BYT $20
9C69  A8                 BYT $A8
9C6A  20                 BYT $20
9C6B  A8                 BYT $A8
9C6C  20                 BYT $20
9C6D  A8                 BYT $A8
9C6E  A8                 BYT $A8
9C6F  20                 BYT $20
9C70  A8                 BYT $A8
9C71  A8                 BYT $A8
9C72  A8                 BYT $A8
9C73  20                 BYT $20
9C74  A8                 BYT $A8
9C75  A8                 BYT $A8
9C76  A8                 BYT $A8
9C77  20                 BYT $20
9C78  20                 BYT $20
9C79  A8                 BYT $A8
9C7A  A8                 BYT $A8
9C7B  A8                 BYT $A8
9C7C  20                 BYT $20
9C7D  20                 BYT $20
9C7E  A8                 BYT $A8
9C7F  20                 BYT $20
9C80  A8                 BYT $A8
9C81  20                 BYT $20
9C82  A8                 BYT $A8
9C83  A8                 BYT $A8
9C84  A8                 BYT $A8
9C85  20                 BYT $20
9C86  A8                 BYT $A8
9C87  20                 BYT $20
9C88  20                 BYT $20
9C89  A8                 BYT $A8
9C8A  A8                 BYT $A8
9C8B  20                 BYT $20
9C8C  20                 BYT $20
9C8D  A8                 BYT $A8
9C8E  B8                 BYT $B8
9C8F  A8                 BYT $A8
9C90  20                 BYT $20
9C91  20                 BYT $20
9C92  20                 BYT $20
9C93  A8                 BYT $A8
9C94  A8                 BYT $A8
9C95  A8                 BYT $A8
9C96  20                 BYT $20
9C97  A8                 BYT $A8
9C98  20                 BYT $20
9C99  A8                 BYT $A8
9C9A  20                 BYT $20
9C9B  20                 BYT $20
9C9C  A8                 BYT $A8
9C9D  20                 BYT $20
9C9E  20                 BYT $20
9C9F  A8                 BYT $A8
9CA0  A8                 BYT $A8
9CA1  20                 BYT $20
9CA2  A8                 BYT $A8
9CA3  20                 BYT $20
9CA4  A8                 BYT $A8
9CA5  20                 BYT $20
9CA6  A8                 BYT $A8
9CA7  20                 BYT $20
9CA8  A8                 BYT $A8
9CA9  20                 BYT $20
9CAA  A8                 BYT $A8
9CAB  A8                 BYT $A8
9CAC  A8                 BYT $A8
9CAD  20                 BYT $20
9CAE  20                 BYT $20
9CAF  20                 BYT $20
9CB0  A8                 BYT $A8
9CB1  20                 BYT $20
9CB2  20                 BYT $20
9CB3  A8                 BYT $A8
9CB4  20                 BYT $20
9CB5  A8                 BYT $A8
9CB6  20                 BYT $20
9CB7  A8                 BYT $A8
9CB8  20                 BYT $20
9CB9  20                 BYT $20
9CBA  A8                 BYT $A8
9CBB  20                 BYT $20
9CBC  20                 BYT $20
9CBD  A8                 BYT $A8
9CBE  A8                 BYT $A8
9CBF  A8                 BYT $A8
9CC0  20                 BYT $20
9CC1  A8                 BYT $A8
9CC2  20                 BYT $20
9CC3  20                 BYT $20
9CC4  A8                 BYT $A8
9CC5  20                 BYT $20
9CC6  20                 BYT $20
9CC7  A8                 BYT $A8
9CC8  20                 BYT $20
9CC9  A8                 BYT $A8
9CCA  20                 BYT $20
9CCB  A8                 BYT $A8
9CCC  20                 BYT $20
9CCD  20                 BYT $20
9CCE  A8                 BYT $A8
9CCF  20                 BYT $20
9CD0  A8                 BYT $A8
9CD1  20                 BYT $20
9CD2  A8                 BYT $A8
9CD3  20                 BYT $20
9CD4  A8                 BYT $A8
9CD5  20                 BYT $20
9CD6  A8                 BYT $A8
9CD7  20                 BYT $20
9CD8  20                 BYT $20
9CD9  20                 BYT $20
9CDA  A8                 BYT $A8
9CDB  20                 BYT $20
9CDC  A8                 BYT $A8
9CDD  20                 BYT $20
9CDE  20                 BYT $20
9CDF  A8                 BYT $A8
9CE0  20                 BYT $20
9CE1  A8                 BYT $A8
9CE2  A8                 BYT $A8
9CE3  A8                 BYT $A8
9CE4  20                 BYT $20
9CE5  20                 BYT $20
9CE6  20                 BYT $20
9CE7  A8                 BYT $A8
9CE8  A8                 BYT $A8
9CE9  A8                 BYT $A8
9CEA  20                 BYT $20
9CEB  A8                 BYT $A8
9CEC  A8                 BYT $A8
9CED  A8                 BYT $A8
9CEE  20                 BYT $20
9CEF  A8                 BYT $A8
9CF0  A8                 BYT $A8
9CF1  20                 BYT $20
9CF2  20                 BYT $20
9CF3  A8                 BYT $A8
9CF4  A8                 BYT $A8
9CF5  20                 BYT $20
9CF6  20                 BYT $20
9CF7  20                 BYT $20
9CF8  A8                 BYT $A8
9CF9  A8                 BYT $A8
9CFA  A8                 BYT $A8
9CFB  A8                 BYT $A8
9CFC  20                 BYT $20
9CFD  A8                 BYT $A8
9CFE  20                 BYT $20
9CFF  20                 BYT $20
9D00  A8                 BYT $A8
9D01  20                 BYT $20
9D02  A8                 BYT $A8
9D03  20                 BYT $20
9D04  A8                 BYT $A8
9D05  20                 BYT $20
9D06  A8                 BYT $A8
9D07  20                 BYT $20
9D08  A8                 BYT $A8
9D09  20                 BYT $20
9D0A  20                 BYT $20
9D0B  20                 BYT $20
9D0C  A8                 BYT $A8
9D0D  20                 BYT $20
9D0E  A8                 BYT $A8
9D0F  20                 BYT $20
9D10  20                 BYT $20
9D11  A8                 BYT $A8
9D12  20                 BYT $20
9D13  A8                 BYT $A8
9D14  A8                 BYT $A8
9D15  20                 BYT $20
9D16  20                 BYT $20
9D17  A8                 BYT $A8
9D18  20                 BYT $20
9D19  A8                 BYT $A8
9D1A  20                 BYT $20
9D1B  A8                 BYT $A8
9D1C  20                 BYT $20
9D1D  A8                 BYT $A8
9D1E  20                 BYT $20
9D1F  A8                 BYT $A8
9D20  20                 BYT $20
9D21  A8                 BYT $A8
9D22  20                 BYT $20
9D23  20                 BYT $20
9D24  20                 BYT $20
9D25  A8                 BYT $A8
9D26  20                 BYT $20
9D27  20                 BYT $20
9D28  A8                 BYT $A8
9D29  20                 BYT $20
9D2A  A8                 BYT $A8
9D2B  20                 BYT $20
9D2C  A8                 BYT $A8
9D2D  20                 BYT $20
9D2E  20                 BYT $20
9D2F  20                 BYT $20
9D30  A8                 BYT $A8
9D31  A8                 BYT $A8
9D32  20                 BYT $20
9D33  A8                 BYT $A8
9D34  A8                 BYT $A8
9D35  A8                 BYT $A8
9D36  A8                 BYT $A8
9D37  20                 BYT $20
9D38  A8                 BYT $A8
9D39  20                 BYT $20
9D3A  20                 BYT $20
9D3B  20                 BYT $20
9D3C  20                 BYT $20
9D3D  20                 BYT $20
9D3E  20                 BYT $20
9D3F  20                 BYT $20
9D40  00                 BYT $00
9D41  00                 BYT $00
9D42  10                 BYT $10
9D43  00                 BYT $00
9D44  32                 BYT $32
9D45  00                 BYT $00
9D46  C3                 BYT $C3
9D47  00                 BYT $00
9D48  F6                 BYT $F6
9D49  00                 BYT $00
9D4A  00                 BYT $00
9D4B  4C                 BYT $4C
9D4C  00                 BYT $00
9D4D  A3                 BYT $A3
9D4E  8C                 BYT $8C
9D4F  00                 BYT $00
9D50  00                 BYT $00
9D51  47                 BYT $47
9D52  FE                 BYT $FE
9D53  00                 BYT $00
9D54  00                 BYT $00
9D55  C0                 BYT $C0
9D56  1C                 BYT $1C
9D57  19                 BYT $19
9D58  31                 BYT $31
9D59  EA                 BYT $EA
9D5A  FF                 BYT $FF
9D5B  A3                 BYT $A3
9D5C  07                 BYT $07
9D5D  E8                 BYT $E8
9D5E  47                 BYT $47
9D5F  00                 BYT $00
9D60  02                 BYT $02
9D61  01                 BYT $01
9D62  00                 BYT $00
9D63  00                 BYT $00
9D64  42                 BYT $42
9D65  52                 BYT $52
9D66  4B                 BYT $4B
9D67  00                 BYT $00
9D68  00                 BYT $00
9D69  00                 BYT $00
9D6A  00                 BYT $00
9D6B  00                 BYT $00
9D6C  00                 BYT $00
9D6D  1C                 BYT $1C
9D6E  19                 BYT $19
9D6F  00                 BYT $00
9D70  F0                 BYT $F0
9D71  00                 BYT $00
9D72  18                 BYT $18
9D73  D8                 BYT $D8
9D74  00                 BYT $00
9D75  23                 BYT $23
9D76  24                 BYT $24
9D77  30                 BYT $30
9D78  30                 BYT $30
9D79  00                 BYT $00
9D7A  FF                 BYT $FF
9D7B  00                 BYT $00
9D7C  00                 BYT $00
9D7D  00                 BYT $00
9D7E  00                 BYT $00
9D7F  37                 BYT $37
9D80  6D                 BYT $6D
9D81  43                 BYT $43
9D82  01                 BYT $01
9D83  00                 BYT $00
9D84  00                 BYT $00
9D85  01                 BYT $01
9D86  D6                 BYT $D6
9D87  68                 BYT $68
9D88  02                 BYT $02
9D89  01                 BYT $01
9D8A  0C                 BYT $0C
9D8B  69                 BYT $69
9D8C  02                 BYT $02
9D8D  00                 BYT $00
9D8E  2C                 BYT $2C
9D8F  6C                 BYT $6C
9D90  0A                 BYT $0A
9D91  40                 BYT $40
9D92  02                 BYT $02
9D93  66                 BYT $66
9D94  19                 BYT $19
9D95  00                 BYT $00
9D96  00                 BYT $00
9D97  00                 BYT $00
9D98  00                 BYT $00
9D99  00                 BYT $00
9D9A  00                 BYT $00
9D9B  00                 BYT $00
9D9C  00                 BYT $00
9D9D  00                 BYT $00
9D9E  00                 BYT $00
9D9F  00                 BYT $00
9DA0  00                 BYT $00
9DA1  90                 BYT $90
9DA2  00                 BYT $00
9DA3  00                 BYT $00
9DA4  C0                 BYT $C0
9DA5  00                 BYT $00
9DA6  00                 BYT $00
9DA7  00                 BYT $00
9DA8  00                 BYT $00
9DA9  00                 BYT $00
9DAA  00                 BYT $00
9DAB  00                 BYT $00
9DAC  00                 BYT $00
9DAD  00                 BYT $00
9DAE  00                 BYT $00
9DAF  00                 BYT $00
                 ;________________________________________
9DB0  A5 09      L01522  LDA $09             ; 2 * No. of tombstones
9DB2  8D FE 9F           STA $9FFE           ; Save $09 while initialising page zero
9DB5  A5 37              LDA $37
9DB7  8D FF 9F           STA $9FFF           ; Save $37 while initialising page zero
9DBA  20 88 93           JSR L01388          ; Initialise page zero
9DBD  AD FE 9F           LDA $9FFE
9DC0  85 09              STA $09             ; 2 * No. of tombstones
9DC2  AD FF 9F           LDA $9FFF
9DC5  85 37              STA $37
9DC7  4C 5D 92           JMP L01360
                 ;________________________________________
9DCA  00                 BYT $00
9DCB  00                 BYT $00
9DCC  00                 BYT $00
9DCD  00                 BYT $00
9DCE  00                 BYT $00
9DCF  00                 BYT $00
                 ;________________________________________
                 ;
                 ;   Empty slots on map
                 ;
9DD0  A9 20      L01523  LDA #$20
9DD2  8D DA 77           STA $77DA
9DD5  8D 7B 78           STA $787B
9DD8  8D 1A 79           STA $791A
9DDB  8D 79 78           STA $7879
9DDE  8D 7A 78           STA $787A
9DE1  60                 RTS
                 ;________________________________________
9DE2  A5 2F              LDA $2F
9DE4  F0 14              BEQ L01527
9DE6  A2 04              LDX #$04
9DE8  A5 2F      L01524  LDA $2F
9DEA  29 04              AND #$04            ; IF BIT 2 OFF
9DEC  F0 06              BEQ L01525
9DEE  20 88 15           JSR L00195          ; Move man right 1 pixel
9DF1  4C F7 9D           JMP L01526
9DF4  20 55 15   L01525  JSR L00191          ; Move man left 1 pixel
9DF7  CA         L01526  DEX
9DF8  10 EE              BPL L01524
9DFA  60         L01527  RTS
                 ;________________________________________
9DFB  00                 BYT $00
9DFC  00                 BYT $00
9DFD  00                 BYT $00
9DFE  00                 BYT $00
9DFF  00                 BYT $00             ; 0         
                 ;________________________________________
                 ;
                 ;   Pointers
                 ;
9E00  47                 BYT $47
9E01  52                 BYT $52             ; $5247
9E02  E5                 BYT $E5
9E03  55                 BYT $55             ; $55E5
9E04  08                 BYT $08
9E05  4F                 BYT $4F             ; $4F08
9E06  73                 BYT $73
9E07  5A                 BYT $5A             ; $5A73
9E08  44                 BYT $44
9E09  64                 BYT $64             ; $6444
9E0A  CD                 BYT $CD
9E0B  68                 BYT $68             ; $68CD
9E0C  9F                 BYT $9F
9E0D  67                 BYT $67             ; $679F
9E0E  22                 BYT $22
9E0F  59                 BYT $59             ; $5922
9E10  99                 BYT $99
9E11  60                 BYT $60             ; $6099
9E12  44                 BYT $44
9E13  4A                 BYT $4A             ; $4A44
9E14  23                 BYT $23
9E15  6F                 BYT $6F             ; $6F23
9E16  66                 BYT $66
9E17  7B                 BYT $7B             ; $7B66
9E18  1D                 BYT $1D
9E19  5B                 BYT $5B             ; $5B1D
9E1A  D5                 BYT $D5
9E1B  41                 BYT $41             ; $41D5
9E1C  22                 BYT $22
9E1D  46                 BYT $46             ; $4622
9E1E  27                 BYT $27
9E1F  50                 BYT $50             ; $5027
9E20  75                 BYT $75
9E21  4F                 BYT $4F             ; $4F75
9E22  43                 BYT $43
9E23  53                 BYT $53             ; $5343
9E24  DB                 BYT $DB
9E25  64                 BYT $64             ; $64DB
9E26  ED                 BYT $ED
9E27  5D                 BYT $5D             ; $5DED
9E28  C3                 BYT $C3
9E29  64                 BYT $64             ; $64C3
9E2A  9D                 BYT $9D
9E2B  5A                 BYT $5A             ; $5A9D
9E2C  EE                 BYT $EE
9E2D  6F                 BYT $6F             ; $6FEE
9E2E  5E                 BYT $5E
9E2F  6F                 BYT $6F             ; $6F5E
9E30  F8                 BYT $F8
9E31  74                 BYT $74             ; $74F8
9E32  14                 BYT $14
9E33  75                 BYT $75             ; $7514
9E34  9D                 BYT $9D
9E35  4B                 BYT $4B             ; $4B9D
9E36  75                 BYT $75
9E37  7B                 BYT $7B             ; $7B75
9E38  55                 BYT $55
9E39  79                 BYT $79             ; $7955
9E3A  8F                 BYT $8F
9E3B  74                 BYT $74             ; $748F
9E3C  47                 BYT $47
9E3D  52                 BYT $52             ; $5247
9E3E  E5                 BYT $E5
9E3F  55                 BYT $55             ; $55E5
9E40  10                 BYT $10
9E41  51                 BYT $51             ; $5110
9E42  10                 BYT $10
9E43  51                 BYT $51             ; $5110
9E44  10                 BYT $10
9E45  51                 BYT $51             ; $5110
9E46  10                 BYT $10
9E47  51                 BYT $51             ; $5110
9E48  10                 BYT $10
9E49  51                 BYT $51             ; $5110
9E4A  10                 BYT $10
9E4B  51                 BYT $51             ; $5110
9E4C  10                 BYT $10
9E4D  51                 BYT $51             ; $5110
9E4E  10                 BYT $10
9E4F  51                 BYT $51             ; $5110
9E50  10                 BYT $10
9E51  51                 BYT $51             ; $5110
9E52  10                 BYT $10
9E53  51                 BYT $51             ; $5110
9E54  10                 BYT $10
9E55  51                 BYT $51             ; $5110
9E56  10                 BYT $10
9E57  51                 BYT $51             ; $5110
9E58  10                 BYT $10
9E59  51                 BYT $51             ; $5110
9E5A  10                 BYT $10
9E5B  51                 BYT $51             ; $5110
9E5C  10                 BYT $10
9E5D  51                 BYT $51             ; $5110
9E5E  10                 BYT $10
9E5F  51                 BYT $51             ; $5110
9E60  10                 BYT $10
9E61  51                 BYT $51             ; $5110
9E62  10                 BYT $10
9E63  51                 BYT $51             ; $5110
9E64  10                 BYT $10
9E65  51                 BYT $51             ; $5110
9E66  10                 BYT $10
9E67  51                 BYT $51             ; $5110
9E68  10                 BYT $10
9E69  51                 BYT $51             ; $5110
9E6A  10                 BYT $10
9E6B  51                 BYT $51             ; $5110
9E6C  10                 BYT $10
9E6D  51                 BYT $51             ; $5110
9E6E  10                 BYT $10
9E6F  51                 BYT $51             ; $5110
9E70  10                 BYT $10
9E71  51                 BYT $51             ; $5110
9E72  10                 BYT $10
9E73  51                 BYT $51             ; $5110
9E74  10                 BYT $10
9E75  51                 BYT $51             ; $5110
9E76  10                 BYT $10
9E77  51                 BYT $51             ; $5110
9E78  10                 BYT $10
9E79  51                 BYT $51             ; $5110
9E7A  10                 BYT $10
9E7B  51                 BYT $51             ; $5110
9E7C  10                 BYT $10
9E7D  51                 BYT $51             ; $5110
9E7E  10                 BYT $10
9E7F  51                 BYT $51             ; $5110
                 ;________________________________________
9E80  20                 BYT $20
9E81  20                 BYT $20
9E82  20                 BYT $20
9E83  20                 BYT $20
9E84  88                 BYT $88
9E85  D0                 BYT $D0
9E86  D0                 BYT $D0
9E87  D0                 BYT $D0
9E88  D0                 BYT $D0
9E89  89                 BYT $89
9E8A  20                 BYT $20
9E8B  20                 BYT $20
9E8C  20                 BYT $20
9E8D  20                 BYT $20
9E8E  20                 BYT $20
9E8F  20                 BYT $20
9E90  20                 BYT $20
9E91  88                 BYT $88
9E92  87                 BYT $87
9E93  D0                 BYT $D0
9E94  D0                 BYT $D0
9E95  D0                 BYT $D0
9E96  D0                 BYT $D0
9E97  87                 BYT $87
9E98  89                 BYT $89
9E99  20                 BYT $20
9E9A  20                 BYT $20
9E9B  20                 BYT $20
9E9C  20                 BYT $20
9E9D  20                 BYT $20
9E9E  88                 BYT $88
9E9F  87                 BYT $87
9EA0  87                 BYT $87
9EA1  A8                 BYT $A8
9EA2  A8                 BYT $A8
9EA3  A8                 BYT $A8
9EA4  A8                 BYT $A8
9EA5  87                 BYT $87
9EA6  87                 BYT $87
9EA7  89                 BYT $89
9EA8  20                 BYT $20
9EA9  20                 BYT $20
9EAA  4B                 BYT $4B
9EAB  20                 BYT $20
9EAC  87                 BYT $87
9EAD  87                 BYT $87
9EAE  87                 BYT $87
9EAF  C0                 BYT $C0
9EB0  C1                 BYT $C1
9EB1  C2                 BYT $C2
9EB2  C3                 BYT $C3
9EB3  87                 BYT $87
9EB4  87                 BYT $87
9EB5  87                 BYT $87
9EB6  20                 BYT $20
9EB7  20                 BYT $20
9EB8  1D                 BYT $1D
9EB9  20                 BYT $20
9EBA  87                 BYT $87
9EBB  87                 BYT $87
9EBC  87                 BYT $87
9EBD  C4                 BYT $C4
9EBE  C5                 BYT $C5
9EBF  A8                 BYT $A8
9EC0  C6                 BYT $C6
9EC1  87                 BYT $87
9EC2  87                 BYT $87
9EC3  87                 BYT $87
9EC4  20                 BYT $20
9EC5  53                 BYT $53
9EC6  38                 BYT $38
9EC7  20                 BYT $20
9EC8  87                 BYT $87
9EC9  87                 BYT $87
9ECA  87                 BYT $87
9ECB  C7                 BYT $C7
9ECC  C8                 BYT $C8
9ECD  C9                 BYT $C9
9ECE  CA                 BYT $CA
9ECF  87                 BYT $87
9ED0  87                 BYT $87
9ED1  87                 BYT $87
9ED2  20                 BYT $20
9ED3  25                 BYT $25
9ED4  1A                 BYT $1A
9ED5  20                 BYT $20
9ED6  87                 BYT $87
9ED7  87                 BYT $87
9ED8  87                 BYT $87
9ED9  CB                 BYT $CB
9EDA  CC                 BYT $CC
9EDB  CD                 BYT $CD
9EDC  CE                 BYT $CE
9EDD  87                 BYT $87
9EDE  87                 BYT $87
9EDF  87                 BYT $87
9EE0  20                 BYT $20
9EE1  20                 BYT $20
9EE2  55                 BYT $55
9EE3  20                 BYT $20
9EE4  88                 BYT $88
9EE5  87                 BYT $87
9EE6  87                 BYT $87
9EE7  20                 BYT $20
9EE8  20                 BYT $20
9EE9  20                 BYT $20
9EEA  20                 BYT $20
9EEB  87                 BYT $87
9EEC  87                 BYT $87
9EED  89                 BYT $89
9EEE  20                 BYT $20
9EEF  20                 BYT $20
9EF0  20                 BYT $20
9EF1  20                 BYT $20
9EF2  CF                 BYT $CF
9EF3  CF                 BYT $CF
9EF4  CF                 BYT $CF
9EF5  CF                 BYT $CF
9EF6  CF                 BYT $CF
9EF7  CF                 BYT $CF
9EF8  CF                 BYT $CF
9EF9  CF                 BYT $CF
9EFA  CF                 BYT $CF
9EFB  CF                 BYT $CF
9EFC  20                 BYT $20
9EFD  2A                 BYT $2A
9EFE  20                 BYT $20
9EFF  88                 BYT $88
9F00  87                 BYT $87
9F01  87                 BYT $87
9F02  87                 BYT $87
9F03  87                 BYT $87
9F04  87                 BYT $87
9F05  87                 BYT $87
9F06  87                 BYT $87
9F07  87                 BYT $87
9F08  87                 BYT $87
9F09  87                 BYT $87
9F0A  89                 BYT $89
9F0B  20                 BYT $20
9F0C  4E                 BYT $4E
9F0D  CF                 BYT $CF
9F0E  CF                 BYT $CF
9F0F  CF                 BYT $CF
9F10  CF                 BYT $CF
9F11  CF                 BYT $CF
9F12  CF                 BYT $CF
9F13  CF                 BYT $CF
9F14  CF                 BYT $CF
9F15  CF                 BYT $CF
9F16  CF                 BYT $CF
9F17  CF                 BYT $CF
9F18  CF                 BYT $CF
9F19  50                 BYT $50
9F1A  88                 BYT $88
9F1B  87                 BYT $87
9F1C  87                 BYT $87
9F1D  87                 BYT $87
9F1E  87                 BYT $87
9F1F  87                 BYT $87
9F20  87                 BYT $87
9F21  87                 BYT $87
9F22  87                 BYT $87
9F23  87                 BYT $87
9F24  87                 BYT $87
9F25  87                 BYT $87
9F26  87                 BYT $87
9F27  89                 BYT $89
9F28  CF                 BYT $CF
9F29  CF                 BYT $CF
9F2A  CF                 BYT $CF
9F2B  CF                 BYT $CF
9F2C  CF                 BYT $CF
9F2D  CF                 BYT $CF
9F2E  CF                 BYT $CF
9F2F  CF                 BYT $CF
9F30  CF                 BYT $CF
9F31  CF                 BYT $CF
9F32  CF                 BYT $CF
9F33  CF                 BYT $CF
9F34  CF                 BYT $CF
9F35  CF                 BYT $CF
9F36  7B                 BYT $7B
9F37  18                 BYT $18
9F38  20                 BYT $20
9F39  00                 BYT $00
9F3A  00                 BYT $00
9F3B  00                 BYT $00
9F3C  00                 BYT $00
9F3D  00                 BYT $00
9F3E  00                 BYT $00
9F3F  00                 BYT $00
9F40  00                 BYT $00
9F41  00                 BYT $00
9F42  00                 BYT $00
9F43  00                 BYT $00
9F44  00                 BYT $00
9F45  00                 BYT $00
9F46  00                 BYT $00
9F47  00                 BYT $00
9F48  00                 BYT $00
9F49  00                 BYT $00
9F4A  00                 BYT $00
9F4B  00                 BYT $00
9F4C  00                 BYT $00
9F4D  00                 BYT $00
9F4E  00                 BYT $00
9F4F  00                 BYT $00
9F50  00                 BYT $00
9F51  00                 BYT $00
9F52  00                 BYT $00
9F53  00                 BYT $00
9F54  00                 BYT $00
9F55  00                 BYT $00
9F56  00                 BYT $00
9F57  00                 BYT $00
9F58  00                 BYT $00
9F59  00                 BYT $00
9F5A  00                 BYT $00
9F5B  00                 BYT $00
9F5C  00                 BYT $00
9F5D  00                 BYT $00
9F5E  00                 BYT $00
9F5F  00                 BYT $00
9F60  00                 BYT $00
9F61  00                 BYT $00
9F62  00                 BYT $00
9F63  00                 BYT $00
9F64  00                 BYT $00
9F65  00                 BYT $00
9F66  00                 BYT $00
9F67  00                 BYT $00
9F68  00                 BYT $00
9F69  00                 BYT $00
9F6A  00                 BYT $00
9F6B  00                 BYT $00
9F6C  00                 BYT $00
9F6D  00                 BYT $00
9F6E  00                 BYT $00
9F6F  00                 BYT $00
9F70  00                 BYT $00
9F71  00                 BYT $00
9F72  00                 BYT $00
9F73  00                 BYT $00
9F74  00                 BYT $00
9F75  00                 BYT $00
9F76  00                 BYT $00
9F77  00                 BYT $00
9F78  00                 BYT $00
9F79  00                 BYT $00
9F7A  00                 BYT $00
9F7B  00                 BYT $00
9F7C  00                 BYT $00
9F7D  00                 BYT $00
9F7E  00                 BYT $00
9F7F  00                 BYT $00
                 ;________________________________________
                 ;
                 ;   Pause
                 ;
9F80  A9 30      L01565  LDA #$30
9F82  8D F0 9F   L01566  STA $9FF0
9F85  8D F1 9F   L01567  STA $9FF1
9F88  CE F1 9F   L01568  DEC $9FF1
9F8B  D0 FB              BNE L01568
9F8D  CE F0 9F           DEC $9FF0
9F90  D0 F3              BNE L01567
9F92  60                 RTS
                 ;________________________________________
9F93  00                 BYT $00
9F94  00                 BYT $00
                 ;________________________________________
9F95  A9 80      L01569  LDA #$80
9F97  4C 82 9F           JMP L01566
                 ;________________________________________
9F9A  A9 10      L01570  LDA #$10
9F9C  4C 82 9F           JMP L01566
                 ;________________________________________
9F9F  00                 BYT $00
                 ;________________________________________
9FA0  A9 30      L01571  LDA #$30
9FA2  8D F2 9F           STA $9FF2
9FA5  20 80 9F   L01572  JSR L01565          ; Pause
9FA8  CE F2 9F           DEC $9FF2
9FAB  D0 F8              BNE L01572
9FAD  60                 RTS
                 ;________________________________________
9FAE  EA                 NOP
9FAF  EA                 NOP
9FB0  AD 05 D0   L01573  LDA $D005           ; SPRITE 2 Y POS
9FB3  C9 E8              CMP #$E8
9FB5  90 06              BCC L01574
9FB7  A6 07              LDX $07
9FB9  9A                 TXS
9FBA  4C 77 16           JMP L00219
9FBD  4C 80 9F   L01574  JMP L01565          ; Pause
                 ;________________________________________
9FC0  A2 06      L01575  LDX #$06
9FC2  BD 48 8B   L01576  LDA $8B48,X         ; Song pointer - Song no. 6 (Falling)
9FC5  95 30              STA $30,X
9FC7  CA                 DEX
9FC8  10 F8              BPL L01576
9FCA  A9 21              LDA #$21            ; ENABLE
9FCC  8D 04 D4           STA $D404           ; VOICE 1
9FCF  8D 0B D4           STA $D40B           ; VOICE 2
9FD2  8D 12 D4           STA $D412           ; VOICE 3
9FD5  4C B0 0E           JMP L00039
                 ;________________________________________
9FD8  00                 BYT $00
9FD9  00                 BYT $00
9FDA  00                 BYT $00
9FDB  00                 BYT $00
9FDC  00                 BYT $00
9FDD  00                 BYT $00
9FDE  00                 BYT $00
9FDF  00                 BYT $00
9FE0  00                 BYT $00
9FE1  00                 BYT $00
9FE2  00                 BYT $00
9FE3  00                 BYT $00
9FE4  00                 BYT $00
9FE5  00                 BYT $00
9FE6  00                 BYT $00
9FE7  00                 BYT $00
9FE8  00                 BYT $00
9FE9  00                 BYT $00
9FEA  00                 BYT $00
9FEB  00                 BYT $00
9FEC  00                 BYT $00
9FED  00                 BYT $00
9FEE  00                 BYT $00
9FEF  00                 BYT $00
9FF0  09                 BYT $09
9FF1  0B                 BYT $0B
9FF2  28                 BYT $28
9FF3  00                 BYT $00
9FF4  00                 BYT $00
9FF5  00                 BYT $00
9FF6  00                 BYT $00
9FF7  00                 BYT $00
9FF8  00                 BYT $00
9FF9  0A                 BYT $0A             ; 2 * Initial no. of lives
9FFA  05                 BYT $05
9FFB  00                 BYT $00
9FFC  00                 BYT $00
9FFD  00                 BYT $00             ; 0         
9FFE  02                 BYT $02             ; Copy of 2 * No. of tombstones
9FFF  00                 BYT $00
