00001  0000             *          = $0801
00002  0801             
00003  0801  0A 08 00              BYTE $0A,$08,$00,$00,$9E,$32,$30,$36 ; ENCODE 2058 SYS2061
00004  0809  31 00 00              BYTE $31,$00,$00,$00
00005  080D             ;________________________________________
00006  080D  20 44 A6              JSR $A644           ; EXECUTE NEW COMMAND
00007  0810  78                    SEI
00008  0811  A9 33                 LDA #$33            ; SELECT CHARACTER ROM AT $D000-$DFFF
00009  0813  85 01                 STA $01             ; INPUT/OUTPUT REGISTER
00010  0815  A2 08                 LDX #$08            ; COPY CHARACTER SET FROM $D000 (ROM) TO $3800
00011  0817  A0 00                 LDY #$00
00012  0819  B9 00 D0   L00001     LDA $D000,Y         ; THE HI BYTE OF THIS ADDRESS IS CHANGED IN 0822
00013  081C  99 00 38              STA $3800,Y         ; THE HI BYTE OF THIS ADDRESS IS CHANGED IN 0825
00014  081F  C8                    INY
00015  0820  D0 F7      L00002     BNE L00001
00016  0822  EE 1B 08              INC $081B
00017  0825  EE 1E 08              INC $081E
00018  0828  CA                    DEX
00019  0829  D0 EE                 BNE L00001
00020  082B  A2 3F                 LDX #$3F            ; COPY 8 CHARACTERS FROM RAM TO CUSTOM CHARACTER SET
00021  082D  BD C0 0A   L00003     LDA $0AC0,X
00022  0830  9D C8 3F              STA $3FC8,X
00023  0833  98                    TYA
00024  0834  9D C0 0A              STA $0AC0,X         ; CLEAR THE 8 COPIED CHARACTERS FROM THE SOURCE
00025  0837  9D 40 03              STA $0340,X
00026  083A  CA                    DEX
00027  083B  10 F0                 BPL L00003
00028  083D  4C 00 0D              JMP L00030
00029  0840             ;________________________________________
00030  0840                        ; 21
00031  0840  00 00 00              BYTE $00,$00,$00    ; ................................................
00032  0843  00 00 00              BYTE $00,$00,$00    ; ................................................
00033  0846  00 A8 00              BYTE $00,$A8,$00    ; ................OOOOOOOOOOOO....................
00034  0849  00 A8 00              BYTE $00,$A8,$00    ; ................OOOOOOOOOOOO....................
00035  084C  00 AC 00              BYTE@               
00036  084F  00 BC 00              BYTE@               
00037  0852  00 3C 00              BYTE@               
00038  0855  00 20 00              BYTE $00,$20,$00    ; ....................OOOO........................
00039  0858  00 A8 00              BYTE $00,$A8,$00    ; ................OOOOOOOOOOOO....................
00040  085B  00 A8 00              BYTE $00,$A8,$00    ; ................OOOOOOOOOOOO....................
00041  085E  00 A8 00              BYTE $00,$A8,$00    ; ................OOOOOOOOOOOO....................
00042  0861  00 A8 00              BYTE $00,$A8,$00    ; ................OOOOOOOOOOOO....................
00043  0864  00 A8 00              BYTE $00,$A8,$00    ; ................OOOOOOOOOOOO....................
00044  0867  00 69 00              BYTE $00,$69,$00    ; ................++++OOOOOOOO++++................
00045  086A  00 69 00              BYTE $00,$69,$00    ; ................++++OOOOOOOO++++................
00046  086D  00 28 00              BYTE $00,$28,$00    ; ....................OOOOOOOO....................
00047  0870  00 28 00              BYTE $00,$28,$00    ; ....................OOOOOOOO....................
00048  0873  00 28 00              BYTE $00,$28,$00    ; ....................OOOOOOOO....................
00049  0876  00 14 00              BYTE $00,$14,$00    ; ....................++++++++....................
00050  0879  00 14 00              BYTE $00,$14,$00    ; ....................++++++++....................
00051  087C  00 15 00              BYTE $00,$15,$00    ; ....................++++++++++++................
00052  087F  00                    BYTE $00
00053  0880             ;________________________________________
00054  0880                        ; 22
00055  0880  00 00 00              BYTE $00,$00,$00    ; ................................................
00056  0883  00 00 00              BYTE $00,$00,$00    ; ................................................
00057  0886  00 A8 00              BYTE $00,$A8,$00    ; ................OOOOOOOOOOOO....................
00058  0889  00 A8 00              BYTE $00,$A8,$00    ; ................OOOOOOOOOOOO....................
00059  088C  00 AC 00              BYTE@               
00060  088F  00 BC 00              BYTE@               
00061  0892  00 3C 00              BYTE@               
00062  0895  00 20 00              BYTE $00,$20,$00    ; ....................OOOO........................
00063  0898  00 A8 00              BYTE $00,$A8,$00    ; ................OOOOOOOOOOOO....................
00064  089B  00 A8 00              BYTE $00,$A8,$00    ; ................OOOOOOOOOOOO....................
00065  089E  00 A8 00              BYTE $00,$A8,$00    ; ................OOOOOOOOOOOO....................
00066  08A1  00 AA 00              BYTE $00,$AA,$00    ; ................OOOOOOOOOOOOOOOO................
00067  08A4  02 AA 00              BYTE $02,$AA,$00    ; ............OOOOOOOOOOOOOOOOOOOO................
00068  08A7  01 AA 40              BYTE $01,$AA,$40    ; ............++++OOOOOOOOOOOOOOOO++++............
00069  08AA  01 28 40              BYTE $01,$28,$40    ; ............++++....OOOOOOOO....++++............
00070  08AD  00 28 00              BYTE $00,$28,$00    ; ....................OOOOOOOO....................
00071  08B0  00 2A 00              BYTE $00,$2A,$00    ; ....................OOOOOOOOOOOO................
00072  08B3  00 A2 00              BYTE $00,$A2,$00    ; ................OOOOOOOO....OOOO................
00073  08B6  00 41 00              BYTE $00,$41,$00    ; ................++++........++++................
00074  08B9  00 41 00              BYTE $00,$41,$00    ; ................++++........++++................
00075  08BC  00 51 40              BYTE $00,$51,$40    ; ................++++++++....++++++++............
00076  08BF  00                    BYTE $00
00077  08C0             ;________________________________________
00078  08C0                        ; 23
00079  08C0  00 00 00              BYTE $00,$00,$00    ; ................................................
00080  08C3  00 00 00              BYTE $00,$00,$00    ; ................................................
00081  08C6  00 A8 00              BYTE $00,$A8,$00    ; ................OOOOOOOOOOOO....................
00082  08C9  00 A8 00              BYTE $00,$A8,$00    ; ................OOOOOOOOOOOO....................
00083  08CC  00 E8 00              BYTE@               
00084  08CF  00 F8 00              BYTE@               
00085  08D2  00 F0 00              BYTE@               
00086  08D5  00 20 00              BYTE $00,$20,$00    ; ....................OOOO........................
00087  08D8  00 A8 00              BYTE $00,$A8,$00    ; ................OOOOOOOOOOOO....................
00088  08DB  00 A8 00              BYTE $00,$A8,$00    ; ................OOOOOOOOOOOO....................
00089  08DE  00 A8 00              BYTE $00,$A8,$00    ; ................OOOOOOOOOOOO....................
00090  08E1  00 A8 00              BYTE $00,$A8,$00    ; ................OOOOOOOOOOOO....................
00091  08E4  00 A8 00              BYTE $00,$A8,$00    ; ................OOOOOOOOOOOO....................
00092  08E7  01 A4 00              BYTE $01,$A4,$00    ; ............++++OOOOOOOO++++....................
00093  08EA  01 A4 00              BYTE $01,$A4,$00    ; ............++++OOOOOOOO++++....................
00094  08ED  00 A0 00              BYTE $00,$A0,$00    ; ................OOOOOOOO........................
00095  08F0  00 A0 00              BYTE $00,$A0,$00    ; ................OOOOOOOO........................
00096  08F3  00 A0 00              BYTE $00,$A0,$00    ; ................OOOOOOOO........................
00097  08F6  00 50 00              BYTE $00,$50,$00    ; ................++++++++........................
00098  08F9  00 50 00              BYTE $00,$50,$00    ; ................++++++++........................
00099  08FC  01 50 00              BYTE $01,$50,$00    ; ............++++++++++++........................
00100  08FF  00                    BYTE $00
00101  0900             ;________________________________________
00102  0900                        ; 24
00103  0900  00 00 00              BYTE $00,$00,$00    ; ................................................
00104  0903  00 00 00              BYTE $00,$00,$00    ; ................................................
00105  0906  00 A8 00              BYTE $00,$A8,$00    ; ................OOOOOOOOOOOO....................
00106  0909  00 A8 00              BYTE $00,$A8,$00    ; ................OOOOOOOOOOOO....................
00107  090C  00 E8 00              BYTE@               
00108  090F  00 F8 00              BYTE@               
00109  0912  00 F0 00              BYTE@               
00110  0915  00 20 00              BYTE $00,$20,$00    ; ....................OOOO........................
00111  0918  00 A8 00              BYTE $00,$A8,$00    ; ................OOOOOOOOOOOO....................
00112  091B  00 A8 00              BYTE $00,$A8,$00    ; ................OOOOOOOOOOOO....................
00113  091E  00 A8 00              BYTE $00,$A8,$00    ; ................OOOOOOOOOOOO....................
00114  0921  02 A8 00              BYTE $02,$A8,$00    ; ............OOOOOOOOOOOOOOOO....................
00115  0924  02 AA 00              BYTE $02,$AA,$00    ; ............OOOOOOOOOOOOOOOOOOOO................
00116  0927  06 A9 00              BYTE $06,$A9,$00    ; ........++++OOOOOOOOOOOOOOOO++++................
00117  092A  04 A1 00              BYTE $04,$A1,$00    ; ........++++....OOOOOOOO....++++................
00118  092D  00 A0 00              BYTE $00,$A0,$00    ; ................OOOOOOOO........................
00119  0930  02 A0 00              BYTE $02,$A0,$00    ; ............OOOOOOOOOOOO........................
00120  0933  02 28 00              BYTE $02,$28,$00    ; ............OOOO....OOOOOOOO....................
00121  0936  01 04 00              BYTE $01,$04,$00    ; ............++++........++++....................
00122  0939  01 04 00              BYTE $01,$04,$00    ; ............++++........++++....................
00123  093C  05 14 00              BYTE $05,$14,$00    ; ........++++++++....++++++++....................
00124  093F  00                    BYTE $00
00125  0940             ;________________________________________
00126  0940                        ; 25
00127  0940  00 00 00              BYTE $00,$00,$00    ; ................................................
00128  0943  00 00 00              BYTE $00,$00,$00    ; ................................................
00129  0946  04 A8 00              BYTE $04,$A8,$00    ; ........++++....OOOOOOOOOOOO....................
00130  0949  04 A8 00              BYTE $04,$A8,$00    ; ........++++....OOOOOOOOOOOO....................
00131  094C  08 A8 00              BYTE $08,$A8,$00    ; ........OOOO....OOOOOOOOOOOO....................
00132  094F  08 A8 40              BYTE $08,$A8,$40    ; ........OOOO....OOOOOOOOOOOO....++++............
00133  0952  08 30 40              BYTE@               
00134  0955  0A A8 80              BYTE $0A,$A8,$80    ; ........OOOOOOOOOOOOOOOOOOOO....OOOO............
00135  0958  0A AA 80              BYTE $0A,$AA,$80    ; ........OOOOOOOOOOOOOOOOOOOOOOOOOOOO............
00136  095B  00 AA 80              BYTE $00,$AA,$80    ; ................OOOOOOOOOOOOOOOOOOOO............
00137  095E  00 A8 00              BYTE $00,$A8,$00    ; ................OOOOOOOOOOOO....................
00138  0961  00 A8 00              BYTE $00,$A8,$00    ; ................OOOOOOOOOOOO....................
00139  0964  00 A8 00              BYTE $00,$A8,$00    ; ................OOOOOOOOOOOO....................
00140  0967  00 A8 00              BYTE $00,$A8,$00    ; ................OOOOOOOOOOOO....................
00141  096A  00 88 00              BYTE $00,$88,$00    ; ................OOOO....OOOO....................
00142  096D  00 84 00              BYTE $00,$84,$00    ; ................OOOO....++++....................
00143  0970  00 84 00              BYTE $00,$84,$00    ; ................OOOO....++++....................
00144  0973  00 85 00              BYTE $00,$85,$00    ; ................OOOO....++++++++................
00145  0976  00 40 00              BYTE $00,$40,$00    ; ................++++............................
00146  0979  00 40 00              BYTE $00,$40,$00    ; ................++++............................
00147  097C  01 40 00              BYTE $01,$40,$00    ; ............++++++++............................
00148  097F  00                    BYTE $00
00149  0980             ;________________________________________
00150  0980                        ; 26
00151  0980  00 00 00              BYTE $00,$00,$00    ; ................................................
00152  0983  00 00 00              BYTE $00,$00,$00    ; ................................................
00153  0986  00 A8 40              BYTE $00,$A8,$40    ; ................OOOOOOOOOOOO....++++............
00154  0989  00 A8 40              BYTE $00,$A8,$40    ; ................OOOOOOOOOOOO....++++............
00155  098C  00 A8 80              BYTE $00,$A8,$80    ; ................OOOOOOOOOOOO....OOOO............
00156  098F  04 A8 80              BYTE $04,$A8,$80    ; ........++++....OOOOOOOOOOOO....OOOO............
00157  0992  04 30 80              BYTE@               
00158  0995  08 AA 80              BYTE $08,$AA,$80    ; ........OOOO....OOOOOOOOOOOOOOOOOOOO............
00159  0998  0A AA 80              BYTE $0A,$AA,$80    ; ........OOOOOOOOOOOOOOOOOOOOOOOOOOOO............
00160  099B  0A A8 00              BYTE $0A,$A8,$00    ; ........OOOOOOOOOOOOOOOOOOOO....................
00161  099E  00 A8 00              BYTE $00,$A8,$00    ; ................OOOOOOOOOOOO....................
00162  09A1  00 A8 00              BYTE $00,$A8,$00    ; ................OOOOOOOOOOOO....................
00163  09A4  00 A8 00              BYTE $00,$A8,$00    ; ................OOOOOOOOOOOO....................
00164  09A7  00 A8 00              BYTE $00,$A8,$00    ; ................OOOOOOOOOOOO....................
00165  09AA  00 88 00              BYTE $00,$88,$00    ; ................OOOO....OOOO....................
00166  09AD  00 48 00              BYTE $00,$48,$00    ; ................++++....OOOO....................
00167  09B0  00 48 00              BYTE $00,$48,$00    ; ................++++....OOOO....................
00168  09B3  01 48 00              BYTE $01,$48,$00    ; ............++++++++....OOOO....................
00169  09B6  00 04 00              BYTE $00,$04,$00    ; ........................++++....................
00170  09B9  00 04 00              BYTE $00,$04,$00    ; ........................++++....................
00171  09BC  00 05 00              BYTE $00,$05,$00    ; ........................++++++++................
00172  09BF  00                    BYTE $00
00173  09C0             ;________________________________________
00174  09C0                        ; 27
00175  09C0  28 00 0A              BYTE $28,$00,$0A    ; ....OOOOOOOO............................OOOOOOOO
00176  09C3  2A 00 2A              BYTE $2A,$00,$2A    ; ....OOOOOOOOOOOO....................OOOOOOOOOOOO
00177  09C6  0A 80 A8              BYTE $0A,$80,$A8    ; ........OOOOOOOOOOOO............OOOOOOOOOOOO....
00178  09C9  0A AA A8              BYTE $0A,$AA,$A8    ; ........OOOOOOOOOOOOOOOOOOOOOOOOOOOOOOOOOOOO....
00179  09CC  0A AA A8              BYTE $0A,$AA,$A8    ; ........OOOOOOOOOOOOOOOOOOOOOOOOOOOOOOOOOOOO....
00180  09CF  08 48 48              BYTE $08,$48,$48    ; ........OOOO....++++....OOOO....++++....OOOO....
00181  09D2  0A 2A 28              BYTE $0A,$2A,$28    ; ........OOOOOOOO....OOOOOOOOOOOO....OOOOOOOO....
00182  09D5  0A AA A8              BYTE $0A,$AA,$A8    ; ........OOOOOOOOOOOOOOOOOOOOOOOOOOOOOOOOOOOO....
00183  09D8  0A AA A8              BYTE $0A,$AA,$A8    ; ........OOOOOOOOOOOOOOOOOOOOOOOOOOOOOOOOOOOO....
00184  09DB  0A AA 98              BYTE $0A,$AA,$98    ; ........OOOOOOOOOOOOOOOOOOOOOOOOOOOO++++OOOO....
00185  09DE  AA AA 68              BYTE $AA,$AA,$68    ; OOOOOOOOOOOOOOOOOOOOOOOOOOOOOOOO++++OOOOOOOO....
00186  09E1  59 69 A8              BYTE $59,$69,$A8    ; ++++++++OOOO++++++++OOOOOOOO++++OOOOOOOOOOOO....
00187  09E4  44 56 A8              BYTE $44,$56,$A8    ; ++++....++++....++++++++++++OOOOOOOOOOOOOOOO....
00188  09E7  55 5A A8              BYTE $55,$5A,$A8    ; ++++++++++++++++++++++++OOOOOOOOOOOOOOOOOOOO....
00189  09EA  99 AA A8              BYTE $99,$AA,$A8    ; OOOO++++OOOO++++OOOOOOOOOOOOOOOOOOOOOOOOOOOO....
00190  09ED  11 02 A8              BYTE $11,$02,$A8    ; ....++++....++++............OOOOOOOOOOOOOOOO....
00191  09F0  00 00 A8              BYTE $00,$00,$A8    ; ................................OOOOOOOOOOOO....
00192  09F3  00 00 A8              BYTE $00,$00,$A8    ; ................................OOOOOOOOOOOO....
00193  09F6  00 00 28              BYTE $00,$00,$28    ; ....................................OOOOOOOO....
00194  09F9  00 00 28              BYTE $00,$00,$28    ; ....................................OOOOOOOO....
00195  09FC  00 00 28              BYTE $00,$00,$28    ; ....................................OOOOOOOO....
00196  09FF  00                    BYTE $00
00197  0A00             ;________________________________________
00198  0A00                        ; 28
00199  0A00  28 00 0A              BYTE $28,$00,$0A    ; ....OOOOOOOO............................OOOOOOOO
00200  0A03  2A 00 2A              BYTE $2A,$00,$2A    ; ....OOOOOOOOOOOO....................OOOOOOOOOOOO
00201  0A06  0A 80 A8              BYTE $0A,$80,$A8    ; ........OOOOOOOOOOOO............OOOOOOOOOOOO....
00202  0A09  0A AA A8              BYTE $0A,$AA,$A8    ; ........OOOOOOOOOOOOOOOOOOOOOOOOOOOOOOOOOOOO....
00203  0A0C  0A AA A8              BYTE $0A,$AA,$A8    ; ........OOOOOOOOOOOOOOOOOOOOOOOOOOOOOOOOOOOO....
00204  0A0F  08 48 48              BYTE $08,$48,$48    ; ........OOOO....++++....OOOO....++++....OOOO....
00205  0A12  0A 2A 28              BYTE $0A,$2A,$28    ; ........OOOOOOOO....OOOOOOOOOOOO....OOOOOOOO....
00206  0A15  0A AA A8              BYTE $0A,$AA,$A8    ; ........OOOOOOOOOOOOOOOOOOOOOOOOOOOOOOOOOOOO....
00207  0A18  0A AA A8              BYTE $0A,$AA,$A8    ; ........OOOOOOOOOOOOOOOOOOOOOOOOOOOOOOOOOOOO....
00208  0A1B  0A AA 98              BYTE $0A,$AA,$98    ; ........OOOOOOOOOOOOOOOOOOOOOOOOOOOO++++OOOO....
00209  0A1E  AA AA 58              BYTE $AA,$AA,$58    ; OOOOOOOOOOOOOOOOOOOOOOOOOOOOOOOO++++++++OOOO....
00210  0A21  59 69 D8              BYTE@               
00211  0A24  44 57 D8              BYTE@               
00212  0A27  55 5F 68              BYTE@               
00213  0A2A  99 9F 68              BYTE@               
00214  0A2D  11 1F 68              BYTE@               
00215  0A30  00 7D A8              BYTE@               
00216  0A33  00 7D A8              BYTE@               
00217  0A36  00 7D 28              BYTE@               
00218  0A39  01 F4 28              BYTE@               
00219  0A3C  01 54 28              BYTE $01,$54,$28    ; ............++++++++++++++++........OOOOOOOO....
00220  0A3F  00                    BYTE $00
00221  0A40             ;________________________________________
00222  0A40                        ; 29
00223  0A40  00 50 00              BYTE $00,$50,$00    ; ................++++++++........................
00224  0A43  00 54 00              BYTE $00,$54,$00    ; ................++++++++++++....................
00225  0A46  00 A8 00              BYTE $00,$A8,$00    ; ................OOOOOOOOOOOO....................
00226  0A49  00 AA 00              BYTE $00,$AA,$00    ; ................OOOOOOOOOOOOOOOO................
00227  0A4C  00 FA 00              BYTE@               
00228  0A4F  00 FA 80              BYTE@               
00229  0A52  00 FA 80              BYTE@               
00230  0A55  00 1A 80              BYTE $00,$1A,$80    ; ....................++++OOOOOOOOOOOO............
00231  0A58  00 5A 80              BYTE $00,$5A,$80    ; ................++++++++OOOOOOOOOOOO............
00232  0A5B  01 5A 00              BYTE $01,$5A,$00    ; ............++++++++++++OOOOOOOO................
00233  0A5E  01 58 00              BYTE $01,$58,$00    ; ............++++++++++++OOOO....................
00234  0A61  00 54 00              BYTE $00,$54,$00    ; ................++++++++++++....................
00235  0A64  00 54 00              BYTE $00,$54,$00    ; ................++++++++++++....................
00236  0A67  00 54 00              BYTE $00,$54,$00    ; ................++++++++++++....................
00237  0A6A  01 55 00              BYTE $01,$55,$00    ; ............++++++++++++++++++++................
00238  0A6D  05 55 40              BYTE $05,$55,$40    ; ........++++++++++++++++++++++++++++............
00239  0A70  05 55 40              BYTE $05,$55,$40    ; ........++++++++++++++++++++++++++++............
00240  0A73  15 55 50              BYTE $15,$55,$50    ; ....++++++++++++++++++++++++++++++++++++........
00241  0A76  15 55 50              BYTE $15,$55,$50    ; ....++++++++++++++++++++++++++++++++++++........
00242  0A79  15 55 50              BYTE $15,$55,$50    ; ....++++++++++++++++++++++++++++++++++++........
00243  0A7C  15 55 50              BYTE $15,$55,$50    ; ....++++++++++++++++++++++++++++++++++++........
00244  0A7F  15                    BYTE $15
00245  0A80             ;________________________________________
00246  0A80                        ; 2A
00247  0A80  1F FF F8              BYTE@               
00248  0A83  3F FF FC              BYTE@               
00249  0A86  7F FF FE              BYTE@               
00250  0A89  FF FF FF              BYTE@               
00251  0A8C  DA 2E 1B              BYTE@               
00252  0A8F  DA EE DB              BYTE@               
00253  0A92  C2 6E 1B              BYTE@               
00254  0A95  DA EE FF              BYTE@               
00255  0A98  DA 22 FB              BYTE@               
00256  0A9B  FF FF FF              BYTE@               
00257  0A9E  7F FF FE              BYTE@               
00258  0AA1  3F FF FC              BYTE@               
00259  0AA4  1F FF F8              BYTE@               
00260  0AA7  00 FF 00              BYTE@               
00261  0AAA  00 3F 80              BYTE@               
00262  0AAD  00 0F C0              BYTE@               
00263  0AB0  00 03 E0              BYTE@               
00264  0AB3  00 00 F0              BYTE@               
00265  0AB6  00 00 38              BYTE@               
00266  0AB9  00 00 0C              BYTE@               
00267  0ABC  00 00 02              BYTE@..             
00268  0ABF  00                    BYTE $00
00269  0AC0                        ; F9
00270  0AC0  55                    BYTE@..             
00271  0AC1  55                    BYTE@..             
00272  0AC2  65                    BYTE@               
00273  0AC3  99                    BYTE@....           
00274  0AC4  99                    BYTE@....           
00275  0AC5  65                    BYTE@               
00276  0AC6  55                    BYTE@..             
00277  0AC7  55                    BYTE@..             
00278  0AC8                        ; FA
00279  0AC8  FF                    BYTE@               
00280  0AC9  FA                    BYTE@               
00281  0ACA  EB                    BYTE@               
00282  0ACB  AF                    BYTE@..             
00283  0ACC  AF                    BYTE@..             
00284  0ACD  EB                    BYTE@               
00285  0ACE  FA                    BYTE@               
00286  0ACF  FF                    BYTE@               
00287  0AD0                        ; FB
00288  0AD0  FF                    BYTE@               
00289  0AD1  AF                    BYTE@..             
00290  0AD2  EB                    BYTE@               
00291  0AD3  FA                    BYTE@               
00292  0AD4  FA                    BYTE@               
00293  0AD5  EB                    BYTE@               
00294  0AD6  AF                    BYTE@..             
00295  0AD7  FF                    BYTE@               
00296  0AD8                        ; FC
00297  0AD8  03                    BYTE@               
00298  0AD9  03                    BYTE@               
00299  0ADA  0F                    BYTE@               
00300  0ADB  03                    BYTE@               
00301  0ADC  03                    BYTE@               
00302  0ADD  03                    BYTE@               
00303  0ADE  0F                    BYTE@               
00304  0ADF  03                    BYTE@               
00305  0AE0                        ; FD
00306  0AE0  C0                    BYTE@               
00307  0AE1  C0                    BYTE@               
00308  0AE2  F0                    BYTE@               
00309  0AE3  C0                    BYTE@               
00310  0AE4  C0                    BYTE@               
00311  0AE5  C0                    BYTE@               
00312  0AE6  F0                    BYTE@               
00313  0AE7  C0                    BYTE@               
00314  0AE8                        ; FE
00315  0AE8  55                    BYTE@..             
00316  0AE9  55                    BYTE@..             
00317  0AEA  FF                    BYTE@               
00318  0AEB  00                    BYTE $00            ;     ................        ................
00319  0AEC  00                    BYTE $00            ;     ................        ................
00320  0AED  00                    BYTE $00            ;     ................        ................
00321  0AEE  FF                    BYTE@               
00322  0AEF  00                    BYTE $00            ;     ................        ................
00323  0AF0                        ; FF
00324  0AF0  00                    BYTE $00            ;     ................        ................
00325  0AF1  00                    BYTE $00            ;     ................        ................
00326  0AF2  FF                    BYTE@               
00327  0AF3  00                    BYTE $00            ;     ................        ................
00328  0AF4  00                    BYTE $00            ;     ................        ................
00329  0AF5  00                    BYTE $00            ;     ................        ................
00330  0AF6  FF                    BYTE@               
00331  0AF7  00                    BYTE $00            ;     ................        ................
00332  0AF8                        ; 00
00333  0AF8  D8                    BYTE@               
00334  0AF9  1F                    BYTE@               
00335  0AFA  01                    BYTE@        ............++++
00336  0AFB  00                    BYTE $00            ;     ................        ................
00337  0AFC  0C                    BYTE@               
00338  0AFD  01                    BYTE@        ............++++
00339  0AFE  01                    BYTE@        ............++++
00340  0AFF  0A                    BYTE@..             
00341  0B00             ;________________________________________
00342  0B00                        ; 2C
00343  0B00  88 00 00              BYTE@......         
00344  0B03  82 01 80              BYTE@..........     
00345  0B06  C3 31 00              BYTE@               
00346  0B09  41 23 10              BYTE@..........     
00347  0B0C  53 04 00              BYTE@..             
00348  0B0F  10 40 00              BYTE@..........     
00349  0B12  9A E0 80              BYTE@....           
00350  0B15  06 85 00              BYTE@               
00351  0B18  25 DC 00              BYTE@....           
00352  0B1B  63 F8 03              BYTE@               
00353  0B1E  33 30 06              BYTE@               
00354  0B21  37 70 0C              BYTE@               
00355  0B24  3E 60 1C              BYTE@               
00356  0B27  1F E0 70              BYTE@               
00357  0B2A  1B C1 F0              BYTE@               
00358  0B2D  19 E3 E0              BYTE@               
00359  0B30  19 FF E0              BYTE@               
00360  0B33  0F FF C0              BYTE@               
00361  0B36  0F FF C0              BYTE@               
00362  0B39  03 FF 00              BYTE@               
00363  0B3C  00 78 00              BYTE@               
00364  0B3F  00                    BYTE $00
00365  0B40             ;________________________________________
00366  0B40                        ; 2D
00367  0B40  00 00 00              BYTE $00,$00,$00    ; ................................................
00368  0B43  00 00 00              BYTE $00,$00,$00    ; ................................................
00369  0B46  00 A8 00              BYTE $00,$A8,$00    ; ................OOOOOOOOOOOO....................
00370  0B49  00 20 00              BYTE $00,$20,$00    ; ....................OOOO........................
00371  0B4C  00 A8 00              BYTE $00,$A8,$00    ; ................OOOOOOOOOOOO....................
00372  0B4F  00 30 00              BYTE@               
00373  0B52  00 FC 00              BYTE@               
00374  0B55  02 32 00              BYTE@               
00375  0B58  00 A8 00              BYTE $00,$A8,$00    ; ................OOOOOOOOOOOO....................
00376  0B5B  02 22 00              BYTE $02,$22,$00    ; ............OOOO....OOOO....OOOO................
00377  0B5E  00 A8 00              BYTE $00,$A8,$00    ; ................OOOOOOOOOOOO....................
00378  0B61  02 22 00              BYTE $02,$22,$00    ; ............OOOO....OOOO....OOOO................
00379  0B64  00 A8 00              BYTE $00,$A8,$00    ; ................OOOOOOOOOOOO....................
00380  0B67  02 22 00              BYTE $02,$22,$00    ; ............OOOO....OOOO....OOOO................
00381  0B6A  00 A8 00              BYTE $00,$A8,$00    ; ................OOOOOOOOOOOO....................
00382  0B6D  02 22 00              BYTE $02,$22,$00    ; ............OOOO....OOOO....OOOO................
00383  0B70  00 A8 00              BYTE $00,$A8,$00    ; ................OOOOOOOOOOOO....................
00384  0B73  01 21 00              BYTE $01,$21,$00    ; ............++++....OOOO....++++................
00385  0B76  00 54 00              BYTE $00,$54,$00    ; ................++++++++++++....................
00386  0B79  00 10 00              BYTE $00,$10,$00    ; ....................++++........................
00387  0B7C  01 55 00              BYTE $01,$55,$00    ; ............++++++++++++++++++++................
00388  0B7F  00                    BYTE $00
00389  0B80             ;________________________________________
00390  0B80                        ; 2E
00391  0B80  00 00 00              BYTE $00,$00,$00    ; ................................................
00392  0B83  00 00 00              BYTE $00,$00,$00    ; ................................................
00393  0B86  00 88 00              BYTE $00,$88,$00    ; ................OOOO....OOOO....................
00394  0B89  02 02 00              BYTE $02,$02,$00    ; ............OOOO............OOOO................
00395  0B8C  00 00 80              BYTE $00,$00,$80    ; ................................OOOO............
00396  0B8F  02 32 00              BYTE@               
00397  0B92  08 0C 00              BYTE@               
00398  0B95  02 02 20              BYTE $02,$02,$20    ; ............OOOO............OOOO....OOOO........
00399  0B98  00 88 00              BYTE $00,$88,$00    ; ................OOOO....OOOO....................
00400  0B9B  00 02 20              BYTE $00,$02,$20    ; ............................OOOO....OOOO........
00401  0B9E  08 00 80              BYTE $08,$00,$80    ; ........OOOO....................OOOO............
00402  0BA1  02 20 00              BYTE $02,$20,$00    ; ............OOOO....OOOO........................
00403  0BA4  08 88 80              BYTE $08,$88,$80    ; ........OOOO....OOOO....OOOO....OOOO............
00404  0BA7  00 02 20              BYTE $00,$02,$20    ; ............................OOOO....OOOO........
00405  0BAA  08 00 00              BYTE $08,$00,$00    ; ........OOOO....................................
00406  0BAD  02 22 20              BYTE $02,$22,$20    ; ............OOOO....OOOO....OOOO....OOOO........
00407  0BB0  00 80 80              BYTE $00,$80,$80    ; ................OOOO............OOOO............
00408  0BB3  01 21 00              BYTE $01,$21,$00    ; ............++++....OOOO....++++................
00409  0BB6  04 00 40              BYTE $04,$00,$40    ; ........++++....................++++............
00410  0BB9  00 10 20              BYTE $00,$10,$20    ; ....................++++............OOOO........
00411  0BBC  04 40 40              BYTE $04,$40,$40    ; ........++++....++++............++++............
00412  0BBF  00                    BYTE $00
00413  0BC0             ;________________________________________
00414  0BC0                        ; 2F
00415  0BC0  00 00 00              BYTE $00,$00,$00    ; ................................................
00416  0BC3  00 00 00              BYTE $00,$00,$00    ; ................................................
00417  0BC6  00 00 00              BYTE $00,$00,$00    ; ................................................
00418  0BC9  00 00 00              BYTE $00,$00,$00    ; ................................................
00419  0BCC  00 00 00              BYTE $00,$00,$00    ; ................................................
00420  0BCF  00 00 00              BYTE $00,$00,$00    ; ................................................
00421  0BD2  00 5E 00              BYTE@               
00422  0BD5  01 FF 80              BYTE@               
00423  0BD8  07 FF E0              BYTE@               
00424  0BDB  1E FF B8              BYTE@               
00425  0BDE  18 FE 38              BYTE@               
00426  0BE1  60 38 0E              BYTE@               
00427  0BE4  61 38 4E              BYTE@               
00428  0BE7  E0 18 06              BYTE@               
00429  0BEA  FC 7F 1E              BYTE@               
00430  0BED  FF AA FE              BYTE@               
00431  0BF0  FE 00 FE              BYTE@               
00432  0BF3  F8 57 3E              BYTE@               
00433  0BF6  FD FE 1E              BYTE@               
00434  0BF9  FF FF FE              BYTE@               
00435  0BFC  FF FF FE              BYTE@               
00436  0BFF  3F                    BYTE $3F
00437  0C00             ;________________________________________
00438  0C00                        ; 30
00439  0C00  00 7F 80              BYTE@               
00440  0C03  00 F3 C0              BYTE@               
00441  0C06  00 E1 C0              BYTE@               
00442  0C09  00 E1 C0              BYTE@               
00443  0C0C  00 E1 C0              BYTE@               
00444  0C0F  00 F3 C0              BYTE@               
00445  0C12  00 7F 80              BYTE@               
00446  0C15  00 1E 00              BYTE@               
00447  0C18  00 1E 00              BYTE@               
00448  0C1B  00 1E 00              BYTE@               
00449  0C1E  00 1E 00              BYTE@               
00450  0C21  00 1E 00              BYTE@               
00451  0C24  00 1E 00              BYTE@               
00452  0C27  03 FE 00              BYTE@               
00453  0C2A  03 FE 00              BYTE@               
00454  0C2D  00 7E 00              BYTE@               
00455  0C30  00 7E 00              BYTE@               
00456  0C33  03 FE 00              BYTE@               
00457  0C36  03 FE 00              BYTE@               
00458  0C39  00 1E 00              BYTE@               
00459  0C3C  00 08 00              BYTE@......................
00460  0C3F  00                    BYTE $00
00461  0C40             ;________________________________________
00462  0C40                        ; 31
00463  0C40  00 20 00              BYTE $00,$20,$00    ; ....................OOOO........................
00464  0C43  00 88 00              BYTE $00,$88,$00    ; ................OOOO....OOOO....................
00465  0C46  00 88 00              BYTE $00,$88,$00    ; ................OOOO....OOOO....................
00466  0C49  00 20 00              BYTE $00,$20,$00    ; ....................OOOO........................
00467  0C4C  00 A8 00              BYTE $00,$A8,$00    ; ................OOOOOOOOOOOO....................
00468  0C4F  02 AA 00              BYTE $02,$AA,$00    ; ............OOOOOOOOOOOOOOOOOOOO................
00469  0C52  02 AA 00              BYTE $02,$AA,$00    ; ............OOOOOOOOOOOOOOOOOOOO................
00470  0C55  02 AA 00              BYTE $02,$AA,$00    ; ............OOOOOOOOOOOOOOOOOOOO................
00471  0C58  02 AA 00              BYTE $02,$AA,$00    ; ............OOOOOOOOOOOOOOOOOOOO................
00472  0C5B  02 AA 00              BYTE $02,$AA,$00    ; ............OOOOOOOOOOOOOOOOOOOO................
00473  0C5E  02 AA 00              BYTE $02,$AA,$00    ; ............OOOOOOOOOOOOOOOOOOOO................
00474  0C61  02 AA 00              BYTE $02,$AA,$00    ; ............OOOOOOOOOOOOOOOOOOOO................
00475  0C64  02 AA 00              BYTE $02,$AA,$00    ; ............OOOOOOOOOOOOOOOOOOOO................
00476  0C67  0A AA 80              BYTE $0A,$AA,$80    ; ........OOOOOOOOOOOOOOOOOOOOOOOOOOOO............
00477  0C6A  0A AA 80              BYTE $0A,$AA,$80    ; ........OOOOOOOOOOOOOOOOOOOOOOOOOOOO............
00478  0C6D  2A AA A0              BYTE $2A,$AA,$A0    ; ....OOOOOOOOOOOOOOOOOOOOOOOOOOOOOOOOOOOO........
00479  0C70  00 54 00              BYTE $00,$54,$00    ; ................++++++++++++....................
00480  0C73  00 10 00              BYTE $00,$10,$00    ; ....................++++........................
00481  0C76  00 00 00              BYTE $00,$00,$00    ; ................................................
00482  0C79  00 00 00              BYTE $00,$00,$00    ; ................................................
00483  0C7C  00 00 00              BYTE $00,$00,$00    ; ................................................
00484  0C7F  00                    BYTE $00
00485  0C80             ;________________________________________
00486  0C80                        ; 32
00487  0C80  00 02 00              BYTE $00,$02,$00    ; ............................OOOO................
00488  0C83  00 08 00              BYTE $00,$08,$00    ; ........................OOOO....................
00489  0C86  00 20 00              BYTE $00,$20,$00    ; ....................OOOO........................
00490  0C89  00 22 A0              BYTE $00,$22,$A0    ; ....................OOOO....OOOOOOOOOOOO........
00491  0C8C  0A 88 A8              BYTE $0A,$88,$A8    ; ........OOOOOOOOOOOO....OOOO....OOOOOOOOOOOO....
00492  0C8F  2A 28 2A              BYTE $2A,$28,$2A    ; ....OOOOOOOOOOOO....OOOOOOOO........OOOOOOOOOOOO
00493  0C92  A8 8A 00              BYTE $A8,$8A,$00    ; OOOOOOOOOOOO....OOOO....OOOOOOOO................
00494  0C95  A2 08 80              BYTE $A2,$08,$80    ; OOOOOOOO....OOOO........OOOO....OOOO............
00495  0C98  02 20 80              BYTE $02,$20,$80    ; ............OOOO....OOOO........OOOO............
00496  0C9B  08 20 20              BYTE $08,$20,$20    ; ........OOOO........OOOO............OOOO........
00497  0C9E  08 20 30              BYTE@               
00498  0CA1  30 20 FC              BYTE@               
00499  0CA4  FC 30 FC              BYTE@               
00500  0CA7  FC FC FC              BYTE@               
00501  0CAA  FC FC FC              BYTE@               
00502  0CAD  FC FC 30              BYTE@               
00503  0CB0  30 FC 00              BYTE@               
00504  0CB3  00 30 00              BYTE@               
00505  0CB6  00 00 00              BYTE $00,$00,$00    ; ................................................
00506  0CB9  00 00 00              BYTE $00,$00,$00    ; ................................................
00507  0CBC  00 00 00              BYTE $00,$00,$00    ; ................................................
00508  0CBF  00                    BYTE $00
00509  0CC0             ;________________________________________
00510  0CC0                        ; 33
00511  0CC0  03 FF 00              BYTE@               
00512  0CC3  3C FC F0              BYTE@               
00513  0CC6  FF FF FC              BYTE@               
00514  0CC9  0F 57 C0              BYTE@               
00515  0CCC  FF 57 FC              BYTE@               
00516  0CCF  FC FC FC              BYTE@               
00517  0CD2  F3 FF 3C              BYTE@               
00518  0CD5  03 FF 00              BYTE@               
00519  0CD8  00 20 00              BYTE $00,$20,$00    ; ....................OOOO........................
00520  0CDB  80 20 00              BYTE $80,$20,$00    ; OOOO................OOOO........................
00521  0CDE  A8 20 0A              BYTE $A8,$20,$0A    ; OOOOOOOOOOOO........OOOO................OOOOOOOO
00522  0CE1  A8 20 2A              BYTE $A8,$20,$2A    ; OOOOOOOOOOOO........OOOO............OOOOOOOOOOOO
00523  0CE4  2A 20 AA              BYTE $2A,$20,$AA    ; ....OOOOOOOOOOOO....OOOO........OOOOOOOOOOOOOOOO
00524  0CE7  2A A2 A8              BYTE $2A,$A2,$A8    ; ....OOOOOOOOOOOOOOOOOOOO....OOOOOOOOOOOOOOOO....
00525  0CEA  02 AA 80              BYTE $02,$AA,$80    ; ............OOOOOOOOOOOOOOOOOOOOOOOO............
00526  0CED  00 2A 00              BYTE $00,$2A,$00    ; ....................OOOOOOOOOOOO................
00527  0CF0  00 20 00              BYTE $00,$20,$00    ; ....................OOOO........................
00528  0CF3  00 20 00              BYTE $00,$20,$00    ; ....................OOOO........................
00529  0CF6  00 20 00              BYTE $00,$20,$00    ; ....................OOOO........................
00530  0CF9  00 20 00              BYTE $00,$20,$00    ; ....................OOOO........................
00531  0CFC  00 00 00              BYTE $00,$00,$00    ; ................................................
00532  0CFF  00                    BYTE $00
00533  0D00             ;________________________________________
00534  0D00  A9 37      L00030     LDA #$37
00535  0D02  85 01                 STA $01             ; INPUT/OUTPUT REGISTER
00536  0D04  58                    CLI
00537  0D05  A2 2D                 LDX #$2D
00538  0D07  A9 06                 LDA #$06
00539  0D09  9D 49 03   L00031     STA $0349,X
00540  0D0C  CA                    DEX
00541  0D0D  CA                    DEX
00542  0D0E  CA                    DEX
00543  0D0F  10 F8                 BPL L00031
00544  0D11  A9 00                 LDA #$00
00545  0D13  85 A3                 STA $A3
00546  0D15  85 AA                 STA $AA
00547  0D17  A9 8F                 LDA #$8F
00548  0D19  8D 18 D4              STA $D418           ; SELECT OUTPUT VOLUME
00549  0D1C  A9 2A                 LDA #$2A
00550  0D1E  8D 0F D4              STA $D40F           ; FREQUENCY VOICE 3 - HI
00551  0D21  A2 07                 LDX #$07
00552  0D23  BC C3 0E   L00032     LDY $0EC3,X
00553  0D26  BD 00 40              LDA $4000,X
00554  0D29  99 00 D0              STA $D000,Y
00555  0D2C  CA                    DEX
00556  0D2D  10 F4                 BPL L00032
00557  0D2F  A9 07                 LDA #$07
00558  0D31  8D 18 50              STA $5018
00559  0D34  A9 01                 LDA #$01
00560  0D36  8D 20 50              STA $5020
00561  0D39  A2 00                 LDX #$00
00562  0D3B  8E 28 50              STX $5028
00563  0D3E  8E 30 50              STX $5030
00564  0D41  20 9A 1A              JSR L00215
00565  0D44  78                    SEI
00566  0D45  A9 BD                 LDA #$BD            ; IRQ ROUTINE AT $15BD
00567  0D47  8D 14 03              STA $0314           ; HARDWARE IRQ VECTOR - LO
00568  0D4A  A9 15                 LDA #$15
00569  0D4C  8D 15 03              STA $0315           ; HARDWARE IRQ VECTOR - HI
00570  0D4F  A9 FA                 LDA #$FA            ; NEXT RASTER IRQ IN LINE 250
00571  0D51  8D 12 D0              STA $D012           ; VIC RASTER REGISTER
00572  0D54  A9 81                 LDA #$81
00573  0D56  8D 1A D0              STA $D01A           ; VIC IRQ ENABLE/DISABLE
00574  0D59  AD 11 D0              LDA $D011           ; VIC CONTROL REGISTER 1
00575  0D5C  29 7F                 AND #$7F            ; RAS-HI OFF
00576  0D5E  8D 11 D0              STA $D011
00577  0D61  A9 4C      L00033     LDA #$4C            ; ENTRY POINT FOR STARTING A NEW GAME
00578  0D63  8D CA 15              STA $15CA
00579  0D66  58                    CLI
00580  0D67  A2 0F                 LDX #$0F
00581  0D69  A9 FF                 LDA #$FF
00582  0D6B  9D 00 60   L00034     STA $6000,X
00583  0D6E  CA                    DEX
00584  0D6F  10 FA                 BPL L00034
00585  0D71  A9 09                 LDA #$09            ; INITIAL ROOM
00586  0D73  85 02                 STA $02             ; ROOM
00587  0D75  A9 30                 LDA #$30
00588  0D77  8D 98 50              STA $5098
00589  0D7A  A9 B9                 LDA #$B9
00590  0D7C  8D A0 50              STA $50A0
00591  0D7F  A9 04                 LDA #$04
00592  0D81  85 B1                 STA $B1
00593  0D83  A9 00                 LDA #$00
00594  0D85  85 B0                 STA $B0
00595  0D87  85 B8                 STA $B8             ; INITIAL KEYS
00596  0D89  85 F7                 STA $F7
00597  0D8B  85 F8                 STA $F8
00598  0D8D  A9 06                 LDA #$06
00599  0D8F  85 06                 STA $06             ; INITIAL LIVES = 6
00600  0D91  20 A1 12   L00035     JSR L00083          ; DRAW ROOM
00601  0D94  20 CB 0E              JSR L00053
00602  0D97  AD 98 50              LDA $5098
00603  0D9A  85 B4                 STA $B4
00604  0D9C  AD A0 50              LDA $50A0
00605  0D9F  85 B5                 STA $B5
00606  0DA1  A5 B0                 LDA $B0
00607  0DA3  85 B6                 STA $B6
00608  0DA5  A5 B1                 LDA $B1
00609  0DA7  85 B7                 STA $B7
00610  0DA9  A5 B4      L00036     LDA $B4
00611  0DAB  8D 98 50              STA $5098
00612  0DAE  A5 B5                 LDA $B5
00613  0DB0  8D A0 50              STA $50A0
00614  0DB3  A5 B6                 LDA $B6
00615  0DB5  85 B0                 STA $B0
00616  0DB7  A6 B7                 LDX $B7
00617  0DB9  86 B1                 STX $B1
00618  0DBB  20 50 19              JSR L00185
00619  0DBE  20 50 0F              JSR L00062
00620  0DC1  A2 07                 LDX #$07
00621  0DC3  A9 00      L00037     LDA #$00
00622  0DC5  9D D8 50              STA $50D8,X
00623  0DC8  9D C8 50              STA $50C8,X
00624  0DCB  9D D0 50              STA $50D0,X
00625  0DCE  BD 41 E0              LDA $E041,X
00626  0DD1  9D F0 50              STA $50F0,X
00627  0DD4  CA                    DEX
00628  0DD5  10 EC                 BPL L00037
00629  0DD7  A9 2C                 LDA #$2C
00630  0DD9  8D CA 15              STA $15CA
00631  0DDC  20 E4 FF   L00038     JSR $FFE4           ; KERNAL GET A CHARACTER
00632  0DDF  C9 85                 CMP #$85            ; WAS F1 PRESSED?
00633  0DE1  D0 03                 BNE L00039
00634  0DE3  4C 61 0D              JMP L00033          ; YES - START A NEW GAME
00635  0DE6  06 B9      L00039     ASL $B9
00636  0DE8  90 03                 BCC L00040
00637  0DEA  20 D7 0E              JSR L00054
00638  0DED  AD CA 15   L00040     LDA $15CA
00639  0DF0  C9 4C                 CMP #$4C
00640  0DF2  D0 E8                 BNE L00038
00641  0DF4  A6 B3                 LDX $B3
00642  0DF6  F0 99                 BEQ L00035
00643  0DF8  CA                    DEX
00644  0DF9  F0 4C                 BEQ L00048
00645  0DFB  CA                    DEX
00646  0DFC  D0 19      L00041     BNE L00043
00647  0DFE  A9 01                 LDA #$01
00648  0E00  85 A3                 STA $A3
00649  0E02  85 AA                 STA $AA
00650  0E04  A9 02                 LDA #$02
00651  0E06  85 04                 STA $04
00652  0E08  A9 2C                 LDA #$2C
00653  0E0A  8D F8 07              STA $07F8
00654  0E0D  EE F8 07   L00042     INC $07F8
00655  0E10  20 6E 0E              JSR L00051          ; PAUSE
00656  0E13  C6 04                 DEC $04
00657  0E15  D0 F6                 BNE L00042
00658  0E17  A2 00      L00043     LDX #$00
00659  0E19  20 9D 19              JSR L00191
00660  0E1C  C6 06                 DEC $06             ; DECREASE LIVES
00661  0E1E  20 D7 0E              JSR L00054
00662  0E21  20 6B 0E              JSR L00050          ; DOUBLE PAUSE
00663  0E24  A5 06                 LDA $06             ; LIVES
00664  0E26  F0 03                 BEQ L00044          ; BRANCH IF LIVES IS ZERO
00665  0E28  4C A9 0D              JMP L00036
00666  0E2B  A2 0C      L00044     LDX #$0C
00667  0E2D  A0 0F                 LDY #$0F
00668  0E2F  18                    CLC
00669  0E30  20 F0 FF              JSR $FFF0           ; KERNAL READ/SET XY CURSOR POSITION
00670  0E33  A9 79                 LDA #$79            ; POINT TO ADDRESS OF 'GAME OVER' TEXT
00671  0E35  A0 0E                 LDY #$0E
00672  0E37  20 1E AB              JSR $AB1E           ; KERNAL PRINT STRING FORM AY
00673  0E3A  20 E4 FF   L00045     JSR $FFE4           ; KERNAL GET A CHARACTER
00674  0E3D  D0 FB                 BNE L00045          ; WAIT UNTIL A KEY IS PRESSED
00675  0E3F  20 E4 FF   L00046     JSR $FFE4           ; KERNAL GET A CHARACTER
00676  0E42  F0 FB                 BEQ L00046          ; WAIT UNTIL KEY IS RELEASED
00677  0E44  4C 61 0D   L00047     JMP L00033          ; START A NEW GAME
00678  0E47  A9 83      L00048     LDA #$83            ; POINT TO THE ADDRESS OF 'CONGRATULATIONS, YOU HAVE FOUND THE PRINCESS' TEXT
00679  0E49  A0 0E                 LDY #$0E
00680  0E4B  20 1E AB              JSR $AB1E           ; KERNAL PRINT STRING FORM AY
00681  0E4E  A9 46                 LDA #$46
00682  0E50  8D 02 D0              STA $D002           ; SPRITE 1 X POS
00683  0E53  A9 37                 LDA #$37
00684  0E55  8D 03 D0              STA $D003           ; SPRITE 1 Y POS
00685  0E58  A9 02                 LDA #$02            ; SHOW DRAGON SPRITE
00686  0E5A  8D 15 D0              STA $D015           ; SPRITE DISPLAY
00687  0E5D  20 E4 FF   L00049     JSR $FFE4           ; KERNAL GET A CHARACTER
00688  0E60  C9 59                 CMP #$59
00689  0E62  F0 E0                 BEQ L00047          ; BRANCH IF 'Y' IS PRESSED
00690  0E64  C9 4E                 CMP #$4E
00691  0E66  D0 F5                 BNE L00049          ; BRANCH IF THE PRESSED KEY IS NOT 'N'
00692  0E68  4C E2 FC              JMP $FCE2
00693  0E6B             ;________________________________________
00694  0E6B             ;
00695  0E6B             ;    DOUBLE PAUSE
00696  0E6B             ;
00697  0E6B  20 6E 0E   L00050     JSR L00051          ; PAUSE
00698  0E6E  A2 00      L00051     LDX #$00            ; PAUSE
00699  0E70  A0 00                 LDY #$00
00700  0E72  CA         L00052     DEX
00701  0E73  D0 FD                 BNE L00052
00702  0E75  88                    DEY
00703  0E76  D0 FA                 BNE L00052
00704  0E78  60                    RTS
00705  0E79             ;________________________________________
00706  0E79  47                    BYTE $47            ; 71       G
00707  0E7A  41                    BYTE $41            ; 65       A
00708  0E7B  4D                    BYTE $4D            ; 77       M
00709  0E7C  45                    BYTE $45            ; 69       E
00710  0E7D  1D                    BYTE $1D            ; 29       [CURSOR RIGHT]
00711  0E7E  4F                    BYTE $4F            ; 79       O
00712  0E7F  56                    BYTE $56            ; 86       V
00713  0E80  45                    BYTE $45            ; 69       E
00714  0E81  52                    BYTE $52            ; 82       R
00715  0E82  00                    BYTE $00            ; 0
00716  0E83  93                    BYTE $93            ; 147      [CLEAR SCREEN]
00717  0E84  11                    BYTE $11            ; 17       [CURSOR DOWN]
00718  0E85  11                    BYTE $11            ; 17       [CURSOR DOWN]
00719  0E86  11                    BYTE $11            ; 17       [CURSOR DOWN]
00720  0E87  11                    BYTE $11            ; 17       [CURSOR DOWN]
00721  0E88  43                    BYTE $43            ; 67       C
00722  0E89  4F                    BYTE $4F            ; 79       O
00723  0E8A  4E                    BYTE $4E            ; 78       N
00724  0E8B  47                    BYTE $47            ; 71       G
00725  0E8C  52                    BYTE $52            ; 82       R
00726  0E8D  41                    BYTE $41            ; 65       A
00727  0E8E  54                    BYTE $54            ; 84       T
00728  0E8F  55                    BYTE $55            ; 85       U
00729  0E90  4C                    BYTE $4C            ; 76       L
00730  0E91  41                    BYTE $41            ; 65       A
00731  0E92  54                    BYTE $54            ; 84       T
00732  0E93  49                    BYTE $49            ; 73       I
00733  0E94  4F                    BYTE $4F            ; 79       O
00734  0E95  4E                    BYTE $4E            ; 78       N
00735  0E96  53                    BYTE $53            ; 83       S
00736  0E97  2C                    BYTE $2C            ; 44       ,
00737  0E98  0D                    BYTE $0D            ; 13       [RETURN]
00738  0E99  59                    BYTE $59            ; 89       Y
00739  0E9A  4F                    BYTE $4F            ; 79       O
00740  0E9B  55                    BYTE $55            ; 85       U
00741  0E9C  20                    BYTE $20            ; 32
00742  0E9D  46                    BYTE $46            ; 70       F
00743  0E9E  4F                    BYTE $4F            ; 79       O
00744  0E9F  55                    BYTE $55            ; 85       U
00745  0EA0  4E                    BYTE $4E            ; 78       N
00746  0EA1  44                    BYTE $44            ; 68       D
00747  0EA2  20                    BYTE $20            ; 32
00748  0EA3  54                    BYTE $54            ; 84       T
00749  0EA4  48                    BYTE $48            ; 72       H
00750  0EA5  45                    BYTE $45            ; 69       E
00751  0EA6  20                    BYTE $20            ; 32
00752  0EA7  50                    BYTE $50            ; 80       P
00753  0EA8  52                    BYTE $52            ; 82       R
00754  0EA9  49                    BYTE $49            ; 73       I
00755  0EAA  4E                    BYTE $4E            ; 78       N
00756  0EAB  43                    BYTE $43            ; 67       C
00757  0EAC  45                    BYTE $45            ; 69       E
00758  0EAD  53                    BYTE $53            ; 83       S
00759  0EAE  53                    BYTE $53            ; 83       S
00760  0EAF  2E                    BYTE $2E            ; 46       .
00761  0EB0  0D                    BYTE $0D            ; 13       [RETURN]
00762  0EB1  50                    BYTE $50            ; 80       P
00763  0EB2  4C                    BYTE $4C            ; 76       L
00764  0EB3  41                    BYTE $41            ; 65       A
00765  0EB4  59                    BYTE $59            ; 89       Y
00766  0EB5  20                    BYTE $20            ; 32
00767  0EB6  41                    BYTE $41            ; 65       A
00768  0EB7  47                    BYTE $47            ; 71       G
00769  0EB8  41                    BYTE $41            ; 65       A
00770  0EB9  49                    BYTE $49            ; 73       I
00771  0EBA  4E                    BYTE $4E            ; 78       N
00772  0EBB  3F                    BYTE $3F            ; 63       ?
00773  0EBC  20                    BYTE $20            ; 32
00774  0EBD  28                    BYTE $28            ; 40       (
00775  0EBE  59                    BYTE $59            ; 89       Y
00776  0EBF  2F                    BYTE $2F            ; 47       /
00777  0EC0  4E                    BYTE $4E            ; 78       N
00778  0EC1  29                    BYTE $29            ; 41       )
00779  0EC2  00                    BYTE $00
00780  0EC3             ;________________________________________
00781  0EC3  16                    BYTE $16
00782  0EC4  18                    BYTE $18
00783  0EC5  20                    BYTE $20            ; 32
00784  0EC6  21                    BYTE $21            ; 33       !
00785  0EC7  22                    BYTE $22            ; 34       ''
00786  0EC8  23                    BYTE $23            ; 35       #
00787  0EC9  25                    BYTE $25
00788  0ECA  26                    BYTE $26
00789  0ECB             ;________________________________________
00790  0ECB  A0 05      L00053     LDY #$05
00791  0ECD  20 2C 0F              JSR L00061          ; SET CURSOR POSITION
00792  0ED0  A9 32                 LDA #$32            ; POINT TO 'SCORE, LIVES AND KEYS' TEXT
00793  0ED2  A0 0F                 LDY #$0F
00794  0ED4  20 1E AB              JSR $AB1E           ; KERNAL PRINT STRING FORM AY
00795  0ED7  A5 F7      L00054     LDA $F7
00796  0ED9  A4 F8                 LDY $F8
00797  0EDB  85 63                 STA $63
00798  0EDD  84 62                 STY $62
00799  0EDF  A2 90                 LDX #$90
00800  0EE1  38                    SEC
00801  0EE2  20 49 BC              JSR $BC49
00802  0EE5  20 E2 BA              JSR $BAE2           ; KERNAL MULTIPLY FLOAT ACCU BY 10
00803  0EE8  20 DD BD              JSR $BDDD           ; KERNAL CONVERT NUMBER IN FLOAT ACCU TO STRING
00804  0EEB  A2 FF                 LDX #$FF
00805  0EED  E8         L00055     INX
00806  0EEE  BD 02 01              LDA $0102,X
00807  0EF1  D0 FA                 BNE L00055
00808  0EF3  F0 11                 BEQ L00059
00809  0EF5  A9 30      L00056     LDA #$30
00810  0EF7  8D 00 01              STA $0100
00811  0EFA  A0 05                 LDY #$05
00812  0EFC  B9 00 01   L00058     LDA $0100,Y
00813  0EFF  99 01 01              STA $0101,Y
00814  0F02  88                    DEY
00815  0F03  10 F7                 BPL L00058
00816  0F05  E8                    INX
00817  0F06  E0 04      L00059     CPX #$04
00818  0F08  D0 EB                 BNE L00056
00819  0F0A  A0 0B                 LDY #$0B
00820  0F0C  20 2C 0F              JSR L00061          ; SET CURSOR POSITION
00821  0F0F  A9 01                 LDA #$01
00822  0F11  A8                    TAY
00823  0F12  20 1E AB              JSR $AB1E           ; KERNAL PRINT STRING FORM AY
00824  0F15  A0 19                 LDY #$19
00825  0F17  20 2C 0F              JSR L00061          ; SET CURSOR POSITION
00826  0F1A  A5 06                 LDA $06             ; LIVES
00827  0F1C  20 26 0F              JSR L00060          ; SHOW VALUE OF LIVES ON SCREEN
00828  0F1F  A0 22                 LDY #$22
00829  0F21  20 2C 0F              JSR L00061          ; SET CURSOR POSITION
00830  0F24  A5 B8                 LDA $B8             ; SHOW VALUE OF KEYS ON SCREEN
00831  0F26  18         L00060     CLC
00832  0F27  69 30                 ADC #$30
00833  0F29  4C 16 E7              JMP $E716           ; PUT A CHARACTER TO SCREEN
00834  0F2C             ;________________________________________
00835  0F2C             ;
00836  0F2C             ;    SET CURSOR POSITION
00837  0F2C             ;
00838  0F2C  A2 17      L00061     LDX #$17
00839  0F2E  18                    CLC
00840  0F2F  4C F0 FF              JMP $FFF0           ; KERNAL READ/SET XY CURSOR POSITION
00841  0F32             ;________________________________________
00842  0F32  05                    BYTE $05            ; 5        [WHITE]
00843  0F33  53                    BYTE $53            ; 83       S
00844  0F34  43                    BYTE $43            ; 67       C
00845  0F35  4F                    BYTE $4F            ; 79       O
00846  0F36  52                    BYTE $52            ; 82       R
00847  0F37  45                    BYTE $45            ; 69       E
00848  0F38  20                    BYTE $20            ; 32
00849  0F39  1D                    BYTE $1D            ; 29       [CURSOR RIGHT]
00850  0F3A  1D                    BYTE $1D            ; 29       [CURSOR RIGHT]
00851  0F3B  1D                    BYTE $1D            ; 29       [CURSOR RIGHT]
00852  0F3C  1D                    BYTE $1D            ; 29       [CURSOR RIGHT]
00853  0F3D  1D                    BYTE $1D            ; 29       [CURSOR RIGHT]
00854  0F3E  20                    BYTE $20            ; 32
00855  0F3F  20                    BYTE $20            ; 32
00856  0F40  20                    BYTE $20            ; 32
00857  0F41  4C                    BYTE $4C            ; 76       L
00858  0F42  49                    BYTE $49            ; 73       I
00859  0F43  56                    BYTE $56            ; 86       V
00860  0F44  45                    BYTE $45            ; 69       E
00861  0F45  53                    BYTE $53            ; 83       S
00862  0F46  20                    BYTE $20            ; 32
00863  0F47  1D                    BYTE $1D            ; 29       [CURSOR RIGHT]
00864  0F48  20                    BYTE $20            ; 32
00865  0F49  20                    BYTE $20            ; 32
00866  0F4A  20                    BYTE $20            ; 32
00867  0F4B  4B                    BYTE $4B            ; 75       K
00868  0F4C  45                    BYTE $45            ; 69       E
00869  0F4D  59                    BYTE $59            ; 89       Y
00870  0F4E  53                    BYTE $53            ; 83       S
00871  0F4F  00                    BYTE $00            ; 0
00872  0F50             ;________________________________________
00873  0F50  A6 02      L00062     LDX $02             ; ROOM
00874  0F52  BD 89 10              LDA $1089,X
00875  0F55  85 F9                 STA $F9
00876  0F57  BD 99 10              LDA $1099,X
00877  0F5A  85 FA                 STA $FA
00878  0F5C  A2 00                 LDX #$00
00879  0F5E  A0 00                 LDY #$00
00880  0F60  B1 F9      L00063     LDA ($F9),Y
00881  0F62  D0 03                 BNE L00064
00882  0F64  4C E8 0F              JMP L00069
00883  0F67  E8         L00064     INX
00884  0F68  C8                    INY
00885  0F69  8E 8D 0F              STX $0F8D
00886  0F6C  8C 8F 0F              STY $0F8F
00887  0F6F  0A                    ASL
00888  0F70  0A                    ASL
00889  0F71  8D 76 0F              STA $0F76
00890  0F74  0A                    ASL
00891  0F75  69 00                 ADC #$00
00892  0F77  A8                    TAY
00893  0F78  A9 0C                 LDA #$0C
00894  0F7A  85 04                 STA $04
00895  0F7C  B9 F9 0F   L00065     LDA $0FF9,Y
00896  0F7F  9D 00 50              STA $5000,X
00897  0F82  C8                    INY
00898  0F83  8A                    TXA
00899  0F84  18                    CLC
00900  0F85  69 08                 ADC #$08
00901  0F87  AA                    TAX
00902  0F88  C6 04                 DEC $04
00903  0F8A  D0 F0                 BNE L00065
00904  0F8C  A2 00                 LDX #$00
00905  0F8E  A0 00                 LDY #$00
00906  0F90  B1 F9                 LDA ($F9),Y
00907  0F92  9D 98 50              STA $5098,X
00908  0F95  C8                    INY
00909  0F96  B1 F9                 LDA ($F9),Y
00910  0F98  9D A0 50              STA $50A0,X
00911  0F9B  C8                    INY
00912  0F9C  B1 F9                 LDA ($F9),Y
00913  0F9E  C8                    INY
00914  0F9F  48                    PHA
00915  0FA0  29 F0                 AND #$F0
00916  0FA2  4A                    LSR
00917  0FA3  4A                    LSR
00918  0FA4  4A                    LSR
00919  0FA5  4A                    LSR
00920  0FA6  C9 08                 CMP #$08
00921  0FA8  90 02                 BCC L00066
00922  0FAA  09 F0                 ORA #$F0
00923  0FAC  9D 60 50   L00066     STA $5060,X
00924  0FAF  68                    PLA
00925  0FB0  29 0F                 AND #$0F
00926  0FB2  C9 08                 CMP #$08
00927  0FB4  90 02                 BCC L00067
00928  0FB6  09 F0                 ORA #$F0
00929  0FB8  9D 68 50   L00067     STA $5068,X
00930  0FBB  B1 F9                 LDA ($F9),Y
00931  0FBD  C8                    INY
00932  0FBE  9D 90 50              STA $5090,X
00933  0FC1  8E DF 0F              STX $0FDF
00934  0FC4  8C E4 0F              STY $0FE4
00935  0FC7  0A                    ASL
00936  0FC8  0A                    ASL
00937  0FC9  A8                    TAY
00938  0FCA  A9 04                 LDA #$04
00939  0FCC  85 04                 STA $04
00940  0FCE  B9 49 12   L00068     LDA $1249,Y
00941  0FD1  C8                    INY
00942  0FD2  9D 70 50              STA $5070,X
00943  0FD5  8A                    TXA
00944  0FD6  18                    CLC
00945  0FD7  69 08                 ADC #$08
00946  0FD9  AA                    TAX
00947  0FDA  C6 04                 DEC $04
00948  0FDC  D0 F0                 BNE L00068
00949  0FDE  A2 00                 LDX #$00
00950  0FE0  20 9A 1A              JSR L00215
00951  0FE3  A0 00                 LDY #$00
00952  0FE5  4C 60 0F              JMP L00063
00953  0FE8  BD FD 0F   L00069     LDA $0FFD,X
00954  0FEB  A4 02                 LDY $02             ; ROOM
00955  0FED  39 00 60              AND $6000,Y
00956  0FF0  8D 15 D0              STA $D015           ; SPRITE DISPLAY
00957  0FF3  20 82 1A   L00070     JSR L00214
00958  0FF6  CA                    DEX
00959  0FF7  10 FA                 BPL L00070
00960  0FF9  AD 1E D0              LDA $D01E           ; SPRITE-SPRITE COLLISION
00961  0FFC  60                    RTS
00962  0FFD             ;________________________________________
00963  0FFD  01                    BYTE $01            ; 1        A
00964  0FFE  03                    BYTE $03            ; 3        C
00965  0FFF  07                    BYTE $07            ; 7        G
00966  1000  0F                    BYTE $0F            ; 15       O
00967  1001  1F                    BYTE $1F            ; 31       _
00968  1002  3F                    BYTE $3F            ; 63       ?
00969  1003  7F                    BYTE $7F            ; 127      GFX
00970  1004  FF                    BYTE $FF            ; 255      GFX
00971  1005  27                    BYTE $27            ; 39       '
00972  1006  55                    BYTE $55
00973  1007  02                    BYTE $02
00974  1008  05                    BYTE $05            ; 5        E
00975  1009  01                    BYTE $01            ; 1        A
00976  100A  00                    BYTE $00            ; 0
00977  100B  00                    BYTE $00            ; 0
00978  100C  00                    BYTE $00            ; 0
00979  100D  00                    BYTE $00            ; 0
00980  100E  00                    BYTE $00            ; 0
00981  100F  00                    BYTE $00            ; 0
00982  1010  00                    BYTE $00            ; 0
00983  1011  29                    BYTE $29
00984  1012  00                    BYTE $00
00985  1013  01                    BYTE $01
00986  1014  08                    BYTE $08
00987  1015  01                    BYTE $01            ; 1        A
00988  1016  00                    BYTE $00            ; 0
00989  1017  00                    BYTE $00            ; 0
00990  1018  00                    BYTE $00            ; 0
00991  1019  07                    BYTE $07            ; 7        G
00992  101A  00                    BYTE $00            ; 0
00993  101B  00                    BYTE $00            ; 0
00994  101C  00                    BYTE $00            ; 0
00995  101D  2A                    BYTE $2A            ; 42       *
00996  101E  80                    BYTE $80            ; 128
00997  101F  02                    BYTE $02            ; 2        B
00998  1020  03                    BYTE $03            ; 3        C
00999  1021  00                    BYTE $00            ; 0
01000  1022  01                    BYTE $01            ; 1        A
01001  1023  00                    BYTE $00            ; 0
01002  1024  00                    BYTE $00            ; 0
01003  1025  00                    BYTE $00            ; 0
01004  1026  00                    BYTE $00            ; 0
01005  1027  00                    BYTE $00            ; 0
01006  1028  00                    BYTE $00            ; 0
01007  1029  2B                    BYTE $2B            ; 43       +
01008  102A  55                    BYTE $55            ; 85       U
01009  102B  02                    BYTE $02            ; 2        B
01010  102C  07                    BYTE $07            ; 7        G
01011  102D  00                    BYTE $00            ; 0
01012  102E  01                    BYTE $01            ; 1        A
01013  102F  01                    BYTE $01            ; 1        A
01014  1030  00                    BYTE $00            ; 0
01015  1031  02                    BYTE $02            ; 2        B
01016  1032  00                    BYTE $00            ; 0
01017  1033  00                    BYTE $00            ; 0
01018  1034  00                    BYTE $00            ; 0
01019  1035  0D                    BYTE $0D            ; 13       M
01020  1036  00                    BYTE $00            ; 0
01021  1037  01                    BYTE $01            ; 1        A
01022  1038  07                    BYTE $07            ; 7        G
01023  1039  00                    BYTE $00            ; 0
01024  103A  01                    BYTE $01
01025  103B  01                    BYTE $01
01026  103C  05                    BYTE $05            ; 5        E
01027  103D  04                    BYTE $04            ; 4        D
01028  103E  00                    BYTE $00            ; 0
01029  103F  00                    BYTE $00            ; 0
01030  1040  00                    BYTE $00            ; 0
01031  1041  30                    BYTE $30
01032  1042  00                    BYTE $00
01033  1043  01                    BYTE $01            ; 1        A
01034  1044  04                    BYTE $04            ; 4        D
01035  1045  00                    BYTE $00            ; 0
01036  1046  00                    BYTE $00            ; 0
01037  1047  00                    BYTE $00            ; 0
01038  1048  01                    BYTE $01
01039  1049  03                    BYTE $03
01040  104A  09                    BYTE $09            ; 9        I
01041  104B  32                    BYTE $32            ; 50       2
01042  104C  00                    BYTE $00            ; 0
01043  104D  31                    BYTE $31
01044  104E  00                    BYTE $00
01045  104F  01                    BYTE $01
01046  1050  07                    BYTE $07
01047  1051  01                    BYTE $01            ; 1        A
01048  1052  00                    BYTE $00            ; 0
01049  1053  00                    BYTE $00            ; 0
01050  1054  01                    BYTE $01
01051  1055  00                    BYTE $00
01052  1056  0A                    BYTE $0A            ; 10       J
01053  1057  14                    BYTE $14            ; 20       T
01054  1058  01                    BYTE $01            ; 1        A
01055  1059  32                    BYTE $32            ; 50       2
01056  105A  00                    BYTE $00            ; 0
01057  105B  01                    BYTE $01
01058  105C  05                    BYTE $05
01059  105D  01                    BYTE $01            ; 1        A
01060  105E  00                    BYTE $00            ; 0
01061  105F  00                    BYTE $00            ; 0
01062  1060  01                    BYTE $01
01063  1061  00                    BYTE $00
01064  1062  06                    BYTE $06            ; 6        F
01065  1063  05                    BYTE $05            ; 5        E
01066  1064  00                    BYTE $00            ; 0
01067  1065  33                    BYTE $33            ; 51       3
01068  1066  00                    BYTE $00            ; 0
01069  1067  01                    BYTE $01
01070  1068  05                    BYTE $05
01071  1069  01                    BYTE $01            ; 1        A
01072  106A  00                    BYTE $00            ; 0
01073  106B  00                    BYTE $00            ; 0
01074  106C  01                    BYTE $01
01075  106D  00                    BYTE $00
01076  106E  06                    BYTE $06            ; 6        F
01077  106F  0A                    BYTE $0A            ; 10       J
01078  1070  00                    BYTE $00            ; 0
01079  1071  2F                    BYTE $2F            ; 47       /
01080  1072  00                    BYTE $00            ; 0
01081  1073  01                    BYTE $01
01082  1074  04                    BYTE $04
01083  1075  01                    BYTE $01            ; 1        A
01084  1076  00                    BYTE $00            ; 0
01085  1077  00                    BYTE $00            ; 0
01086  1078  01                    BYTE $01            ; 1        A
01087  1079  02                    BYTE $02            ; 2        B
01088  107A  00                    BYTE $00            ; 0
01089  107B  00                    BYTE $00            ; 0
01090  107C  00                    BYTE $00            ; 0
01091  107D  2F                    BYTE $2F            ; 47       /
01092  107E  00                    BYTE $00            ; 0
01093  107F  01                    BYTE $01
01094  1080  04                    BYTE $04
01095  1081  01                    BYTE $01            ; 1        A
01096  1082  00                    BYTE $00            ; 0
01097  1083  00                    BYTE $00            ; 0
01098  1084  00                    BYTE $00            ; 0
01099  1085  02                    BYTE $02            ; 2        B
01100  1086  00                    BYTE $00            ; 0
01101  1087  00                    BYTE $00            ; 0
01102  1088  00                    BYTE $00            ; 0
01103  1089  A9                    BYTE $A9            ; 169      )
01104  108A  C8                    BYTE $C8            ; 200      H
01105  108B  E7                    BYTE $E7            ; 231      GFX
01106  108C  06                    BYTE $06            ; 6        F
01107  108D  1B                    BYTE $1B            ; 27       [
01108  108E  3F                    BYTE $3F            ; 63       ?
01109  108F  45                    BYTE $45
01110  1090  5A                    BYTE $5A
01111  1091  7E                    BYTE $7E            ; 126      GFX
01112  1092  93                    BYTE $93            ; 147      S
01113  1093  B2                    BYTE $B2            ; 178      2
01114  1094  C7                    BYTE $C7            ; 199      G
01115  1095  CD                    BYTE $CD
01116  1096  F1                    BYTE $F1
01117  1097  01                    BYTE $01
01118  1098  25                    BYTE $25
01119  1099  10                    BYTE $10
01120  109A  10                    BYTE $10
01121  109B  10                    BYTE $10
01122  109C  11                    BYTE $11
01123  109D  11                    BYTE $11
01124  109E  11                    BYTE $11
01125  109F  11                    BYTE $11
01126  10A0  11                    BYTE $11
01127  10A1  11                    BYTE $11
01128  10A2  11                    BYTE $11
01129  10A3  11                    BYTE $11
01130  10A4  11                    BYTE $11
01131  10A5  11                    BYTE $11
01132  10A6  11                    BYTE $11            ; 17       Q
01133  10A7  12                    BYTE $12            ; 18       R
01134  10A8  12                    BYTE $12            ; 18       R
01135  10A9  08                    BYTE $08
01136  10AA  38                    BYTE $38            ; 56       8
01137  10AB  37                    BYTE $37            ; 55       7
01138  10AC  00                    BYTE $00            ; 0
01139  10AD  00                    BYTE $00            ; 0
01140  10AE  07                    BYTE $07            ; 7        G
01141  10AF  5B                    BYTE $5B            ; 91       GFX
01142  10B0  36                    BYTE $36
01143  10B1  22                    BYTE $22
01144  10B2  01                    BYTE $01
01145  10B3  0A                    BYTE $0A
01146  10B4  2C                    BYTE $2C
01147  10B5  BE                    BYTE $BE
01148  10B6  11                    BYTE $11
01149  10B7  11                    BYTE $11
01150  10B8  0A                    BYTE $0A
01151  10B9  2C                    BYTE $2C            ; 44       ,
01152  10BA  91                    BYTE $91            ; 145      Q
01153  10BB  11                    BYTE $11            ; 17       Q
01154  10BC  12                    BYTE $12            ; 18       R
01155  10BD  0A                    BYTE $0A            ; 10       J
01156  10BE  54                    BYTE $54            ; 84       T
01157  10BF  D2                    BYTE $D2            ; 210      R
01158  10C0  1F                    BYTE $1F            ; 31       _
01159  10C1  13                    BYTE $13            ; 19       S
01160  10C2  0A                    BYTE $0A            ; 10       J
01161  10C3  54                    BYTE $54            ; 84       T
01162  10C4  A5                    BYTE $A5            ; 165      %
01163  10C5  1F                    BYTE $1F            ; 31       _
01164  10C6  14                    BYTE $14            ; 20       T
01165  10C7  00                    BYTE $00            ; 0
01166  10C8  09                    BYTE $09            ; 9        I
01167  10C9  46                    BYTE $46            ; 70       F
01168  10CA  82                    BYTE $82            ; 130      B
01169  10CB  00                    BYTE $00            ; 0
01170  10CC  00                    BYTE $00            ; 0
01171  10CD  09                    BYTE $09            ; 9        I
01172  10CE  5A                    BYTE $5A            ; 90       Z
01173  10CF  82                    BYTE $82            ; 130      B
01174  10D0  00                    BYTE $00            ; 0
01175  10D1  00                    BYTE $00            ; 0
01176  10D2  09                    BYTE $09            ; 9        I
01177  10D3  6E                    BYTE $6E            ; 110      GFX
01178  10D4  82                    BYTE $82            ; 130      B
01179  10D5  00                    BYTE $00            ; 0
01180  10D6  00                    BYTE $00            ; 0
01181  10D7  05                    BYTE $05            ; 5        E
01182  10D8  20                    BYTE $20            ; 32
01183  10D9  44                    BYTE $44            ; 68       D
01184  10DA  00                    BYTE $00            ; 0
01185  10DB  00                    BYTE $00            ; 0
01186  10DC  05                    BYTE $05            ; 5        E
01187  10DD  20                    BYTE $20            ; 32
01188  10DE  7C                    BYTE $7C            ; 124      GFX
01189  10DF  00                    BYTE $00            ; 0
01190  10E0  00                    BYTE $00            ; 0
01191  10E1  0B                    BYTE $0B            ; 11       K
01192  10E2  58                    BYTE $58            ; 88       X
01193  10E3  5A                    BYTE $5A            ; 90       Z
01194  10E4  00                    BYTE $00            ; 0
01195  10E5  00                    BYTE $00            ; 0
01196  10E6  00                    BYTE $00            ; 0
01197  10E7  09                    BYTE $09            ; 9        I
01198  10E8  28                    BYTE $28            ; 40       (
01199  10E9  3B                    BYTE $3B            ; 59       ;
01200  10EA  00                    BYTE $00            ; 0
01201  10EB  00                    BYTE $00            ; 0
01202  10EC  09                    BYTE $09            ; 9        I
01203  10ED  38                    BYTE $38            ; 56       8
01204  10EE  3B                    BYTE $3B            ; 59       ;
01205  10EF  00                    BYTE $00            ; 0
01206  10F0  00                    BYTE $00            ; 0
01207  10F1  05                    BYTE $05            ; 5        E
01208  10F2  0C                    BYTE $0C            ; 12       L
01209  10F3  7C                    BYTE $7C            ; 124      GFX
01210  10F4  00                    BYTE $00            ; 0
01211  10F5  00                    BYTE $00            ; 0
01212  10F6  05                    BYTE $05            ; 5        E
01213  10F7  A0                    BYTE $A0            ; 160
01214  10F8  7C                    BYTE $7C            ; 124      GFX
01215  10F9  00                    BYTE $00            ; 0
01216  10FA  00                    BYTE $00            ; 0
01217  10FB  0A                    BYTE $0A
01218  10FC  58                    BYTE $58
01219  10FD  BD                    BYTE $BD
01220  10FE  0E                    BYTE $0E
01221  10FF  02                    BYTE $02
01222  1100  0A                    BYTE $0A
01223  1101  58                    BYTE $58
01224  1102  7D                    BYTE $7D            ; 125      GFX
01225  1103  0E                    BYTE $0E            ; 14       N
01226  1104  03                    BYTE $03            ; 3        C
01227  1105  00                    BYTE $00            ; 0
01228  1106  0A                    BYTE $0A            ; 10       J
01229  1107  34                    BYTE $34            ; 52       4
01230  1108  55                    BYTE $55            ; 85       U
01231  1109  12                    BYTE $12            ; 18       R
01232  110A  04                    BYTE $04            ; 4        D
01233  110B  0A                    BYTE $0A
01234  110C  58                    BYTE $58
01235  110D  55                    BYTE $55
01236  110E  12                    BYTE $12
01237  110F  05                    BYTE $05            ; 5        E
01238  1110  0A                    BYTE $0A            ; 10       J
01239  1111  7C                    BYTE $7C            ; 124      GFX
01240  1112  55                    BYTE $55
01241  1113  12                    BYTE $12
01242  1114  06                    BYTE $06            ; 6        F
01243  1115  06                    BYTE $06            ; 6        F
01244  1116  92                    BYTE $92            ; 146      R
01245  1117  38                    BYTE $38            ; 56       8
01246  1118  00                    BYTE $00            ; 0
01247  1119  00                    BYTE $00            ; 0
01248  111A  00                    BYTE $00            ; 0
01249  111B  0A                    BYTE $0A
01250  111C  55                    BYTE $55
01251  111D  7D                    BYTE $7D
01252  111E  3E                    BYTE $3E
01253  111F  07                    BYTE $07
01254  1120  0A                    BYTE $0A
01255  1121  55                    BYTE $55            ; 85       U
01256  1122  7D                    BYTE $7D            ; 125      GFX
01257  1123  E3                    BYTE $E3            ; 227      GFX
01258  1124  07                    BYTE $07            ; 7        G
01259  1125  0A                    BYTE $0A
01260  1126  55                    BYTE $55            ; 85       U
01261  1127  7D                    BYTE $7D            ; 125      GFX
01262  1128  14                    BYTE $14            ; 20       T
01263  1129  07                    BYTE $07            ; 7        G
01264  112A  0A                    BYTE $0A
01265  112B  55                    BYTE $55            ; 85       U
01266  112C  7D                    BYTE $7D            ; 125      GFX
01267  112D  32                    BYTE $32            ; 50       2
01268  112E  07                    BYTE $07            ; 7        G
01269  112F  0A                    BYTE $0A
01270  1130  55                    BYTE $55            ; 85       U
01271  1131  7D                    BYTE $7D            ; 125      GFX
01272  1132  1C                    BYTE $1C            ; 28       
01273  1133  07                    BYTE $07            ; 7        G
01274  1134  0A                    BYTE $0A
01275  1135  55                    BYTE $55            ; 85       U
01276  1136  7D                    BYTE $7D            ; 125      GFX
01277  1137  DF                    BYTE $DF            ; 223      GFX
01278  1138  07                    BYTE $07            ; 7        G
01279  1139  0A                    BYTE $0A
01280  113A  55                    BYTE $55
01281  113B  7D                    BYTE $7D
01282  113C  FD                    BYTE $FD
01283  113D  07                    BYTE $07
01284  113E  00                    BYTE $00
01285  113F  06                    BYTE $06
01286  1140  19                    BYTE $19
01287  1141  38                    BYTE $38            ; 56       8
01288  1142  00                    BYTE $00            ; 0
01289  1143  00                    BYTE $00            ; 0
01290  1144  00                    BYTE $00            ; 0
01291  1145  08                    BYTE $08            ; 8        H
01292  1146  32                    BYTE $32            ; 50       2
01293  1147  70                    BYTE $70            ; 112      GFX
01294  1148  00                    BYTE $00            ; 0
01295  1149  00                    BYTE $00            ; 0
01296  114A  08                    BYTE $08
01297  114B  46                    BYTE $46            ; 70       F
01298  114C  70                    BYTE $70            ; 112      GFX
01299  114D  00                    BYTE $00            ; 0
01300  114E  00                    BYTE $00            ; 0
01301  114F  05                    BYTE $05
01302  1150  70                    BYTE $70
01303  1151  94                    BYTE $94            ; 148      T
01304  1152  00                    BYTE $00            ; 0
01305  1153  00                    BYTE $00            ; 0
01306  1154  0A                    BYTE $0A            ; 10       J
01307  1155  93                    BYTE $93            ; 147      S
01308  1156  45                    BYTE $45            ; 69       E
01309  1157  C0                    BYTE $C0            ; 192      GFX
01310  1158  0F                    BYTE $0F            ; 15       O
01311  1159  00                    BYTE $00            ; 0
01312  115A  06                    BYTE $06            ; 6        F
01313  115B  3D                    BYTE $3D            ; 61       =
01314  115C  5F                    BYTE $5F            ; 95       GFX
01315  115D  00                    BYTE $00            ; 0
01316  115E  00                    BYTE $00            ; 0
01317  115F  06                    BYTE $06            ; 6        F
01318  1160  61                    BYTE $61            ; 97       GFX
01319  1161  5F                    BYTE $5F            ; 95       GFX
01320  1162  00                    BYTE $00            ; 0
01321  1163  00                    BYTE $00            ; 0
01322  1164  06                    BYTE $06            ; 6        F
01323  1165  85                    BYTE $85            ; 133      E
01324  1166  5F                    BYTE $5F            ; 95       GFX
01325  1167  00                    BYTE $00            ; 0
01326  1168  00                    BYTE $00            ; 0
01327  1169  0A                    BYTE $0A            ; 10       J
01328  116A  34                    BYTE $34            ; 52       4
01329  116B  C5                    BYTE $C5
01330  116C  0E                    BYTE $0E
01331  116D  15                    BYTE $15
01332  116E  0A                    BYTE $0A
01333  116F  50                    BYTE $50            ; 80       P
01334  1170  AA                    BYTE $AA            ; 170      *
01335  1171  02                    BYTE $02            ; 2        B
01336  1172  15                    BYTE $15
01337  1173  0A                    BYTE $0A
01338  1174  6C                    BYTE $6C
01339  1175  C5                    BYTE $C5
01340  1176  0E                    BYTE $0E
01341  1177  15                    BYTE $15
01342  1178  0A                    BYTE $0A
01343  1179  88                    BYTE $88
01344  117A  AA                    BYTE $AA            ; 170      *
01345  117B  02                    BYTE $02            ; 2        B
01346  117C  15                    BYTE $15
01347  117D  00                    BYTE $00
01348  117E  01                    BYTE $01            ; 1        A
01349  117F  6F                    BYTE $6F            ; 111      GFX
01350  1180  42                    BYTE $42            ; 66       B
01351  1181  00                    BYTE $00            ; 0
01352  1182  00                    BYTE $00            ; 0
01353  1183  02                    BYTE $02            ; 2        B
01354  1184  9B                    BYTE $9B            ; 155      [
01355  1185  75                    BYTE $75            ; 117      GFX
01356  1186  00                    BYTE $00            ; 0
01357  1187  00                    BYTE $00            ; 0
01358  1188  03                    BYTE $03            ; 3        C
01359  1189  87                    BYTE $87            ; 135      G
01360  118A  66                    BYTE $66            ; 102      GFX
01361  118B  00                    BYTE $00            ; 0
01362  118C  00                    BYTE $00            ; 0
01363  118D  04                    BYTE $04            ; 4        D
01364  118E  5B                    BYTE $5B            ; 91       GFX
01365  118F  40                    BYTE $40            ; 64       GFX
01366  1190  00                    BYTE $00            ; 0
01367  1191  00                    BYTE $00            ; 0
01368  1192  00                    BYTE $00            ; 0
01369  1193  08                    BYTE $08
01370  1194  18                    BYTE $18
01371  1195  48                    BYTE $48            ; 72       H
01372  1196  00                    BYTE $00            ; 0
01373  1197  00                    BYTE $00            ; 0
01374  1198  08                    BYTE $08
01375  1199  2C                    BYTE $2C            ; 44       ,
01376  119A  48                    BYTE $48            ; 72       H
01377  119B  00                    BYTE $00            ; 0
01378  119C  00                    BYTE $00            ; 0
01379  119D  08                    BYTE $08
01380  119E  46                    BYTE $46            ; 70       F
01381  119F  B9                    BYTE $B9            ; 185      9
01382  11A0  00                    BYTE $00            ; 0
01383  11A1  00                    BYTE $00            ; 0
01384  11A2  05                    BYTE $05
01385  11A3  98                    BYTE $98
01386  11A4  B4                    BYTE $B4            ; 180      4
01387  11A5  00                    BYTE $00            ; 0
01388  11A6  00                    BYTE $00            ; 0
01389  11A7  0A                    BYTE $0A
01390  11A8  70                    BYTE $70            ; 112      GFX
01391  11A9  65                    BYTE $65            ; 101      GFX
01392  11AA  04                    BYTE $04            ; 4        D
01393  11AB  08                    BYTE $08
01394  11AC  0A                    BYTE $0A
01395  11AD  18                    BYTE $18
01396  11AE  8E                    BYTE $8E            ; 142      N
01397  11AF  2F                    BYTE $2F            ; 47       /
01398  11B0  09                    BYTE $09            ; 9        I
01399  11B1  00                    BYTE $00            ; 0
01400  11B2  09                    BYTE $09
01401  11B3  54                    BYTE $54
01402  11B4  50                    BYTE $50            ; 80       P
01403  11B5  00                    BYTE $00            ; 0
01404  11B6  00                    BYTE $00            ; 0
01405  11B7  09                    BYTE $09
01406  11B8  68                    BYTE $68
01407  11B9  50                    BYTE $50            ; 80       P
01408  11BA  00                    BYTE $00            ; 0
01409  11BB  00                    BYTE $00            ; 0
01410  11BC  09                    BYTE $09
01411  11BD  7C                    BYTE $7C
01412  11BE  50                    BYTE $50            ; 80       P
01413  11BF  00                    BYTE $00            ; 0
01414  11C0  00                    BYTE $00            ; 0
01415  11C1  06                    BYTE $06            ; 6        F
01416  11C2  12                    BYTE $12            ; 18       R
01417  11C3  3C                    BYTE $3C            ; 60       <
01418  11C4  00                    BYTE $00            ; 0
01419  11C5  00                    BYTE $00            ; 0
01420  11C6  00                    BYTE $00            ; 0
01421  11C7  0B                    BYTE $0B            ; 11       K
01422  11C8  54                    BYTE $54            ; 84       T
01423  11C9  C5                    BYTE $C5            ; 197      E
01424  11CA  00                    BYTE $00            ; 0
01425  11CB  00                    BYTE $00            ; 0
01426  11CC  00                    BYTE $00            ; 0
01427  11CD  07                    BYTE $07            ; 7        G
01428  11CE  4E                    BYTE $4E
01429  11CF  6E                    BYTE $6E
01430  11D0  C4                    BYTE $C4
01431  11D1  10                    BYTE $10
01432  11D2  07                    BYTE $07
01433  11D3  58                    BYTE $58            ; 88       X
01434  11D4  64                    BYTE $64            ; 100      GFX
01435  11D5  C4                    BYTE $C4            ; 196      D
01436  11D6  10                    BYTE $10            ; 16       P
01437  11D7  07                    BYTE $07            ; 7        G
01438  11D8  62                    BYTE $62            ; 98       GFX
01439  11D9  5A                    BYTE $5A            ; 90       Z
01440  11DA  C4                    BYTE $C4            ; 196      D
01441  11DB  10                    BYTE $10            ; 16       P
01442  11DC  07                    BYTE $07            ; 7        G
01443  11DD  6C                    BYTE $6C
01444  11DE  50                    BYTE $50
01445  11DF  C4                    BYTE $C4
01446  11E0  10                    BYTE $10
01447  11E1  07                    BYTE $07
01448  11E2  76                    BYTE $76
01449  11E3  46                    BYTE $46
01450  11E4  C4                    BYTE $C4            ; 196      D
01451  11E5  10                    BYTE $10            ; 16       P
01452  11E6  07                    BYTE $07            ; 7        G
01453  11E7  80                    BYTE $80            ; 128
01454  11E8  3C                    BYTE $3C            ; 60       <
01455  11E9  C4                    BYTE $C4            ; 196      D
01456  11EA  10                    BYTE $10            ; 16       P
01457  11EB  07                    BYTE $07            ; 7        G
01458  11EC  8A                    BYTE $8A            ; 138      J
01459  11ED  32                    BYTE $32            ; 50       2
01460  11EE  C4                    BYTE $C4            ; 196      D
01461  11EF  10                    BYTE $10            ; 16       P
01462  11F0  00                    BYTE $00            ; 0
01463  11F1  0A                    BYTE $0A
01464  11F2  60                    BYTE $60
01465  11F3  AD                    BYTE $AD
01466  11F4  D0                    BYTE $D0
01467  11F5  80                    BYTE $80
01468  11F6  0A                    BYTE $0A
01469  11F7  4C                    BYTE $4C
01470  11F8  6D                    BYTE $6D
01471  11F9  30                    BYTE $30
01472  11FA  80                    BYTE $80            ; 128
01473  11FB  0A                    BYTE $0A
01474  11FC  88                    BYTE $88
01475  11FD  4D                    BYTE $4D            ; 77       M
01476  11FE  D0                    BYTE $D0            ; 208      P
01477  11FF  80                    BYTE $80            ; 128
01478  1200  00                    BYTE $00            ; 0
01479  1201  0A                    BYTE $0A
01480  1202  4C                    BYTE $4C
01481  1203  72                    BYTE $72
01482  1204  C4                    BYTE $C4
01483  1205  0E                    BYTE $0E
01484  1206  0A                    BYTE $0A
01485  1207  58                    BYTE $58
01486  1208  66                    BYTE $66
01487  1209  C4                    BYTE $C4
01488  120A  0E                    BYTE $0E            ; 14       N
01489  120B  0A                    BYTE $0A            ; 10       J
01490  120C  64                    BYTE $64            ; 100      GFX
01491  120D  5A                    BYTE $5A            ; 90       Z
01492  120E  C4                    BYTE $C4            ; 196      D
01493  120F  0E                    BYTE $0E            ; 14       N
01494  1210  0A                    BYTE $0A
01495  1211  70                    BYTE $70
01496  1212  4E                    BYTE $4E
01497  1213  C4                    BYTE $C4
01498  1214  0E                    BYTE $0E
01499  1215  0A                    BYTE $0A            ; 10       J
01500  1216  7C                    BYTE $7C            ; 124      GFX
01501  1217  42                    BYTE $42            ; 66       B
01502  1218  C4                    BYTE $C4
01503  1219  0E                    BYTE $0E
01504  121A  0A                    BYTE $0A
01505  121B  88                    BYTE $88
01506  121C  36                    BYTE $36
01507  121D  C4                    BYTE $C4
01508  121E  0E                    BYTE $0E
01509  121F  05                    BYTE $05
01510  1220  18                    BYTE $18
01511  1221  B4                    BYTE $B4            ; 180      4
01512  1222  00                    BYTE $00            ; 0
01513  1223  00                    BYTE $00            ; 0
01514  1224  00                    BYTE $00            ; 0
01515  1225  0A                    BYTE $0A            ; 10       J
01516  1226  9C                    BYTE $9C            ; 156      
01517  1227  C5                    BYTE $C5            ; 197      E
01518  1228  30                    BYTE $30            ; 48       0
01519  1229  80                    BYTE $80            ; 128
01520  122A  0A                    BYTE $0A            ; 10       J
01521  122B  9C                    BYTE $9C            ; 156      
01522  122C  45                    BYTE $45            ; 69       E
01523  122D  D0                    BYTE $D0            ; 208      P
01524  122E  80                    BYTE $80            ; 128
01525  122F  0A                    BYTE $0A
01526  1230  24                    BYTE $24
01527  1231  C5                    BYTE $C5
01528  1232  30                    BYTE $30            ; 48       0
01529  1233  80                    BYTE $80            ; 128
01530  1234  0A                    BYTE $0A            ; 10       J
01531  1235  74                    BYTE $74            ; 116      GFX
01532  1236  85                    BYTE $85            ; 133      E
01533  1237  D0                    BYTE $D0            ; 208      P
01534  1238  80                    BYTE $80            ; 128
01535  1239  0A                    BYTE $0A
01536  123A  4C                    BYTE $4C
01537  123B  85                    BYTE $85
01538  123C  30                    BYTE $30
01539  123D  80                    BYTE $80            ; 128
01540  123E  0A                    BYTE $0A
01541  123F  60                    BYTE $60
01542  1240  C5                    BYTE $C5            ; 197      E
01543  1241  D0                    BYTE $D0            ; 208      P
01544  1242  80                    BYTE $80            ; 128
01545  1243  06                    BYTE $06
01546  1244  9C                    BYTE $9C
01547  1245  AD                    BYTE $AD            ; 173      -
01548  1246  00                    BYTE $00            ; 0
01549  1247  00                    BYTE $00            ; 0
01550  1248  00                    BYTE $00            ; 0
01551  1249  2D                    BYTE $2D
01552  124A  D2                    BYTE $D2
01553  124B  0C                    BYTE $0C
01554  124C  A0                    BYTE $A0            ; 160
01555  124D  36                    BYTE $36            ; 54       6
01556  124E  64                    BYTE $64            ; 100      GFX
01557  124F  5B                    BYTE $5B            ; 91       GFX
01558  1250  9E                    BYTE $9E            ; 158      ^
01559  1251  A5                    BYTE $A5            ; 165      %
01560  1252  BD                    BYTE $BD            ; 189      =
01561  1253  00                    BYTE $00            ; 0
01562  1254  FF                    BYTE $FF            ; 255      GFX
01563  1255  65                    BYTE $65            ; 101      GFX
01564  1256  7D                    BYTE $7D            ; 125      GFX
01565  1257  00                    BYTE $00            ; 0
01566  1258  FF                    BYTE $FF            ; 255      GFX
01567  1259  3D                    BYTE $3D            ; 61       =
01568  125A  C5                    BYTE $C5            ; 197      E
01569  125B  25                    BYTE $25            ; 37       %
01570  125C  43                    BYTE $43            ; 67       C
01571  125D  3D                    BYTE $3D            ; 61       =
01572  125E  C5                    BYTE $C5            ; 197      E
01573  125F  49                    BYTE $49            ; 73       I
01574  1260  67                    BYTE $67            ; 103      GFX
01575  1261  3D                    BYTE $3D            ; 61       =
01576  1262  C5                    BYTE $C5            ; 197      E
01577  1263  6D                    BYTE $6D            ; 109      GFX
01578  1264  8B                    BYTE $8B            ; 139      K
01579  1265  34                    BYTE $34            ; 52       4
01580  1266  C6                    BYTE $C6            ; 198      F
01581  1267  0E                    BYTE $0E            ; 14       N
01582  1268  9C                    BYTE $9C            ; 156      
01583  1269  32                    BYTE $32            ; 50       2
01584  126A  65                    BYTE $65            ; 101      GFX
01585  126B  00                    BYTE $00            ; 0
01586  126C  FF                    BYTE $FF            ; 255      GFX
01587  126D  7D                    BYTE $7D            ; 125      GFX
01588  126E  8E                    BYTE $8E            ; 142      N
01589  126F  18                    BYTE $18            ; 24       X
01590  1270  7B                    BYTE $7B            ; 123      GFX
01591  1271  6C                    BYTE $6C
01592  1272  87                    BYTE $87
01593  1273  34                    BYTE $34
01594  1274  80                    BYTE $80            ; 128
01595  1275  AA                    BYTE $AA
01596  1276  C0                    BYTE $C0            ; 192      GFX
01597  1277  00                    BYTE $00            ; 0
01598  1278  FF                    BYTE $FF            ; 255      GFX
01599  1279  4E                    BYTE $4E            ; 78       N
01600  127A  69                    BYTE $69            ; 105      GFX
01601  127B  34                    BYTE $34            ; 52       4
01602  127C  80                    BYTE $80            ; 128
01603  127D  80                    BYTE $80            ; 128
01604  127E  9B                    BYTE $9B            ; 155      [
01605  127F  34                    BYTE $34            ; 52       4
01606  1280  80                    BYTE $80            ; 128
01607  1281  36                    BYTE $36
01608  1282  85                    BYTE $85
01609  1283  20                    BYTE $20            ; 32
01610  1284  88                    BYTE $88            ; 136      H
01611  1285  00                    BYTE $00            ; 0
01612  1286  FF                    BYTE $FF            ; 255      GFX
01613  1287  19                    BYTE $19
01614  1288  93                    BYTE $93
01615  1289  32                    BYTE $32
01616  128A  90                    BYTE $90            ; 144      P
01617  128B  12                    BYTE $12            ; 18       R
01618  128C  87                    BYTE $87            ; 135      G
01619  128D  BE                    BYTE $BE            ; 190      >
01620  128E  D2                    BYTE $D2            ; 210      R
01621  128F  2C                    BYTE $2C            ; 44       ,
01622  1290  64                    BYTE $64            ; 100      GFX
01623  1291  91                    BYTE $91
01624  1292  A5                    BYTE $A5
01625  1293  2C                    BYTE $2C            ; 44       ,
01626  1294  64                    BYTE $64            ; 100      GFX
01627  1295  BE                    BYTE $BE            ; 190      >
01628  1296  D2                    BYTE $D2            ; 210      R
01629  1297  54                    BYTE $54            ; 84       T
01630  1298  8C                    BYTE $8C            ; 140      L
01631  1299  91                    BYTE $91            ; 145      Q
01632  129A  A5                    BYTE $A5            ; 165      %
01633  129B  54                    BYTE $54            ; 84       T
01634  129C  8C                    BYTE $8C            ; 140      L
01635  129D  AA                    BYTE $AA            ; 170      *
01636  129E  C5                    BYTE $C5            ; 197      E
01637  129F  00                    BYTE $00            ; 0
01638  12A0  FF                    BYTE $FF            ; 255      GFX
01639  12A1             ;________________________________________
01640  12A1             ;
01641  12A1             ;    DRAW ROOM
01642  12A1             ;
01643  12A1  A9 0D      L00083     LDA #$0D
01644  12A3  8D 86 02              STA $0286           ; CHARACTER COLOR CODE
01645  12A6  20 44 E5              JSR $E544
01646  12A9  A6 02                 LDX $02             ; ROOM
01647  12AB  BD 5B 13              LDA $135B,X         ; SET ($FD) TO START OF ROOM DATA FOR ROOM IN $02
01648  12AE  85 FD                 STA $FD
01649  12B0  BD 6B 13              LDA $136B,X
01650  12B3  85 FE                 STA $FE
01651  12B5  A0 FF                 LDY #$FF
01652  12B7  A9 03                 LDA #$03            ; THERE ARE 3 TYPES OF ROOM DATA (BRICKS, MOVING SIDEWALKS AND LADDERS)
01653  12B9  85 03                 STA $03
01654  12BB  C6 03      L00085     DEC $03
01655  12BD  30 24                 BMI L00087          ; BRANCH IF END OF ROOM DATA IS REACHED
01656  12BF  A6 03                 LDX $03             ; SET JSR ADDRESS FOR 12DC BASED ON $03
01657  12C1  BD E4 12              LDA $12E4,X
01658  12C4  8D DD 12              STA $12DD
01659  12C7  BD E7 12              LDA $12E7,X
01660  12CA  8D DE 12              STA $12DE
01661  12CD  C8         L00086     INY
01662  12CE  B1 FD                 LDA ($FD),Y         ; READ NEXT BYTE OF ROOM DATA
01663  12D0  F0 E9                 BEQ L00085          ; IF FIRST BYTE OF ROOM DATA PAIR IS #$00 THEN CHANGE JSR ADDRESS
01664  12D2  85 FC                 STA $FC
01665  12D4  C8                    INY
01666  12D5  B1 FD                 LDA ($FD),Y         ; READ NEXT BYTE OF ROOM DATA
01667  12D7  85 FB                 STA $FB
01668  12D9  8C E0 12              STY $12E0           ; SAVE SECOND BYTE OF ROOM DATA PAIR
01669  12DC  20 FF FF              JSR $FFFF           ; THIS ADDRESS IS CHANGED IN $12C4 AND $12CA
01670  12DF  A0 FF                 LDY #$FF            ; THIS VALUE IS CHANGED IN $12D9
01671  12E1  D0 EA                 BNE L00086          ; READ NEXT PAIR OF ROOM DATA
01672  12E3  60         L00087     RTS
01673  12E4             ;________________________________________
01674  12E4             ;
01675  12E4             ;    JSR ADDRESSES FOR 12DC
01676  12E4             ;
01677  12E4  1B                    BYTE $1B            ; $131B
01678  12E5  F6                    BYTE $F6            ; $12F6
01679  12E6  EA                    BYTE $EA            ; $12EA
01680  12E7  13                    BYTE $13            ; $131B
01681  12E8  12                    BYTE $12            ; $12F6
01682  12E9  12                    BYTE $12            ; $12EA
01683  12EA             ;________________________________________
01684  12EA  A9 01                 LDA #$01            ; MOVE ONE CHARACTER RIGHT WHEN DRAWING
01685  12EC  24 FC                 BIT $FC
01686  12EE  10 02                 BPL L00088
01687  12F0  A9 28                 LDA #$28            ; MOVE ONE SCREEN LINE DOWN WHEN DRAWING
01688  12F2  A2 F9      L00088     LDX #$F9            ; BRICK CHARACTER CHAR CODE
01689  12F4  D0 09                 BNE L00089
01690  12F6  A9 01                 LDA #$01
01691  12F8  A2 FA                 LDX #$FA            ; LEFT MOVING SIDEWALK CHAR CODE
01692  12FA  24 FC                 BIT $FC
01693  12FC  10 01                 BPL L00089
01694  12FE  E8                    INX                 ; RIGHT MOVING SIDEWALK CHAR CODE
01695  12FF  85 04      L00089     STA $04
01696  1301  86 05                 STX $05             ; CHAR CODE
01697  1303  20 46 13              JSR L00096
01698  1306  A0 00                 LDY #$00
01699  1308  A5 05      L00090     LDA $05             ; CHAR CODE
01700  130A  91 F9                 STA ($F9),Y         ; WRITE TO SCREEN
01701  130C  A5 F9                 LDA $F9             ; CALCULATE THE NEXT SCREEN ADDRESS
01702  130E  18                    CLC
01703  130F  65 04                 ADC $04
01704  1311  85 F9                 STA $F9
01705  1313  90 02                 BCC L00091
01706  1315  E6 FA                 INC $FA
01707  1317  CA         L00091     DEX
01708  1318  D0 EE                 BNE L00090
01709  131A  60                    RTS
01710  131B             ;________________________________________
01711  131B  20 46 13              JSR L00096
01712  131E  24 FC                 BIT $FC
01713  1320  30 08                 BMI L00092          ; BRANCH IF THERE IF NO TOP OF LADDER
01714  1322  A0 01                 LDY #$01            ; TO DRAW TOP OF LADDER IN THE CENTER ABOVE THE OTHER LADDER ROWS
01715  1324  A9 FE                 LDA #$FE            ; TOP OF LADDER CHAR CODE
01716  1326  91 F9                 STA ($F9),Y         ; WRITE TO SCREEN
01717  1328  D0 0A                 BNE L00094          ; UNCONDITIONAL JUMP (BRANCH IS ALWAYS TAKEN)
01718  132A  A0 02      L00092     LDY #$02            ; DRAW ONE ROW OF 3 LADDER CHARACTERS
01719  132C  B9 43 13   L00093     LDA $1343,Y         ; LADDER CHARACTER
01720  132F  91 F9                 STA ($F9),Y         ; WRITE TO SCREEN
01721  1331  88                    DEY
01722  1332  10 F8                 BPL L00093
01723  1334  A5 F9      L00094     LDA $F9             ; CALCULATE THE NEXT SCREEN ADDRESS
01724  1336  18                    CLC
01725  1337  69 28                 ADC #$28
01726  1339  85 F9                 STA $F9
01727  133B  90 02                 BCC L00095
01728  133D  E6 FA                 INC $FA
01729  133F  CA         L00095     DEX
01730  1340  D0 E8                 BNE L00092
01731  1342  60                    RTS
01732  1343             ;________________________________________
01733  1343             ;
01734  1343             ;    CHARACTERS DEFINING PART OF LADDER
01735  1343             ;
01736  1343  FC                    BYTE $FC            ; 252      GFX
01737  1344  FF                    BYTE $FF            ; 255      GFX
01738  1345  FD                    BYTE $FD            ; 253      GFX
01739  1346             ;________________________________________
01740  1346  A5 FB      L00096     LDA $FB             ; SECOND BYTE OF ROOM DATA PAIR
01741  1348  85 F9                 STA $F9             ; LO BYTE OF SCREEN ADDRESS
01742  134A  A5 FC                 LDA $FC             ; FIRST BYTE OF ROOM DATA PAIR
01743  134C  29 03                 AND #$03
01744  134E  18                    CLC
01745  134F  69 04                 ADC #$04
01746  1351  85 FA                 STA $FA             ; HI BYTE OF SCREEN ADDRESS
01747  1353  A5 FC                 LDA $FC             ; FIRST BYTE OF ROOM DATA PAIR
01748  1355  29 7C                 AND #$7C            ; = %01111100
01749  1357  4A                    LSR                 ; = %0 0 B6 B5 B4 B3 B2 0
01750  1358  4A                    LSR                 ; = %0 0 0  B6 B5 B4 B3 B2
01751  1359  AA                    TAX                 ; SET X TO LOOP COUNT
01752  135A  60                    RTS
01753  135B             ;________________________________________
01754  135B             ;
01755  135B             ;    LO BYTE OF POINTER TO ROOM DATA
01756  135B             ;
01757  135B  7B                    BYTE $7B            ; ROOM 00 = $137B
01758  135C  92                    BYTE $92            ; ROOM 01 = $1392
01759  135D  B3                    BYTE $B3            ; ROOM 02 = $13B3
01760  135E  DA                    BYTE $DA            ; ROOM 03 = $13DA
01761  135F  EF                    BYTE $EF            ; ROOM 04 = $13EF
01762  1360  32                    BYTE $32            ; ROOM 05 = $1432
01763  1361  5B                    BYTE $5B            ; ROOM 06 = $145B
01764  1362  76                    BYTE $76            ; ROOM 07 = $1476
01765  1363  A5                    BYTE $A5            ; ROOM 08 = $14A5
01766  1364  C4                    BYTE $C4            ; ROOM 09 = $14C4
01767  1365  DD                    BYTE $DD            ; ROOM 0A = $14DD
01768  1366  F2                    BYTE $F2            ; ROOM 0B = $14F2
01769  1367  35                    BYTE $35            ; ROOM 0C = $1535
01770  1368  50                    BYTE $50            ; ROOM 0D = $1550
01771  1369  6F                    BYTE $6F            ; ROOM 0E = $156F
01772  136A  86                    BYTE $86            ; ROOM 0F = $1586
01773  136B             ;________________________________________
01774  136B             ;
01775  136B             ;    HI BYTE OF POINTER TO ROOM DATA
01776  136B             ;
01777  136B  13                    BYTE $13            ; ROOM 00 = $137B
01778  136C  13                    BYTE $13            ; ROOM 01 = $1392
01779  136D  13                    BYTE $13            ; ROOM 02 = $13B3
01780  136E  13                    BYTE $13            ; ROOM 03 = $13DA
01781  136F  13                    BYTE $13            ; ROOM 04 = $13EF
01782  1370  14                    BYTE $14            ; ROOM 05 = $1432
01783  1371  14                    BYTE $14            ; ROOM 06 = $145B
01784  1372  14                    BYTE $14            ; ROOM 07 = $1476
01785  1373  14                    BYTE $14            ; ROOM 08 = $14A5
01786  1374  14                    BYTE $14            ; ROOM 09 = $14C4
01787  1375  14                    BYTE $14            ; ROOM 0A = $14DD
01788  1376  14                    BYTE $14            ; ROOM 0B = $14F2
01789  1377  15                    BYTE $15            ; ROOM 0C = $1535
01790  1378  15                    BYTE $15            ; ROOM 0D = $1550
01791  1379  15                    BYTE $15            ; ROOM 0E = $156F
01792  137A  15                    BYTE $15            ; ROOM 0F = $1586
01793  137B             ;________________________________________
01794  137B             ;
01795  137B             ;    ROOM DATA FOR ROOM 00
01796  137B             ;
01797  137B             ;    THE ROOMS ARE CONNECTED LIKE THIS (YOU START IN ROOM 09):
01798  137B             ;
01799  137B             ;        0C 0D 0E 0F
01800  137B             ;        08 09 0A 0B
01801  137B             ;        04 05 06 07
01802  137B             ;        00 01 02 03
01803  137B             ;
01804  137B             ;
01805  137B             ;
01806  137B  48                    BYTE $48
01807  137C  A1                    BYTE $A1            ; LO BYTE OF SCREEN ADDRESS
01808  137D  5D                    BYTE $5D
01809  137E  78                    BYTE $78            ; LO BYTE OF SCREEN ADDRESS
01810  137F  16                    BYTE $16            ; 22       V
01811  1380  53                    BYTE $53            ; LO BYTE OF SCREEN ADDRESS
01812  1381  53                    BYTE $53            ; 83       S
01813  1382  4D                    BYTE $4D            ; LO BYTE OF SCREEN ADDRESS
01814  1383  3B                    BYTE $3B            ; 59       ;
01815  1384  61                    BYTE $61            ; LO BYTE OF SCREEN ADDRESS
01816  1385  00                    BYTE $00            ; SIGNAL TO CHANGE JSR ADDRESS TO $12F6 IN $12DC
01817  1386  00                    BYTE $00            ; SIGNAL TO CHANGE JSR ADDRESS TO $131B IN $12DC
01818  1387  90                    BYTE $90            ; 144      P
01819  1388  01                    BYTE $01            ; LO BYTE OF SCREEN ADDRESS
01820  1389  44                    BYTE $44            ; 68       D
01821  138A  A5                    BYTE $A5            ; LO BYTE OF SCREEN ADDRESS
01822  138B  0C                    BYTE $0C
01823  138C  B0                    BYTE $B0            ; LO BYTE OF SCREEN ADDRESS
01824  138D  0D                    BYTE $0D
01825  138E  8C                    BYTE $8C            ; LO BYTE OF SCREEN ADDRESS
01826  138F  1E                    BYTE $1E            ; 30       ^
01827  1390  54                    BYTE $54            ; LO BYTE OF SCREEN ADDRESS
01828  1391  00                    BYTE $00            ; 0
01829  1392             ;________________________________________
01830  1392             ;
01831  1392             ;    ROOM DATA FOR ROOM 01
01832  1392             ;
01833  1392  08                    BYTE $08            ; 8        H
01834  1393  00                    BYTE $00            ; LO BYTE OF SCREEN ADDRESS
01835  1394  40                    BYTE $40
01836  1395  05                    BYTE $05            ; LO BYTE OF SCREEN ADDRESS
01837  1396  4C                    BYTE $4C
01838  1397  15                    BYTE $15            ; LO BYTE OF SCREEN ADDRESS
01839  1398  A0                    BYTE $A0            ; 160
01840  1399  00                    BYTE $00            ; LO BYTE OF SCREEN ADDRESS
01841  139A  8C                    BYTE $8C            ; 140      L
01842  139B  06                    BYTE $06            ; LO BYTE OF SCREEN ADDRESS
01843  139C  A0                    BYTE $A0            ; 160
01844  139D  27                    BYTE $27            ; LO BYTE OF SCREEN ADDRESS
01845  139E  35                    BYTE $35
01846  139F  18                    BYTE $18            ; LO BYTE OF SCREEN ADDRESS
01847  13A0  31                    BYTE $31
01848  13A1  34                    BYTE $34            ; LO BYTE OF SCREEN ADDRESS
01849  13A2  8D                    BYTE $8D
01850  13A3  1E                    BYTE $1E            ; LO BYTE OF SCREEN ADDRESS
01851  13A4  52                    BYTE $52
01852  13A5  30                    BYTE $30            ; LO BYTE OF SCREEN ADDRESS
01853  13A6  52                    BYTE $52            ; 82       R
01854  13A7  44                    BYTE $44            ; LO BYTE OF SCREEN ADDRESS
01855  13A8  00                    BYTE $00            ; SIGNAL TO CHANGE JSR ADDRESS TO $12F6 IN $12DC
01856  13A9  15                    BYTE $15
01857  13AA  25                    BYTE $25            ; LO BYTE OF SCREEN ADDRESS
01858  13AB  95                    BYTE $95            ; 149      U
01859  13AC  2F                    BYTE $2F            ; LO BYTE OF SCREEN ADDRESS
01860  13AD  00                    BYTE $00            ; SIGNAL TO CHANGE JSR ADDRESS TO $131B IN $12DC
01861  13AE  9C                    BYTE $9C            ; 156      
01862  13AF  02                    BYTE $02            ; LO BYTE OF SCREEN ADDRESS
01863  13B0  1D                    BYTE $1D            ; 29       ]
01864  13B1  3A                    BYTE $3A            ; LO BYTE OF SCREEN ADDRESS
01865  13B2  00                    BYTE $00            ; 0
01866  13B3             ;________________________________________
01867  13B3             ;
01868  13B3             ;    ROOM DATA FOR ROOM 02
01869  13B3             ;
01870  13B3  7C                    BYTE $7C            ; 124      GFX
01871  13B4  CD                    BYTE $CD            ; LO BYTE OF SCREEN ADDRESS
01872  13B5  09                    BYTE $09            ; 9        I
01873  13B6  40                    BYTE $40            ; LO BYTE OF SCREEN ADDRESS
01874  13B7  89                    BYTE $89            ; 137      I
01875  13B8  41                    BYTE $41            ; LO BYTE OF SCREEN ADDRESS
01876  13B9  09                    BYTE $09
01877  13BA  66                    BYTE $66            ; LO BYTE OF SCREEN ADDRESS
01878  13BB  89                    BYTE $89
01879  13BC  66                    BYTE $66            ; LO BYTE OF SCREEN ADDRESS
01880  13BD  3D                    BYTE $3D            ; 61       =
01881  13BE  75                    BYTE $75            ; LO BYTE OF SCREEN ADDRESS
01882  13BF  12                    BYTE $12
01883  13C0  30                    BYTE $30            ; LO BYTE OF SCREEN ADDRESS
01884  13C1  16                    BYTE $16
01885  13C2  19                    BYTE $19            ; LO BYTE OF SCREEN ADDRESS
01886  13C3  0E                    BYTE $0E
01887  13C4  11                    BYTE $11            ; LO BYTE OF SCREEN ADDRESS
01888  13C5  1E                    BYTE $1E
01889  13C6  51                    BYTE $51            ; LO BYTE OF SCREEN ADDRESS
01890  13C7  26                    BYTE $26
01891  13C8  B5                    BYTE $B5            ; LO BYTE OF SCREEN ADDRESS
01892  13C9  5F                    BYTE $5F
01893  13CA  4D                    BYTE $4D            ; LO BYTE OF SCREEN ADDRESS
01894  13CB  00                    BYTE $00            ; SIGNAL TO CHANGE JSR ADDRESS TO $12F6 IN $12DC
01895  13CC  00                    BYTE $00            ; SIGNAL TO CHANGE JSR ADDRESS TO $131B IN $12DC
01896  13CD  94                    BYTE $94
01897  13CE  13                    BYTE $13            ; LO BYTE OF SCREEN ADDRESS
01898  13CF  24                    BYTE $24
01899  13D0  E9                    BYTE $E9            ; LO BYTE OF SCREEN ADDRESS
01900  13D1  40                    BYTE $40
01901  13D2  CD                    BYTE $CD            ; LO BYTE OF SCREEN ADDRESS
01902  13D3  31                    BYTE $31            ; 49       1
01903  13D4  81                    BYTE $81            ; LO BYTE OF SCREEN ADDRESS
01904  13D5  21                    BYTE $21            ; 33       !
01905  13D6  75                    BYTE $75            ; LO BYTE OF SCREEN ADDRESS
01906  13D7  12                    BYTE $12            ; 18       R
01907  13D8  1B                    BYTE $1B            ; LO BYTE OF SCREEN ADDRESS
01908  13D9  00                    BYTE $00            ; 0
01909  13DA             ;________________________________________
01910  13DA             ;
01911  13DA             ;    ROOM DATA FOR ROOM 03
01912  13DA             ;
01913  13DA  12                    BYTE $12            ; 18       R
01914  13DB  30                    BYTE $30            ; LO BYTE OF SCREEN ADDRESS
01915  13DC  33                    BYTE $33
01916  13DD  49                    BYTE $49            ; LO BYTE OF SCREEN ADDRESS
01917  13DE  30                    BYTE $30
01918  13DF  AA                    BYTE $AA            ; LO BYTE OF SCREEN ADDRESS
01919  13E0  33                    BYTE $33            ; 51       3
01920  13E1  5B                    BYTE $5B            ; LO BYTE OF SCREEN ADDRESS
01921  13E2  20                    BYTE $20            ; 32
01922  13E3  BC                    BYTE $BC            ; LO BYTE OF SCREEN ADDRESS
01923  13E4  00                    BYTE $00            ; SIGNAL TO CHANGE JSR ADDRESS TO $12F6 IN $12DC
01924  13E5  00                    BYTE $00            ; SIGNAL TO CHANGE JSR ADDRESS TO $131B IN $12DC
01925  13E6  1E                    BYTE $1E
01926  13E7  31                    BYTE $31            ; LO BYTE OF SCREEN ADDRESS
01927  13E8  44                    BYTE $44
01928  13E9  AA                    BYTE $AA            ; LO BYTE OF SCREEN ADDRESS
01929  13EA  44                    BYTE $44            ; 68       D
01930  13EB  B3                    BYTE $B3            ; LO BYTE OF SCREEN ADDRESS
01931  13EC  44                    BYTE $44            ; 68       D
01932  13ED  BC                    BYTE $BC            ; LO BYTE OF SCREEN ADDRESS
01933  13EE  00                    BYTE $00            ; 0
01934  13EF             ;________________________________________
01935  13EF             ;
01936  13EF             ;    ROOM DATA FOR ROOM 04
01937  13EF             ;
01938  13EF  50                    BYTE $50            ; 80       P
01939  13F0  00                    BYTE $00            ; LO BYTE OF SCREEN ADDRESS
01940  13F1  50                    BYTE $50
01941  13F2  14                    BYTE $14            ; LO BYTE OF SCREEN ADDRESS
01942  13F3  50                    BYTE $50            ; 80       P
01943  13F4  C8                    BYTE $C8            ; LO BYTE OF SCREEN ADDRESS
01944  13F5  50                    BYTE $50
01945  13F6  DC                    BYTE $DC            ; LO BYTE OF SCREEN ADDRESS
01946  13F7  51                    BYTE $51
01947  13F8  68                    BYTE $68            ; LO BYTE OF SCREEN ADDRESS
01948  13F9  51                    BYTE $51            ; 81       Q
01949  13FA  7C                    BYTE $7C            ; LO BYTE OF SCREEN ADDRESS
01950  13FB  52                    BYTE $52            ; 82       R
01951  13FC  08                    BYTE $08            ; LO BYTE OF SCREEN ADDRESS
01952  13FD  52                    BYTE $52            ; 82       R
01953  13FE  1C                    BYTE $1C            ; LO BYTE OF SCREEN ADDRESS
01954  13FF  52                    BYTE $52            ; 82       R
01955  1400  A8                    BYTE $A8            ; LO BYTE OF SCREEN ADDRESS
01956  1401  52                    BYTE $52            ; 82       R
01957  1402  BC                    BYTE $BC            ; LO BYTE OF SCREEN ADDRESS
01958  1403  53                    BYTE $53            ; 83       S
01959  1404  48                    BYTE $48            ; LO BYTE OF SCREEN ADDRESS
01960  1405  53                    BYTE $53            ; 83       S
01961  1406  5C                    BYTE $5C            ; LO BYTE OF SCREEN ADDRESS
01962  1407  D8                    BYTE $D8            ; 216      X
01963  1408  00                    BYTE $00            ; LO BYTE OF SCREEN ADDRESS
01964  1409  D8                    BYTE $D8            ; 216      X
01965  140A  27                    BYTE $27            ; LO BYTE OF SCREEN ADDRESS
01966  140B  00                    BYTE $00            ; SIGNAL TO CHANGE JSR ADDRESS TO $12F6 IN $12DC
01967  140C  00                    BYTE $00            ; SIGNAL TO CHANGE JSR ADDRESS TO $131B IN $12DC
01968  140D  94                    BYTE $94            ; 148      T
01969  140E  05                    BYTE $05            ; LO BYTE OF SCREEN ADDRESS
01970  140F  07                    BYTE $07            ; 7        G
01971  1410  49                    BYTE $49            ; LO BYTE OF SCREEN ADDRESS
01972  1411  10                    BYTE $10
01973  1412  C9                    BYTE $C9            ; LO BYTE OF SCREEN ADDRESS
01974  1413  10                    BYTE $10            ; 16       P
01975  1414  D3                    BYTE $D3            ; LO BYTE OF SCREEN ADDRESS
01976  1415  10                    BYTE $10
01977  1416  DD                    BYTE $DD            ; LO BYTE OF SCREEN ADDRESS
01978  1417  10                    BYTE $10
01979  1418  E7                    BYTE $E7            ; LO BYTE OF SCREEN ADDRESS
01980  1419  11                    BYTE $11
01981  141A  6E                    BYTE $6E            ; LO BYTE OF SCREEN ADDRESS
01982  141B  11                    BYTE $11
01983  141C  78                    BYTE $78            ; LO BYTE OF SCREEN ADDRESS
01984  141D  11                    BYTE $11
01985  141E  82                    BYTE $82            ; LO BYTE OF SCREEN ADDRESS
01986  141F  11                    BYTE $11            ; 17       Q
01987  1420  8C                    BYTE $8C            ; LO BYTE OF SCREEN ADDRESS
01988  1421  12                    BYTE $12            ; 18       R
01989  1422  09                    BYTE $09            ; LO BYTE OF SCREEN ADDRESS
01990  1423  12                    BYTE $12            ; 18       R
01991  1424  13                    BYTE $13            ; LO BYTE OF SCREEN ADDRESS
01992  1425  12                    BYTE $12            ; 18       R
01993  1426  1D                    BYTE $1D            ; LO BYTE OF SCREEN ADDRESS
01994  1427  12                    BYTE $12            ; 18       R
01995  1428  27                    BYTE $27            ; LO BYTE OF SCREEN ADDRESS
01996  1429  12                    BYTE $12            ; 18       R
01997  142A  AE                    BYTE $AE            ; LO BYTE OF SCREEN ADDRESS
01998  142B  12                    BYTE $12            ; 18       R
01999  142C  B8                    BYTE $B8            ; LO BYTE OF SCREEN ADDRESS
02000  142D  12                    BYTE $12            ; 18       R
02001  142E  C2                    BYTE $C2            ; LO BYTE OF SCREEN ADDRESS
02002  142F  12                    BYTE $12            ; 18       R
02003  1430  CC                    BYTE $CC            ; LO BYTE OF SCREEN ADDRESS
02004  1431  00                    BYTE $00
02005  1432             ;________________________________________
02006  1432             ;
02007  1432             ;    ROOM DATA FOR ROOM 05
02008  1432             ;
02009  1432  14                    BYTE $14
02010  1433  CA                    BYTE $CA
02011  1434  09                    BYTE $09
02012  1435  00                    BYTE $00
02013  1436  05                    BYTE $05
02014  1437  1F                    BYTE $1F
02015  1438  09                    BYTE $09
02016  1439  21                    BYTE $21
02017  143A  11                    BYTE $11
02018  143B  2D                    BYTE $2D
02019  143C  05                    BYTE $05
02020  143D  70                    BYTE $70
02021  143E  05                    BYTE $05
02022  143F  84                    BYTE $84
02023  1440  09                    BYTE $09
02024  1441  C1                    BYTE $C1
02025  1442  0D                    BYTE $0D            ; 13       M
02026  1443  CE                    BYTE $CE            ; 206      N
02027  1444  0A                    BYTE $0A            ; 10       J
02028  1445  13                    BYTE $13            ; 19       S
02029  1446  0E                    BYTE $0E
02030  1447  23                    BYTE $23
02031  1448  0E                    BYTE $0E
02032  1449  69                    BYTE $69
02033  144A  0A                    BYTE $0A
02034  144B  70                    BYTE $70            ; 112      GFX
02035  144C  0A                    BYTE $0A            ; 10       J
02036  144D  7C                    BYTE $7C            ; 124      GFX
02037  144E  0E                    BYTE $0E
02038  144F  C5                    BYTE $C5
02039  1450  0F                    BYTE $0F
02040  1451  10                    BYTE $10
02041  1452  33                    BYTE $33
02042  1453  49                    BYTE $49            ; 73       I
02043  1454  0F                    BYTE $0F            ; 15       O
02044  1455  5A                    BYTE $5A            ; 90       Z
02045  1456  00                    BYTE $00            ; 0
02046  1457  00                    BYTE $00            ; 0
02047  1458  07                    BYTE $07            ; 7        G
02048  1459  4A                    BYTE $4A            ; 74       J
02049  145A  00                    BYTE $00            ; 0
02050  145B             ;________________________________________
02051  145B             ;
02052  145B             ;    ROOM DATA FOR ROOM 06
02053  145B             ;
02054  145B  50                    BYTE $50
02055  145C  CB                    BYTE $CB
02056  145D  38                    BYTE $38            ; 56       8
02057  145E  DF                    BYTE $DF            ; 223      GFX
02058  145F  5D                    BYTE $5D            ; 93       GFX
02059  1460  C0                    BYTE $C0            ; 192      GFX
02060  1461  1A                    BYTE $1A            ; 26       Z
02061  1462  52                    BYTE $52            ; 82       R
02062  1463  3E                    BYTE $3E
02063  1464  AB                    BYTE $AB
02064  1465  22                    BYTE $22
02065  1466  BF                    BYTE $BF            ; 191      ?
02066  1467  89                    BYTE $89            ; 137      I
02067  1468  D2                    BYTE $D2            ; 210      R
02068  1469  00                    BYTE $00            ; 0
02069  146A  00                    BYTE $00            ; 0
02070  146B  94                    BYTE $94
02071  146C  13                    BYTE $13
02072  146D  30                    BYTE $30
02073  146E  CB                    BYTE $CB
02074  146F  24                    BYTE $24
02075  1470  EA                    BYTE $EA
02076  1471  2D                    BYTE $2D            ; 45       -
02077  1472  CB                    BYTE $CB            ; 203      K
02078  1473  19                    BYTE $19            ; 25       Y
02079  1474  D4                    BYTE $D4            ; 212      T
02080  1475  00                    BYTE $00            ; 0
02081  1476             ;________________________________________
02082  1476             ;
02083  1476             ;    ROOM DATA FOR ROOM 07
02084  1476             ;
02085  1476  52                    BYTE $52            ; 82       R
02086  1477  30                    BYTE $30            ; 48       0
02087  1478  3E                    BYTE $3E            ; 62       >
02088  1479  44                    BYTE $44            ; 68       D
02089  147A  50                    BYTE $50
02090  147B  A1                    BYTE $A1
02091  147C  38                    BYTE $38
02092  147D  B5                    BYTE $B5            ; 181      5
02093  147E  71                    BYTE $71            ; 113      GFX
02094  147F  6F                    BYTE $6F            ; 111      GFX
02095  1480  0F                    BYTE $0F            ; 15       O
02096  1481  6C                    BYTE $6C
02097  1482  C4                    BYTE $C4
02098  1483  A4                    BYTE $A4
02099  1484  98                    BYTE $98            ; 152      X
02100  1485  A7                    BYTE $A7            ; 167      '
02101  1486  98                    BYTE $98
02102  1487  B0                    BYTE $B0
02103  1488  98                    BYTE $98
02104  1489  B9                    BYTE $B9            ; 185      9
02105  148A  98                    BYTE $98            ; 152      X
02106  148B  C2                    BYTE $C2            ; 194      B
02107  148C  00                    BYTE $00            ; 0
02108  148D  D3                    BYTE $D3            ; 211      S
02109  148E  4C                    BYTE $4C
02110  148F  B3                    BYTE $B3
02111  1490  60                    BYTE $60
02112  1491  00                    BYTE $00            ; 0
02113  1492  0C                    BYTE $0C            ; 12       L
02114  1493  A8                    BYTE $A8            ; 168      (
02115  1494  0C                    BYTE $0C            ; 12       L
02116  1495  B1                    BYTE $B1
02117  1496  0C                    BYTE $0C
02118  1497  BA                    BYTE $BA
02119  1498  0D                    BYTE $0D
02120  1499  75                    BYTE $75
02121  149A  0D                    BYTE $0D
02122  149B  7E                    BYTE $7E
02123  149C  0D                    BYTE $0D
02124  149D  87                    BYTE $87
02125  149E  1E                    BYTE $1E
02126  149F  35                    BYTE $35
02127  14A0  D4                    BYTE $D4
02128  14A1  24                    BYTE $24
02129  14A2  28                    BYTE $28
02130  14A3  A1                    BYTE $A1            ; 161      !
02131  14A4  00                    BYTE $00            ; 0
02132  14A5             ;________________________________________
02133  14A5             ;
02134  14A5             ;    ROOM DATA FOR ROOM 08
02135  14A5             ;
02136  14A5  0C                    BYTE $0C            ; 12       L
02137  14A6  00                    BYTE $00            ; 0
02138  14A7  D8                    BYTE $D8            ; 216      X
02139  14A8  03                    BYTE $03            ; 3        C
02140  14A9  0F                    BYTE $0F            ; 15       O
02141  14AA  48                    BYTE $48
02142  14AB  D8                    BYTE $D8
02143  14AC  09                    BYTE $09
02144  14AD  74                    BYTE $74
02145  14AE  0A                    BYTE $0A            ; 10       J
02146  14AF  7B                    BYTE $7B            ; 123      GFX
02147  14B0  52                    BYTE $52            ; 82       R
02148  14B1  1D                    BYTE $1D            ; 29       ]
02149  14B2  C2                    BYTE $C2            ; 194      B
02150  14B3  B0                    BYTE $B0            ; 176      0
02151  14B4  27                    BYTE $27            ; 39       '
02152  14B5  25                    BYTE $25
02153  14B6  D6                    BYTE $D6
02154  14B7  0D                    BYTE $0D            ; 13       M
02155  14B8  2D                    BYTE $2D            ; 45       -
02156  14B9  05                    BYTE $05            ; 5        E
02157  14BA  7A                    BYTE $7A            ; 122      GFX
02158  14BB  09                    BYTE $09            ; 9        I
02159  14BC  84                    BYTE $84            ; 132      D
02160  14BD  00                    BYTE $00            ; 0
02161  14BE  00                    BYTE $00            ; 0
02162  14BF  D8                    BYTE $D8
02163  14C0  05                    BYTE $05            ; 5        E
02164  14C1  29                    BYTE $29            ; 41       )
02165  14C2  C3                    BYTE $C3            ; 195      C
02166  14C3  00                    BYTE $00            ; 0
02167  14C4             ;________________________________________
02168  14C4             ;
02169  14C4             ;    ROOM DATA FOR ROOM 09
02170  14C4             ;
02171  14C4  55                    BYTE $55            ; 01010101 (HI BYTE OF SCREEN ADDRESS = %100 AND BITS 0-1 = %101 = $05) (LOOP = BITS 2-6 = %10101 = $15)
02172  14C5  1B                    BYTE $1B            ; LO BYTE OF SCREEN ADDRESS
02173  14C6  2D                    BYTE $2D            ; 00101101 (HI BYTE OF SCREEN ADDRESS = %100 AND BITS 0-1 = %101 = $05) (LOOP = %01011 = $0B)
02174  14C7  35                    BYTE $35            ; LO BYTE OF SCREEN ADDRESS
02175  14C8  72                    BYTE $72            ; 01110010 (HI BYTE OF SCREEN ADDRESS = %100 AND BITS 0-1 = %110 = $06) (LOOP = %11100 = $1C)
02176  14C9  33                    BYTE $33            ; LO BYTE OF SCREEN ADDRESS
02177  14CA  12                    BYTE $12            ; 00010010 (HI BYTE OF SCREEN ADDRESS = %100 AND BITS 0-1 = %110 = $06) (LOOP = %00100 = $04)
02178  14CB  54                    BYTE $54            ; LO BYTE OF SCREEN ADDRESS
02179  14CC  8E                    BYTE $8E            ; 10001110 (VERTICAL) (HI BYTE OF SCREEN ADDRESS = %100 AND BITS 0-1 = %110 = $06) (LOOP = %00011 = $03)
02180  14CD  54                    BYTE $54            ; LO BYTE OF SCREEN ADDRESS
02181  14CE  7F                    BYTE $7F            ; 01111111 (HI BYTE OF SCREEN ADDRESS = %100 AND BITS 0-1 = %111 = $07) (LOOP = %11111 = $1F)
02182  14CF  48                    BYTE $48            ; LO BYTE OF SCREEN ADDRESS
02183  14D0  27                    BYTE $27            ; 00100111 (HI BYTE OF SCREEN ADDRESS = %100 AND BITS 0-1 = %111 = $07) (LOOP = %01001 = $09)
02184  14D1  67                    BYTE $67            ; LO BYTE OF SCREEN ADDRESS
02185  14D2  9A                    BYTE $9A            ; 10011010 (VERTICAL) (HI BYTE OF SCREEN ADDRESS = %100 AND BITS 0-1 = %110 = $06) (LOOP = %00110 = $06)
02186  14D3  60                    BYTE $60            ; LO BYTE OF SCREEN ADDRESS
02187  14D4  00                    BYTE $00            ; SIGNAL TO CHANGE JSR ADDRESS TO $12F6 IN $12DC
02188  14D5  00                    BYTE $00            ; SIGNAL TO CHANGE JSR ADDRESS TO $131B IN $12DC
02189  14D6  1E                    BYTE $1E            ; 00011110 (TOP OF LADDER) (HI BYTE OF SCREEN ADDRESS = %100 AND BITS 0-1 = %110 = $06) (LOOP = BITS 2-6 = %00111 = $07)
02190  14D7  34                    BYTE $34            ; LO BYTE OF SCREEN ADDRESS
02191  14D8  39                    BYTE $39            ; 00111001 (TOP OF LADDER) HI BYTE OF SCREEN ADDRESS = %100 AND BITS 0-1 = %101 = $05) (LOOP = %01110 = $0E)
02192  14D9  38                    BYTE $38            ; LO BYTE OF SCREEN ADDRESS
02193  14DA  A4                    BYTE $A4            ; 10100100 (HI BYTE OF SCREEN ADDRESS = %100 AND BITS 0-1 = %100 = $04) (LOOP = %01001 = $09)
02194  14DB  19                    BYTE $19            ; LO BYTE OF SCREEN ADDRESS
02195  14DC  00                    BYTE $00            ; END OF ROOM DATA FOR ROOM 09
02196  14DD             ;________________________________________
02197  14DD             ;
02198  14DD             ;    ROOM DATA FOR ROOM 0A
02199  14DD             ;
02200  14DD  15                    BYTE $15
02201  14DE  18                    BYTE $18
02202  14DF  65                    BYTE $65
02203  14E0  24                    BYTE $24
02204  14E1  26                    BYTE $26
02205  14E2  30                    BYTE $30
02206  14E3  36                    BYTE $36            ; 54       6
02207  14E4  4B                    BYTE $4B            ; 75       K
02208  14E5  7F                    BYTE $7F            ; 127      GFX
02209  14E6  48                    BYTE $48            ; 72       H
02210  14E7  00                    BYTE $00            ; 0
02211  14E8  00                    BYTE $00            ; 0
02212  14E9  B8                    BYTE $B8
02213  14EA  06                    BYTE $06
02214  14EB  39                    BYTE $39
02215  14EC  24                    BYTE $24            ; 36       $
02216  14ED  16                    BYTE $16            ; 22       V
02217  14EE  4B                    BYTE $4B            ; 75       K
02218  14EF  07                    BYTE $07            ; 7        G
02219  14F0  5B                    BYTE $5B            ; 91       GFX
02220  14F1  00                    BYTE $00            ; 0
02221  14F2             ;________________________________________
02222  14F2             ;
02223  14F2             ;    ROOM DATA FOR ROOM 0B
02224  14F2             ;
02225  14F2  32                    BYTE $32            ; 50       2
02226  14F3  30                    BYTE $30
02227  14F4  5F                    BYTE $5F
02228  14F5  50                    BYTE $50
02229  14F6  2E                    BYTE $2E
02230  14F7  4C                    BYTE $4C
02231  14F8  00                    BYTE $00
02232  14F9  AC                    BYTE $AC
02233  14FA  CC                    BYTE $CC            ; 204      L
02234  14FB  04                    BYTE $04            ; 4        D
02235  14FC  D8                    BYTE $D8            ; 216      X
02236  14FD  04                    BYTE $04            ; 4        D
02237  14FE  DA                    BYTE $DA            ; 218      Z
02238  14FF  84                    BYTE $84
02239  1500  DC                    BYTE $DC
02240  1501  84                    BYTE $84
02241  1502  DE                    BYTE $DE
02242  1503  2C                    BYTE $2C            ; 44       ,
02243  1504  E0                    BYTE $E0            ; 224      SPACE
02244  1505  85                    BYTE $85            ; 133      E
02245  1506  27                    BYTE $27            ; 39       '
02246  1507  85                    BYTE $85
02247  1508  C7                    BYTE $C7
02248  1509  86                    BYTE $86            ; 134      F
02249  150A  67                    BYTE $67            ; 103      GFX
02250  150B  87                    BYTE $87            ; 135      G
02251  150C  07                    BYTE $07            ; 7        G
02252  150D  8F                    BYTE $8F            ; 143      O
02253  150E  57                    BYTE $57            ; 87       W
02254  150F  05                    BYTE $05
02255  1510  78                    BYTE $78
02256  1511  06                    BYTE $06
02257  1512  18                    BYTE $18
02258  1513  06                    BYTE $06
02259  1514  B8                    BYTE $B8
02260  1515  05                    BYTE $05
02261  1516  29                    BYTE $29
02262  1517  05                    BYTE $05            ; 5        E
02263  1518  2D                    BYTE $2D            ; 45       -
02264  1519  0F                    BYTE $0F            ; 15       O
02265  151A  5D                    BYTE $5D
02266  151B  85                    BYTE $85
02267  151C  7E                    BYTE $7E
02268  151D  86                    BYTE $86
02269  151E  1E                    BYTE $1E
02270  151F  86                    BYTE $86
02271  1520  BE                    BYTE $BE
02272  1521  05                    BYTE $05
02273  1522  2F                    BYTE $2F
02274  1523  05                    BYTE $05
02275  1524  CF                    BYTE $CF
02276  1525  06                    BYTE $06            ; 6        F
02277  1526  6F                    BYTE $6F            ; 111      GFX
02278  1527  07                    BYTE $07            ; 7        G
02279  1528  0F                    BYTE $0F            ; 15       O
02280  1529  00                    BYTE $00            ; 0
02281  152A  24                    BYTE $24
02282  152B  CC                    BYTE $CC
02283  152C  24                    BYTE $24
02284  152D  E8                    BYTE $E8
02285  152E  1E                    BYTE $1E
02286  152F  38                    BYTE $38
02287  1530  1E                    BYTE $1E
02288  1531  4C                    BYTE $4C
02289  1532  22                    BYTE $22
02290  1533  54                    BYTE $54
02291  1534  00                    BYTE $00            ; 0
02292  1535             ;________________________________________
02293  1535             ;
02294  1535             ;    ROOM DATA FOR ROOM 0C
02295  1535             ;
02296  1535  1A                    BYTE $1A            ; 26       Z
02297  1536  52                    BYTE $52            ; 82       R
02298  1537  53                    BYTE $53            ; 83       S
02299  1538  22                    BYTE $22            ; 34       ''
02300  1539  43                    BYTE $43            ; 67       C
02301  153A  36                    BYTE $36
02302  153B  00                    BYTE $00
02303  153C  0E                    BYTE $0E
02304  153D  32                    BYTE $32
02305  153E  8E                    BYTE $8E
02306  153F  35                    BYTE $35            ; 53       5
02307  1540  0E                    BYTE $0E            ; 14       N
02308  1541  3C                    BYTE $3C            ; 60       <
02309  1542  8E                    BYTE $8E
02310  1543  3F                    BYTE $3F
02311  1544  0E                    BYTE $0E
02312  1545  46                    BYTE $46
02313  1546  8E                    BYTE $8E
02314  1547  49                    BYTE $49
02315  1548  0A                    BYTE $0A
02316  1549  50                    BYTE $50            ; 80       P
02317  154A  00                    BYTE $00            ; 0
02318  154B  0B                    BYTE $0B            ; 11       K
02319  154C  25                    BYTE $25            ; 37       %
02320  154D  1A                    BYTE $1A            ; 26       Z
02321  154E  53                    BYTE $53            ; 83       S
02322  154F  00                    BYTE $00            ; 0
02323  1550             ;________________________________________
02324  1550             ;
02325  1550             ;    ROOM DATA FOR ROOM 0D
02326  1550             ;
02327  1550  1A                    BYTE $1A            ; 26       Z
02328  1551  30                    BYTE $30            ; 48       0
02329  1552  7C                    BYTE $7C            ; 124      GFX
02330  1553  F3                    BYTE $F3            ; 243      GFX
02331  1554  21                    BYTE $21
02332  1555  93                    BYTE $93
02333  1556  49                    BYTE $49            ; 73       I
02334  1557  A0                    BYTE $A0            ; 160
02335  1558  4A                    BYTE $4A            ; 74       J
02336  1559  3C                    BYTE $3C            ; 60       <
02337  155A  16                    BYTE $16
02338  155B  53                    BYTE $53
02339  155C  56                    BYTE $56
02340  155D  D3                    BYTE $D3
02341  155E  16                    BYTE $16            ; 22       V
02342  155F  ED                    BYTE $ED            ; 237      GFX
02343  1560  00                    BYTE $00            ; 0
02344  1561  00                    BYTE $00            ; 0
02345  1562  10                    BYTE $10
02346  1563  F3                    BYTE $F3
02347  1564  20                    BYTE $20            ; 32
02348  1565  FC                    BYTE $FC            ; 252      GFX
02349  1566  0D                    BYTE $0D            ; 13       M
02350  1567  0F                    BYTE $0F            ; 15       O
02351  1568  21                    BYTE $21            ; 33       !
02352  1569  AF                    BYTE $AF            ; 175      /
02353  156A  12                    BYTE $12            ; 18       R
02354  156B  33                    BYTE $33            ; 51       3
02355  156C  22                    BYTE $22            ; 34       ''
02356  156D  49                    BYTE $49
02357  156E  00                    BYTE $00
02358  156F             ;________________________________________
02359  156F             ;
02360  156F             ;    ROOM DATA FOR ROOM 0E
02361  156F             ;
02362  156F  16                    BYTE $16
02363  1570  30                    BYTE $30
02364  1571  0A                    BYTE $0A            ; 10       J
02365  1572  0C                    BYTE $0C            ; 12       L
02366  1573  92                    BYTE $92            ; 146      R
02367  1574  0C                    BYTE $0C            ; 12       L
02368  1575  27                    BYTE $27            ; 39       '
02369  1576  49                    BYTE $49
02370  1577  0E                    BYTE $0E
02371  1578  2D                    BYTE $2D            ; 45       -
02372  1579  00                    BYTE $00            ; 0
02373  157A  26                    BYTE $26            ; 38       &
02374  157B  0F                    BYTE $0F            ; 15       O
02375  157C  26                    BYTE $26
02376  157D  19                    BYTE $19
02377  157E  26                    BYTE $26            ; 38       &
02378  157F  23                    BYTE $23            ; 35       #
02379  1580  00                    BYTE $00            ; 0
02380  1581  07                    BYTE $07            ; 7        G
02381  1582  4E                    BYTE $4E            ; 78       N
02382  1583  1E                    BYTE $1E            ; 30       ^
02383  1584  31                    BYTE $31            ; 49       1
02384  1585  00                    BYTE $00            ; 0
02385  1586             ;________________________________________
02386  1586             ;
02387  1586             ;    ROOM DATA FOR ROOM 0F
02388  1586             ;
02389  1586  4C                    BYTE $4C
02390  1587  C9                    BYTE $C9
02391  1588  38                    BYTE $38
02392  1589  E1                    BYTE $E1
02393  158A  11                    BYTE $11
02394  158B  69                    BYTE $69            ; 105      GFX
02395  158C  4D                    BYTE $4D            ; 77       M
02396  158D  72                    BYTE $72            ; 114      GFX
02397  158E  21                    BYTE $21            ; 33       !
02398  158F  87                    BYTE $87            ; 135      G
02399  1590  52                    BYTE $52            ; 82       R
02400  1591  08                    BYTE $08            ; 8        H
02401  1592  3A                    BYTE $3A            ; 58       :
02402  1593  21                    BYTE $21
02403  1594  3A                    BYTE $3A
02404  1595  A9                    BYTE $A9
02405  1596  3E                    BYTE $3E
02406  1597  BC                    BYTE $BC            ; 188      <
02407  1598  63                    BYTE $63            ; 99       GFX
02408  1599  49                    BYTE $49            ; 73       I
02409  159A  27                    BYTE $27            ; 39       '
02410  159B  66                    BYTE $66            ; 102      GFX
02411  159C  00                    BYTE $00            ; 0
02412  159D  00                    BYTE $00            ; 0
02413  159E  1C                    BYTE $1C            ; 28       
02414  159F  CE                    BYTE $CE
02415  15A0  10                    BYTE $10
02416  15A1  D8                    BYTE $D8
02417  15A2  10                    BYTE $10
02418  15A3  E2                    BYTE $E2
02419  15A4  10                    BYTE $10
02420  15A5  EC                    BYTE $EC
02421  15A6  11                    BYTE $11
02422  15A7  69                    BYTE $69
02423  15A8  11                    BYTE $11
02424  15A9  73                    BYTE $73
02425  15AA  1D                    BYTE $1D            ; 29       ]
02426  15AB  7D                    BYTE $7D            ; 125      GFX
02427  15AC  11                    BYTE $11            ; 17       Q
02428  15AD  87                    BYTE $87            ; 135      G
02429  15AE  12                    BYTE $12            ; 18       R
02430  15AF  0E                    BYTE $0E            ; 14       N
02431  15B0  22                    BYTE $22            ; 34       ''
02432  15B1  18                    BYTE $18            ; 24       X
02433  15B2  12                    BYTE $12            ; 18       R
02434  15B3  22                    BYTE $22            ; 34       ''
02435  15B4  0E                    BYTE $0E            ; 14       N
02436  15B5  A9                    BYTE $A9            ; 169      )
02437  15B6  12                    BYTE $12            ; 18       R
02438  15B7  B3                    BYTE $B3            ; 179      3
02439  15B8  0E                    BYTE $0E            ; 14       N
02440  15B9  BD                    BYTE $BD            ; 189      =
02441  15BA  12                    BYTE $12            ; 18       R
02442  15BB  C7                    BYTE $C7            ; 199      G
02443  15BC  00                    BYTE $00            ; 0
02444  15BD             ;________________________________________
02445  15BD             ;
02446  15BD             ;    IRQ ROUTINE
02447  15BD             ;
02448  15BD  AD 19 D0              LDA $D019           ; VIC INTERRUPT FLAGS
02449  15C0  8D 19 D0              STA $D019           ; VIC INTERRUPT FLAGS
02450  15C3  29 01                 AND #$01
02451  15C5  D0 03                 BNE L00120
02452  15C7  4C 7E EA              JMP $EA7E           ; TERMINATE INTERRUPT (NOT VIC IRQ)
02453  15CA  2C 46 1B   L00120     BIT $1B46
02454  15CD  A2 01                 LDX #$01
02455  15CF  BD 90 50   L00121     LDA $5090,X
02456  15D2  10 70                 BPL L00131
02457  15D4  BD 98 50              LDA $5098,X
02458  15D7  29 03                 AND #$03
02459  15D9  D0 69                 BNE L00131
02460  15DB  BD A0 50              LDA $50A0,X
02461  15DE  38                    SEC
02462  15DF  E9 05                 SBC #$05
02463  15E1  29 07                 AND #$07
02464  15E3  D0 5F                 BNE L00131
02465  15E5  BD D8 50              LDA $50D8,X
02466  15E8  4A                    LSR
02467  15E9  B0 27                 BCS L00125
02468  15EB  20 F4 1A              JSR L00227
02469  15EE  C9 FE                 CMP #$FE
02470  15F0  B0 52                 BCS L00131
02471  15F2  20 4C 16              JSR L00132
02472  15F5  30 09                 BMI L00122
02473  15F7  20 E0 1A              JSR L00222
02474  15FA  B0 10                 BCS L00124
02475  15FC  A0 03                 LDY #$03
02476  15FE  D0 07                 BNE L00123
02477  1600  20 DD 1A   L00122     JSR L00221
02478  1603  B0 07                 BCS L00124
02479  1605  A0 FD                 LDY #$FD
02480  1607  A9 00      L00123     LDA #$00
02481  1609  4C 3E 16              JMP L00130
02482  160C  20 3C 1A   L00124     JSR L00205
02483  160F  4C 44 16              JMP L00131
02484  1612  20 4C 16   L00125     JSR L00132
02485  1615  30 1C                 BMI L00128
02486  1617  20 F9 1A              JSR L00228
02487  161A  C9 FE                 CMP #$FE
02488  161C  D0 05                 BNE L00126
02489  161E  A9 03                 LDA #$03
02490  1620  4C 3C 16              JMP L00129
02491  1623  20 CB 1A   L00126     JSR L00218
02492  1626  90 05                 BCC L00127
02493  1628  20 D8 1A              JSR L00220
02494  162B  90 17                 BCC L00131
02495  162D  20 26 1A   L00127     JSR L00204
02496  1630  4C 44 16              JMP L00131
02497  1633  20 FC 1A   L00128     JSR L00229
02498  1636  C9 FE                 CMP #$FE
02499  1638  90 E9                 BCC L00126
02500  163A  A9 FD                 LDA #$FD
02501  163C  A0 00      L00129     LDY #$00
02502  163E  20 78 19   L00130     JSR L00187
02503  1641  FE D8 50              INC $50D8,X
02504  1644  E8         L00131     INX
02505  1645  E0 08                 CPX #$08
02506  1647  F0 0D                 BEQ L00133
02507  1649  4C CF 15              JMP L00121
02508  164C  BC F0 50   L00132     LDY $50F0,X
02509  164F  FE F0 50              INC $50F0,X
02510  1652  B9 00 A0              LDA $A000,Y
02511  1655  60                    RTS
02512  1656  A5 B2      L00133     LDA $B2
02513  1658  F0 04                 BEQ L00134
02514  165A  C6 B2                 DEC $B2
02515  165C  D0 38                 BNE L00137
02516  165E  A9 02      L00134     LDA #$02
02517  1660  85 B2                 STA $B2
02518  1662  A2 07                 LDX #$07
02519  1664  BD D8 3F   L00135     LDA $3FD8,X
02520  1667  4A                    LSR
02521  1668  7E D8 3F              ROR $3FD8,X
02522  166B  BD D8 3F              LDA $3FD8,X
02523  166E  4A                    LSR
02524  166F  7E D8 3F              ROR $3FD8,X
02525  1672  BD D0 3F              LDA $3FD0,X
02526  1675  0A                    ASL
02527  1676  3E D0 3F              ROL $3FD0,X
02528  1679  BD D0 3F              LDA $3FD0,X
02529  167C  0A                    ASL
02530  167D  3E D0 3F              ROL $3FD0,X
02531  1680  CA                    DEX
02532  1681  10 E1                 BPL L00135
02533  1683  A2 00                 LDX #$00
02534  1685  20 F9 1A              JSR L00228
02535  1688  C9 FB                 CMP #$FB
02536  168A  D0 03                 BNE L00136
02537  168C  EE 98 50              INC $5098
02538  168F  C9 FA      L00136     CMP #$FA
02539  1691  D0 03                 BNE L00137
02540  1693  CE 98 50              DEC $5098
02541  1696  AD 1E D0   L00137     LDA $D01E           ; SPRITE-SPRITE COLLISION
02542  1699  2D 15 D0              AND $D015
02543  169C  4A                    LSR
02544  169D  90 5D                 BCC L00147
02545  169F  A2 08                 LDX #$08
02546  16A1  0A         L00138     ASL
02547  16A2  90 22                 BCC L00141
02548  16A4  BD 98 50              LDA $5098,X
02549  16A7  38                    SEC
02550  16A8  ED 98 50              SBC $5098
02551  16AB  B0 04                 BCS L00139
02552  16AD  49 FF                 EOR #$FF
02553  16AF  69 01                 ADC #$01
02554  16B1  C9 30      L00139     CMP #$30
02555  16B3  B0 11                 BCS L00141
02556  16B5  BD A0 50              LDA $50A0,X
02557  16B8  38                    SEC
02558  16B9  ED A0 50              SBC $50A0
02559  16BC  B0 04                 BCS L00140
02560  16BE  49 FF                 EOR #$FF
02561  16C0  69 01                 ADC #$01
02562  16C2  C9 2A      L00140     CMP #$2A
02563  16C4  90 05                 BCC L00142
02564  16C6  CA         L00141     DEX
02565  16C7  D0 D8                 BNE L00138
02566  16C9  F0 31                 BEQ L00147
02567  16CB  BD 58 50   L00142     LDA $5058,X
02568  16CE  F0 0C                 BEQ L00143
02569  16D0  18                    CLC
02570  16D1  65 06                 ADC $06             ; LIVES
02571  16D3  C9 0A                 CMP #$0A
02572  16D5  B0 05                 BCS L00143
02573  16D7  85 06                 STA $06             ; LIVES
02574  16D9  38                    SEC
02575  16DA  66 B9                 ROR $B9
02576  16DC  BD 50 50   L00143     LDA $5050,X
02577  16DF  F0 03                 BEQ L00144
02578  16E1  20 BE 1A              JSR L00216
02579  16E4  BD 48 50   L00144     LDA $5048,X
02580  16E7  F0 02                 BEQ L00145
02581  16E9  85 A3                 STA $A3
02582  16EB  BD 38 50   L00145     LDA $5038,X
02583  16EE  20 97 19              JSR L00190
02584  16F1  BD 40 50              LDA $5040,X
02585  16F4  A2 00                 LDX #$00
02586  16F6  20 97 19              JSR L00190
02587  16F9  4C 82 17   L00146     JMP L00157
02588  16FC  24 B0      L00147     BIT $B0
02589  16FE  30 F9                 BMI L00146
02590  1700  A2 00                 LDX #$00
02591  1702  20 F9 1A              JSR L00228
02592  1705  C9 20                 CMP #$20
02593  1707  D0 12                 BNE L00149
02594  1709  A0 00                 LDY #$00
02595  170B  A9 0F                 LDA #$0F
02596  170D  A2 00                 LDX #$00
02597  170F  20 78 19              JSR L00187
02598  1712  A9 04                 LDA #$04
02599  1714  F0 02                 BEQ L00148
02600  1716  85 AA                 STA $AA
02601  1718  4C 7E 17   L00148     JMP L00156
02602  171B  AD 00 DC   L00149     LDA $DC00           ; JOYSTICK PORT A
02603  171E  0A                    ASL
02604  171F  0A                    ASL
02605  1720  0A                    ASL
02606  1721  0A                    ASL
02607  1722  A2 04                 LDX #$04
02608  1724  0A         L00150     ASL
02609  1725  90 03                 BCC L00151
02610  1727  CA                    DEX
02611  1728  D0 FA                 BNE L00150
02612  172A  E4 B1      L00151     CPX $B1
02613  172C  8E 60 17              STX $1760
02614  172F  F0 35                 BEQ L00155
02615  1731  8A                    TXA
02616  1732  F0 2B                 BEQ L00154
02617  1734  E0 01                 CPX #$01
02618  1736  D0 10                 BNE L00152
02619  1738  A2 00                 LDX #$00
02620  173A  20 FC 1A              JSR L00229
02621  173D  C9 FE                 CMP #$FE
02622  173F  90 25                 BCC L00155
02623  1741  A9 01                 LDA #$01
02624  1743  85 B0                 STA $B0
02625  1745  4C 5F 17              JMP L00154
02626  1748  E0 02      L00152     CPX #$02
02627  174A  D0 0F                 BNE L00153
02628  174C  A2 00                 LDX #$00
02629  174E  20 F9 1A              JSR L00228
02630  1751  C9 FE                 CMP #$FE
02631  1753  90 11                 BCC L00155
02632  1755  A9 01                 LDA #$01
02633  1757  85 B0                 STA $B0
02634  1759  D0 04                 BNE L00154
02635  175B  A5 B0      L00153     LDA $B0
02636  175D  D0 07                 BNE L00155
02637  175F  A9 00      L00154     LDA #$00
02638  1761  85 B1                 STA $B1
02639  1763  20 50 19              JSR L00185
02640  1766  AD 00 DC   L00155     LDA $DC00           ; JOYSTICK PORT A
02641  1769  29 10                 AND #$10            ; IF NOT FIRE
02642  176B  D0 15                 BNE L00157
02643  176D  A5 B0                 LDA $B0
02644  176F  D0 11                 BNE L00157
02645  1771  A9 F3                 LDA #$F3
02646  1773  A2 00                 LDX #$00
02647  1775  20 0E 1A              JSR L00202
02648  1778  A9 03                 LDA #$03
02649  177A  F0 02                 BEQ L00156
02650  177C  85 AA                 STA $AA
02651  177E  A9 80      L00156     LDA #$80
02652  1780  85 B0                 STA $B0
02653  1782  A2 07      L00157     LDX #$07
02654  1784  BD 10 50   L00158     LDA $5010,X
02655  1787  C9 02                 CMP #$02
02656  1789  90 29                 BCC L00161
02657  178B  BD A8 50              LDA $50A8,X
02658  178E  F0 05                 BEQ L00159
02659  1790  DE A8 50              DEC $50A8,X
02660  1793  D0 1F                 BNE L00161
02661  1795  BD 08 50   L00159     LDA $5008,X
02662  1798  9D A8 50              STA $50A8,X
02663  179B  DE B0 50              DEC $50B0,X
02664  179E  F0 06                 BEQ L00160
02665  17A0  FE F8 07              INC $07F8,X
02666  17A3  4C B4 17              JMP L00161
02667  17A6  20 52 1A   L00160     JSR L00206
02668  17A9  8A                    TXA
02669  17AA  D0 08                 BNE L00161
02670  17AC  A5 B0                 LDA $B0
02671  17AE  D0 04                 BNE L00161
02672  17B0  A9 02                 LDA #$02
02673  17B2  85 AA                 STA $AA
02674  17B4  8A         L00161     TXA
02675  17B5  D0 05                 BNE L00162
02676  17B7  20 CB 1A              JSR L00218
02677  17BA  90 13                 BCC L00163
02678  17BC  BD C8 50   L00162     LDA $50C8,X
02679  17BF  18                    CLC
02680  17C0  7D B8 50              ADC $50B8,X
02681  17C3  9D C8 50              STA $50C8,X
02682  17C6  BD 98 50              LDA $5098,X
02683  17C9  7D E0 50              ADC $50E0,X
02684  17CC  9D 98 50              STA $5098,X
02685  17CF  BD D0 50   L00163     LDA $50D0,X
02686  17D2  18                    CLC
02687  17D3  7D C0 50              ADC $50C0,X
02688  17D6  9D D0 50              STA $50D0,X
02689  17D9  BD A0 50              LDA $50A0,X
02690  17DC  7D E8 50              ADC $50E8,X
02691  17DF  9D A0 50              STA $50A0,X
02692  17E2  8A                    TXA
02693  17E3  F0 30                 BEQ L00167
02694  17E5  BD 88 50              LDA $5088,X
02695  17E8  DD 98 50              CMP $5098,X
02696  17EB  90 0A                 BCC L00164
02697  17ED  BD 80 50              LDA $5080,X
02698  17F0  DD 98 50              CMP $5098,X
02699  17F3  F0 08                 BEQ L00165
02700  17F5  90 06                 BCC L00165
02701  17F7  9D 98 50   L00164     STA $5098,X
02702  17FA  20 26 1A              JSR L00204
02703  17FD  BD 78 50   L00165     LDA $5078,X
02704  1800  DD A0 50              CMP $50A0,X
02705  1803  90 0A                 BCC L00166
02706  1805  BD 70 50              LDA $5070,X
02707  1808  DD A0 50              CMP $50A0,X
02708  180B  F0 08                 BEQ L00167
02709  180D  90 06                 BCC L00167
02710  180F  9D A0 50   L00166     STA $50A0,X
02711  1812  20 3C 1A              JSR L00205
02712  1815  20 82 1A   L00167     JSR L00214
02713  1818  CA                    DEX
02714  1819  30 03                 BMI L00168
02715  181B  4C 84 17              JMP L00158
02716  181E  24 B0      L00168     BIT $B0
02717  1820  10 4E                 BPL L00171
02718  1822  AD C0 50              LDA $50C0
02719  1825  18                    CLC
02720  1826  69 48                 ADC #$48
02721  1828  8D C0 50              STA $50C0
02722  182B  AD E8 50              LDA $50E8
02723  182E  69 00                 ADC #$00
02724  1830  8D E8 50              STA $50E8
02725  1833  30 3B                 BMI L00171
02726  1835  A2 00                 LDX #$00
02727  1837  20 F9 1A              JSR L00228
02728  183A  C9 FE                 CMP #$FE
02729  183C  F0 08                 BEQ L00169
02730  183E  C9 FC                 CMP #$FC
02731  1840  B0 2E                 BCS L00171
02732  1842  C9 20                 CMP #$20
02733  1844  F0 2A                 BEQ L00171
02734  1846  AD E8 50   L00169     LDA $50E8
02735  1849  C9 05                 CMP #$05
02736  184B  90 06                 BCC L00170
02737  184D  20 B8 19              JSR L00194
02738  1850  4C 46 1B              JMP L00232
02739  1853  A9 00      L00170     LDA #$00
02740  1855  85 B0                 STA $B0
02741  1857  85 B1                 STA $B1
02742  1859  20 50 19              JSR L00185
02743  185C  AD A0 50              LDA $50A0
02744  185F  18                    CLC
02745  1860  69 03                 ADC #$03
02746  1862  29 F8                 AND #$F8
02747  1864  38                    SEC
02748  1865  E9 03                 SBC #$03
02749  1867  8D A0 50              STA $50A0
02750  186A  A9 05                 LDA #$05
02751  186C  F0 02                 BEQ L00171
02752  186E  85 AA                 STA $AA
02753  1870  A5 B0      L00171     LDA $B0
02754  1872  C9 01                 CMP #$01
02755  1874  D0 35                 BNE L00174
02756  1876  A2 00                 LDX #$00
02757  1878  A5 B1                 LDA $B1
02758  187A  C9 01                 CMP #$01
02759  187C  F0 0E                 BEQ L00172
02760  187E  C9 02                 CMP #$02
02761  1880  D0 29                 BNE L00174
02762  1882  20 F9 1A              JSR L00228
02763  1885  C9 FE                 CMP #$FE
02764  1887  B0 22                 BCS L00174
02765  1889  4C 93 18              JMP L00173
02766  188C  20 FC 1A   L00172     JSR L00229
02767  188F  C9 FE                 CMP #$FE
02768  1891  B0 18                 BCS L00174
02769  1893  A9 00      L00173     LDA #$00
02770  1895  85 B0                 STA $B0
02771  1897  85 B1                 STA $B1
02772  1899  20 50 19              JSR L00185
02773  189C  AD 43 19              LDA $1943
02774  189F  8D 00 50              STA $5000
02775  18A2  8D F8 07              STA $07F8
02776  18A5  A9 05                 LDA #$05
02777  18A7  F0 02                 BEQ L00174
02778  18A9  85 AA                 STA $AA
02779  18AB  A9 0A      L00174     LDA #$0A
02780  18AD  CD 98 50              CMP $5098
02781  18B0  90 0C                 BCC L00175
02782  18B2  F0 0A                 BEQ L00175
02783  18B4  A4 B0                 LDY $B0
02784  18B6  30 5F                 BMI L00181
02785  18B8  C6 02                 DEC $02             ; DECREASE ROOM (BY GOING LEFT)
02786  18BA  A9 A3                 LDA #$A3
02787  18BC  D0 0F                 BNE L00176
02788  18BE  A9 A3      L00175     LDA #$A3
02789  18C0  CD 98 50              CMP $5098
02790  18C3  B0 0D                 BCS L00177
02791  18C5  A4 B0                 LDY $B0
02792  18C7  30 4E                 BMI L00181
02793  18C9  E6 02                 INC $02             ; INCREASE ROOM (BY GOING RIGHT)
02794  18CB  A9 0A                 LDA #$0A
02795  18CD  8D 98 50   L00176     STA $5098
02796  18D0  D0 37                 BNE L00180
02797  18D2  A9 2D      L00177     LDA #$2D
02798  18D4  CD A0 50              CMP $50A0
02799  18D7  90 19                 BCC L00179
02800  18D9  F0 17                 BEQ L00179
02801  18DB  A4 B0                 LDY $B0
02802  18DD  10 05                 BPL L00178
02803  18DF  8D A0 50              STA $50A0
02804  18E2  30 40                 BMI L00182
02805  18E4  A5 02      L00178     LDA $02             ; ROOM
02806  18E6  18                    CLC
02807  18E7  69 04                 ADC #$04
02808  18E9  85 02                 STA $02             ; INCREASE ROOM (BY GOING UP)
02809  18EB  A9 CB                 LDA #$CB
02810  18ED  8D A0 50              STA $50A0
02811  18F0  D0 17                 BNE L00180
02812  18F2  A9 CB      L00179     LDA #$CB
02813  18F4  CD A0 50              CMP $50A0
02814  18F7  B0 33                 BCS L00183
02815  18F9  A4 B0                 LDY $B0
02816  18FB  30 32                 BMI L00184
02817  18FD  A5 02                 LDA $02             ; ROOM
02818  18FF  38                    SEC
02819  1900  E9 04                 SBC #$04
02820  1902  85 02                 STA $02             ; DECREASE ROOM (BY GOING DOWN)
02821  1904  A9 2D                 LDA #$2D
02822  1906  8D A0 50              STA $50A0
02823  1909  A9 4C      L00180     LDA #$4C
02824  190B  8D CA 15              STA $15CA
02825  190E  A9 00                 LDA #$00
02826  1910  85 B3                 STA $B3
02827  1912  8D 15 D0              STA $D015           ; SPRITE DISPLAY
02828  1915  F0 15                 BEQ L00183
02829  1917  8D 98 50   L00181     STA $5098
02830  191A  A9 00                 LDA #$00
02831  191C  8D E0 50              STA $50E0
02832  191F  8D B8 50              STA $50B8
02833  1922  F0 08                 BEQ L00183
02834  1924  A9 00      L00182     LDA #$00
02835  1926  8D E8 50              STA $50E8
02836  1929  8D C0 50              STA $50C0
02837  192C  4C 46 1B   L00183     JMP L00232
02838  192F  A2 00      L00184     LDX #$00
02839  1931  20 9D 19              JSR L00191
02840  1934  A9 03                 LDA #$03
02841  1936  85 B3                 STA $B3
02842  1938  A9 4C                 LDA #$4C
02843  193A  8D CA 15              STA $15CA
02844  193D  D0 ED                 BNE L00183          ; UNCONDITIONAL JUMP (BRANCH IS ALWAYS TAKEN)
02845  193F             ;________________________________________
02846  193F  00                    BYTE $00            ; 0
02847  1940  25                    BYTE $25            ; 37       %
02848  1941  25                    BYTE $25            ; 37       %
02849  1942  23                    BYTE $23            ; 35       #
02850  1943  21                    BYTE $21            ; 33       !
02851  1944  01                    BYTE $01            ; 1        A
02852  1945  02                    BYTE $02            ; 2        B
02853  1946  02                    BYTE $02            ; 2        B
02854  1947  02                    BYTE $02            ; 2        B
02855  1948  02                    BYTE $02            ; 2        B
02856  1949  00                    BYTE $00            ; 0
02857  194A  00                    BYTE $00            ; 0
02858  194B  00                    BYTE $00            ; 0
02859  194C  FC                    BYTE $FC            ; 252      GFX
02860  194D  04                    BYTE $04            ; 4        D
02861  194E  00                    BYTE $00            ; 0
02862  194F  00                    BYTE $00            ; 0
02863  1950             ;________________________________________
02864  1950  A6 B1      L00185     LDX $B1
02865  1952  BD 3F 19              LDA $193F,X
02866  1955  F0 06                 BEQ L00186
02867  1957  8D 00 50              STA $5000
02868  195A  8D F8 07              STA $07F8
02869  195D  BD 44 19   L00186     LDA $1944,X
02870  1960  8D 10 50              STA $5010
02871  1963  8D B0 50              STA $50B0
02872  1966  A9 04                 LDA #$04
02873  1968  8D 08 50              STA $5008
02874  196B  A9 00                 LDA #$00
02875  196D  8D A8 50              STA $50A8
02876  1970  BC 49 19              LDY $1949,X
02877  1973  BD 4B 19              LDA $194B,X
02878  1976  A2 00                 LDX #$00
02879  1978  20 0E 1A   L00187     JSR L00202
02880  197B  98                    TYA
02881  197C  20 8A 19              JSR L00188
02882  197F  9D E0 50              STA $50E0,X
02883  1982  A5 A9                 LDA $A9
02884  1984  29 C0                 AND #$C0
02885  1986  9D B8 50              STA $50B8,X
02886  1989  60                    RTS
02887  198A             ;________________________________________
02888  198A  18         L00188     CLC
02889  198B  69 80                 ADC #$80
02890  198D  4A                    LSR
02891  198E  66 A9                 ROR $A9
02892  1990  4A                    LSR
02893  1991  66 A9                 ROR $A9
02894  1993  38                    SEC
02895  1994  E9 20                 SBC #$20
02896  1996  60         L00189     RTS
02897  1997             ;________________________________________
02898  1997  A8         L00190     TAY
02899  1998  F0 FC                 BEQ L00189
02900  199A  88                    DEY
02901  199B  D0 18                 BNE L00193
02902  199D  AD 15 D0   L00191     LDA $D015           ; SPRITE DISPLAY
02903  19A0  3D 3E 1B              AND $1B3E,X
02904  19A3  8D 15 D0              STA $D015           ; SPRITE DISPLAY
02905  19A6  8A                    TXA
02906  19A7  F0 0B                 BEQ L00192
02907  19A9  A4 02                 LDY $02             ; ROOM
02908  19AB  B9 00 60              LDA $6000,Y
02909  19AE  3D 3E 1B              AND $1B3E,X
02910  19B1  99 00 60              STA $6000,Y
02911  19B4  60         L00192     RTS
02912  19B5  88         L00193     DEY
02913  19B6  D0 0A                 BNE L00195
02914  19B8  A9 4C      L00194     LDA #$4C
02915  19BA  8D CA 15              STA $15CA
02916  19BD  A9 02                 LDA #$02
02917  19BF  85 B3                 STA $B3
02918  19C1  60                    RTS
02919  19C2  88         L00195     DEY
02920  19C3  D0 0C                 BNE L00197
02921  19C5  A5 B8                 LDA $B8             ; KEYS
02922  19C7  C9 0A                 CMP #$0A
02923  19C9  B0 05                 BCS L00196          ; IF KEYS = 9 THEN DON'T INCREASE KEYS
02924  19CB  E6 B8                 INC $B8             ; INCREASE KEYS
02925  19CD  38                    SEC
02926  19CE  66 B9                 ROR $B9
02927  19D0  60         L00196     RTS
02928  19D1  88         L00197     DEY
02929  19D2  D0 13                 BNE L00199
02930  19D4  A5 B8                 LDA $B8             ; KEYS
02931  19D6  F0 0A                 BEQ L00198          ; IF KEYS = 0 THEN DO LDA #$07 INSTRUCTION
02932  19D8  C6 B8                 DEC $B8             ; DECREASE KEYS
02933  19DA  A9 64                 LDA #$64
02934  19DC  20 BE 1A              JSR L00216
02935  19DF  A9 08                 LDA #$08
02936  19E1  2C                    BYTE $2C            ; BIT $07A9
02937  19E2  A9         L00198     BYTE $A9            ; LDA #$07
02938  19E3  07                    BYTE $07
02939  19E4  85 A3                 STA $A3             ; $A3 WILL BE #$07 OR #$08
02940  19E6  60                    RTS
02941  19E7  88         L00199     DEY
02942  19E8  D0 1F                 BNE L00201
02943  19EA  A5 B8                 LDA $B8             ; KEYS
02944  19EC  D0 AF                 BNE L00191
02945  19EE  A9 00                 LDA #$00
02946  19F0  8D B8 50              STA $50B8
02947  19F3  8D E0 50              STA $50E0
02948  19F6  A9 05                 LDA #$05
02949  19F8  BC 98 50              LDY $5098,X
02950  19FB  CC 98 50              CPY $5098
02951  19FE  90 02                 BCC L00200
02952  1A00  A9 FA                 LDA #$FA
02953  1A02  7D 98 50   L00200     ADC $5098,X
02954  1A05  8D 98 50              STA $5098
02955  1A08  60                    RTS
02956  1A09  88         L00201     DEY
02957  1A0A  D0 10                 BNE L00203
02958  1A0C  A9 E9                 LDA #$E9
02959  1A0E  20 8A 19   L00202     JSR L00188
02960  1A11  9D E8 50              STA $50E8,X
02961  1A14  A5 A9                 LDA $A9
02962  1A16  29 C0                 AND #$C0
02963  1A18  9D C0 50              STA $50C0,X
02964  1A1B  60                    RTS
02965  1A1C  A9 01      L00203     LDA #$01
02966  1A1E  85 B3                 STA $B3
02967  1A20  A9 4C                 LDA #$4C
02968  1A22  8D CA 15              STA $15CA
02969  1A25  60                    RTS
02970  1A26             ;________________________________________
02971  1A26  BD B8 50   L00204     LDA $50B8,X
02972  1A29  49 FF                 EOR #$FF
02973  1A2B  18                    CLC
02974  1A2C  69 01                 ADC #$01
02975  1A2E  9D B8 50              STA $50B8,X
02976  1A31  BD E0 50              LDA $50E0,X
02977  1A34  49 FF                 EOR #$FF
02978  1A36  69 00                 ADC #$00
02979  1A38  9D E0 50              STA $50E0,X
02980  1A3B  60                    RTS
02981  1A3C             ;________________________________________
02982  1A3C  BD C0 50   L00205     LDA $50C0,X
02983  1A3F  49 FF                 EOR #$FF
02984  1A41  18                    CLC
02985  1A42  69 01                 ADC #$01
02986  1A44  9D C0 50              STA $50C0,X
02987  1A47  BD E8 50              LDA $50E8,X
02988  1A4A  49 FF                 EOR #$FF
02989  1A4C  69 00                 ADC #$00
02990  1A4E  9D E8 50              STA $50E8,X
02991  1A51  60                    RTS
02992  1A52             ;________________________________________
02993  1A52  BD 00 50   L00206     LDA $5000,X
02994  1A55  9D F8 07              STA $07F8,X
02995  1A58  BD 08 50              LDA $5008,X
02996  1A5B  9D A8 50              STA $50A8,X
02997  1A5E  BD 10 50              LDA $5010,X
02998  1A61  D0 02                 BNE L00207
02999  1A63  A9 01                 LDA #$01
03000  1A65  9D B0 50   L00207     STA $50B0,X
03001  1A68  60                    RTS
03002  1A69             ;________________________________________
03003  1A69  A0 1C      L00208     LDY #$1C
03004  1A6B  2C                    BYTE $2C            ; BIT $1DA0
03005  1A6C  A0         L00209     BYTE $A0            ; LDY #$1D
03006  1A6D  1D                    BYTE $1D
03007  1A6E  4A         L00210     LSR
03008  1A6F  B9 00 D0   L00211     LDA $D000,Y
03009  1A72  3D 3E 1B              AND $1B3E,X
03010  1A75  90 03                 BCC L00212
03011  1A77  1D 36 1B              ORA $1B36,X
03012  1A7A  99 00 D0   L00212     STA $D000,Y
03013  1A7D  60                    RTS
03014  1A7E             ;________________________________________
03015  1A7E  A0 17      L00213     LDY #$17
03016  1A80  D0 EC                 BNE L00210
03017  1A82  8A         L00214     TXA
03018  1A83  0A                    ASL
03019  1A84  A8                    TAY
03020  1A85  BD C8 50              LDA $50C8,X
03021  1A88  0A                    ASL
03022  1A89  BD 98 50              LDA $5098,X
03023  1A8C  2A                    ROL
03024  1A8D  99 00 D0              STA $D000,Y
03025  1A90  BD A0 50              LDA $50A0,X
03026  1A93  99 01 D0              STA $D001,Y
03027  1A96  A0 10                 LDY #$10
03028  1A98  D0 D5                 BNE L00211
03029  1A9A  BC 60 50   L00215     LDY $5060,X
03030  1A9D  BD 68 50              LDA $5068,X
03031  1AA0  20 78 19              JSR L00187
03032  1AA3  20 52 1A              JSR L00206
03033  1AA6  BD 18 50              LDA $5018,X
03034  1AA9  9D 27 D0              STA $D027,X
03035  1AAC  BD 20 50              LDA $5020,X
03036  1AAF  20 69 1A              JSR L00208
03037  1AB2  BD 28 50              LDA $5028,X
03038  1AB5  20 6C 1A              JSR L00209
03039  1AB8  BD 30 50              LDA $5030,X
03040  1ABB  4C 7E 1A              JMP L00213
03041  1ABE             ;________________________________________
03042  1ABE  18         L00216     CLC
03043  1ABF  65 F7                 ADC $F7
03044  1AC1  85 F7                 STA $F7
03045  1AC3  90 02                 BCC L00217
03046  1AC5  E6 F8                 INC $F8
03047  1AC7  38         L00217     SEC
03048  1AC8  66 B9                 ROR $B9
03049  1ACA  60                    RTS
03050  1ACB             ;________________________________________
03051  1ACB  A9 0A      L00218     LDA #$0A
03052  1ACD  BC E0 50              LDY $50E0,X
03053  1AD0  30 02                 BMI L00219
03054  1AD2  A9 04                 LDA #$04
03055  1AD4  A0 1E      L00219     LDY #$1E
03056  1AD6  D0 0C                 BNE L00223
03057  1AD8  BC E0 50   L00220     LDY $50E0,X
03058  1ADB  10 03                 BPL L00222
03059  1ADD  A9 0E      L00221     LDA #$0E
03060  1ADF  2C                    BYTE $2C            ; BIT $00A9
03061  1AE0  A9         L00222     BYTE $A9            ; LDA #$00
03062  1AE1  00                    BYTE $00
03063  1AE2  A0 1D                 LDY #$1D
03064  1AE4  20 00 1B   L00223     JSR L00230
03065  1AE7  C9 20                 CMP #$20
03066  1AE9  F0 06      L00224     BEQ L00225
03067  1AEB  C9 FE                 CMP #$FE
03068  1AED  F0 03                 BEQ L00226
03069  1AEF  C9 FC                 CMP #$FC
03070  1AF1  60         L00225     RTS
03071  1AF2  18         L00226     CLC
03072  1AF3  60                    RTS
03073  1AF4             ;________________________________________
03074  1AF4  BD E8 50   L00227     LDA $50E8,X
03075  1AF7  30 03                 BMI L00229
03076  1AF9  A0 1D      L00228     LDY #$1D
03077  1AFB  2C                    BYTE $2C            ; BIT $1EA0
03078  1AFC  A0         L00229     BYTE $A0            ; LDY #$1E
03079  1AFD  1E                    BYTE $1E
03080  1AFE  A9 07                 LDA #$07
03081  1B00  8D 0B 1B   L00230     STA $1B0B
03082  1B03  8C 19 1B              STY $1B19
03083  1B06  BD 98 50              LDA $5098,X
03084  1B09  38                    SEC
03085  1B0A  E9 00                 SBC #$00
03086  1B0C  4A                    LSR
03087  1B0D  4A                    LSR
03088  1B0E  A8                    TAY
03089  1B0F  A9 01                 LDA #$01
03090  1B11  8D 34 1B              STA $1B34
03091  1B14  BD A0 50              LDA $50A0,X
03092  1B17  38                    SEC
03093  1B18  E9 00                 SBC #$00
03094  1B1A  29 F8                 AND #$F8
03095  1B1C  8D 33 1B              STA $1B33
03096  1B1F  0A                    ASL
03097  1B20  2E 34 1B              ROL $1B34
03098  1B23  0A                    ASL
03099  1B24  2E 34 1B              ROL $1B34
03100  1B27  6D 33 1B              ADC $1B33
03101  1B2A  8D 33 1B              STA $1B33
03102  1B2D  90 03                 BCC L00231
03103  1B2F  EE 34 1B              INC $1B34
03104  1B32  B9 FF FF   L00231     LDA $FFFF,Y         ; THIS ADDRESS IS CHANGED IN $1B11, $1B1C, $1B20, $1B24 AND $1B2A AND $1B2F
03105  1B35  60                    RTS
03106  1B36             ;________________________________________
03107  1B36  01                    BYTE $01            ; 1        A
03108  1B37  02                    BYTE $02            ; 2        B
03109  1B38  04                    BYTE $04            ; 4        D
03110  1B39  08                    BYTE $08
03111  1B3A  10                    BYTE $10
03112  1B3B  20                    BYTE $20
03113  1B3C  40                    BYTE $40            ; 64       GFX
03114  1B3D  80                    BYTE $80            ; 128
03115  1B3E  FE                    BYTE $FE            ; 254      GFX
03116  1B3F  FD                    BYTE $FD            ; 253      GFX
03117  1B40  FB                    BYTE $FB            ; 251      GFX
03118  1B41  F7                    BYTE $F7            ; 247      GFX
03119  1B42  EF                    BYTE $EF            ; 239      GFX
03120  1B43  DF                    BYTE $DF            ; 223      GFX
03121  1B44  BF                    BYTE $BF            ; 191      ?
03122  1B45  7F                    BYTE $7F            ; 127      GFX
03123  1B46             ;________________________________________
03124  1B46  A2 0D      L00232     LDX #$0D
03125  1B48  BD F8 50   L00233     LDA $50F8,X
03126  1B4B  9D 00 D4              STA $D400,X
03127  1B4E  CA                    DEX
03128  1B4F  10 F7                 BPL L00233
03129  1B51  A2 07                 LDX #$07
03130  1B53  B4 A3      L00234     LDY $A3,X
03131  1B55  F0 40                 BEQ L00237
03132  1B57  88                    DEY
03133  1B58  98                    TYA
03134  1B59  8D 60 1B              STA $1B60
03135  1B5C  0A         L00235     ASL
03136  1B5D  0A                    ASL
03137  1B5E  0A                    ASL
03138  1B5F  69 00                 ADC #$00
03139  1B61  A8                    TAY
03140  1B62  A9 00                 LDA #$00
03141  1B64  95 A3                 STA $A3,X
03142  1B66  9D 05 D4              STA $D405,X
03143  1B69  9D 06 D4              STA $D406,X
03144  1B6C  BD FC 50              LDA $50FC,X
03145  1B6F  29 FE                 AND #$FE
03146  1B71  9D 04 D4              STA $D404,X
03147  1B74  A9 07                 LDA #$07
03148  1B76  85 A6                 STA $A6
03149  1B78  8E 88 1B              STX $1B88
03150  1B7B  B9 C3 1B   L00236     LDA $1BC3,Y
03151  1B7E  9D F8 50              STA $50F8,X
03152  1B81  C8                    INY
03153  1B82  E8                    INX
03154  1B83  C6 A6                 DEC $A6
03155  1B85  D0 F4                 BNE L00236
03156  1B87  A2 00                 LDX #$00
03157  1B89  B9 C3 1B              LDA $1BC3,Y
03158  1B8C  95 A5                 STA $A5,X
03159  1B8E  C8                    INY
03160  1B8F  B9 C3 1B              LDA $1BC3,Y
03161  1B92  95 A4                 STA $A4,X
03162  1B94  4C B9 1B              JMP L00239
03163  1B97  D6 A4      L00237     DEC $A4,X
03164  1B99  D0 08                 BNE L00238
03165  1B9B  BD FC 50              LDA $50FC,X
03166  1B9E  29 FE                 AND #$FE
03167  1BA0  9D FC 50              STA $50FC,X
03168  1BA3  BD F9 50   L00238     LDA $50F9,X
03169  1BA6  18                    CLC
03170  1BA7  75 A5                 ADC $A5,X
03171  1BA9  9D F9 50              STA $50F9,X
03172  1BAC  6A                    ROR
03173  1BAD  55 A5                 EOR $A5,X
03174  1BAF  10 08                 BPL L00239
03175  1BB1  A9 00                 LDA #$00
03176  1BB3  9D 06 D4              STA $D406,X
03177  1BB6  9D FE 50              STA $50FE,X
03178  1BB9  8A         L00239     TXA
03179  1BBA  F0 04                 BEQ L00240
03180  1BBC  A2 00                 LDX #$00
03181  1BBE  F0 93                 BEQ L00234
03182  1BC0  4C 31 EA   L00240     JMP $EA31
03183  1BC3             ;________________________________________
03184  1BC3  00                    BYTE $00            ; 0
03185  1BC4  02                    BYTE $02            ; 2        B
03186  1BC5  00                    BYTE $00            ; 0
03187  1BC6  08                    BYTE $08
03188  1BC7  81                    BYTE $81            ; 129      A
03189  1BC8  00                    BYTE $00            ; 0
03190  1BC9  FA                    BYTE $FA            ; 250      GFX
03191  1BCA  00                    BYTE $00            ; 0
03192  1BCB  05                    BYTE $05
03193  1BCC  00                    BYTE $00
03194  1BCD  11                    BYTE $11
03195  1BCE  00                    BYTE $00
03196  1BCF  08                    BYTE $08
03197  1BD0  81                    BYTE $81
03198  1BD1  20                    BYTE $20
03199  1BD2  65                    BYTE $65            ; 101      GFX
03200  1BD3  00                    BYTE $00            ; 0
03201  1BD4  02                    BYTE $02            ; 2        B
03202  1BD5  00                    BYTE $00            ; 0
03203  1BD6  08                    BYTE $08            ; 8        H
03204  1BD7  00                    BYTE $00            ; 0
03205  1BD8  08                    BYTE $08
03206  1BD9  41                    BYTE $41            ; 65       A
03207  1BDA  00                    BYTE $00            ; 0
03208  1BDB  FF                    BYTE $FF            ; 255      GFX
03209  1BDC  06                    BYTE $06            ; 6        F
03210  1BDD  03                    BYTE $03            ; 3        C
03211  1BDE  00                    BYTE $00            ; 0
03212  1BDF  86                    BYTE $86
03213  1BE0  00                    BYTE $00
03214  1BE1  08                    BYTE $08
03215  1BE2  41                    BYTE $41            ; 65       A
03216  1BE3  00                    BYTE $00            ; 0
03217  1BE4  FF                    BYTE $FF            ; 255      GFX
03218  1BE5  FC                    BYTE $FC            ; 252      GFX
03219  1BE6  03                    BYTE $03            ; 3        C
03220  1BE7  00                    BYTE $00            ; 0
03221  1BE8  8E                    BYTE $8E
03222  1BE9  00                    BYTE $00
03223  1BEA  08                    BYTE $08
03224  1BEB  81                    BYTE $81
03225  1BEC  00                    BYTE $00
03226  1BED  F5                    BYTE $F5            ; 245      GFX
03227  1BEE  00                    BYTE $00            ; 0
03228  1BEF  02                    BYTE $02            ; 2        B
03229  1BF0  00                    BYTE $00            ; 0
03230  1BF1  C0                    BYTE $C0
03231  1BF2  00                    BYTE $00
03232  1BF3  08                    BYTE $08
03233  1BF4  41                    BYTE $41            ; 65       A
03234  1BF5  00                    BYTE $00            ; 0
03235  1BF6  F3                    BYTE $F3            ; 243      GFX
03236  1BF7  F2                    BYTE $F2            ; 242      GFX
03237  1BF8  0D                    BYTE $0D            ; 13       M
03238  1BF9  00                    BYTE $00            ; 0
03239  1BFA  03                    BYTE $03            ; 3        C
03240  1BFB  00                    BYTE $00            ; 0
03241  1BFC  08                    BYTE $08
03242  1BFD  21                    BYTE $21            ; 33       !
03243  1BFE  10                    BYTE $10            ; 16       P
03244  1BFF  F3                    BYTE $F3            ; 243      GFX
03245  1C00  00                    BYTE $00            ; 0
03246  1C01  10                    BYTE $10
03247  1C02  00                    BYTE $00
03248  1C03  30                    BYTE $30
03249  1C04  00                    BYTE $00
03250  1C05  08                    BYTE $08
03251  1C06  41                    BYTE $41            ; 65       A
03252  1C07  02                    BYTE $02            ; 2        B
03253  1C08  FA                    BYTE $FA            ; 250      GFX
03254  1C09  00                    BYTE $00            ; 0
03255  1C0A  06                    BYTE $06
03256  1C0B  00                    BYTE $00
03257  1C0C  09                    BYTE $09
03258  1C0D  00                    BYTE $00
03259  1C0E  08                    BYTE $08
03260  1C0F  21                    BYTE $21
03261  1C10  00                    BYTE $00
03262  1C11  F9                    BYTE $F9            ; 249      GFX
03263  1C12  00                    BYTE $00            ; 0
03264  1C13  14                    BYTE $14            ; 20       T
03265  1C14  00                    BYTE $00            ; 0
03266  1C15  0A                    BYTE $0A            ; 10       J
03267  1C16  00                    BYTE $00            ; 0
03268  1C17  08                    BYTE $08
03269  1C18  15                    BYTE $15            ; 21       U
03270  1C19  00                    BYTE $00            ; 0
03271  1C1A  FC                    BYTE $FC            ; 252      GFX
03272  1C1B  00                    BYTE $00            ; 0
03273  1C1C  01                    BYTE $01            ; 1        A
03274  1C1D  00                    BYTE $00            ; 0
03275  1C1E  00                    BYTE $00            ; 0
03276  1C1F  00                    BYTE $00            ; 0
03277  1C20  00                    BYTE $00            ; 0
03278  1C21             

******* 177 Label(s) *******
L00001 = $0819 
L00002 = $0820 
L00003 = $082D 
L00030 = $0D00 
L00031 = $0D09 
L00032 = $0D23 
L00033 = $0D61 
L00034 = $0D6B 
L00035 = $0D91 
L00036 = $0DA9 
L00037 = $0DC3 
L00038 = $0DDC 
L00039 = $0DE6 
L00040 = $0DED 
L00041 = $0DFC 
L00042 = $0E0D 
L00043 = $0E17 
L00044 = $0E2B 
L00045 = $0E3A 
L00046 = $0E3F 
L00047 = $0E44 
L00048 = $0E47 
L00049 = $0E5D 
L00050 = $0E6B 
L00051 = $0E6E 
L00052 = $0E72 
L00053 = $0ECB 
L00054 = $0ED7 
L00055 = $0EED 
L00056 = $0EF5 
L00058 = $0EFC 
L00059 = $0F06 
L00060 = $0F26 
L00061 = $0F2C 
L00062 = $0F50 
L00063 = $0F60 
L00064 = $0F67 
L00065 = $0F7C 
L00066 = $0FAC 
L00067 = $0FB8 
L00068 = $0FCE 
L00069 = $0FE8 
L00070 = $0FF3 
L00083 = $12A1 
L00085 = $12BB 
L00086 = $12CD 
L00087 = $12E3 
L00088 = $12F2 
L00089 = $12FF 
L00090 = $1308 
L00091 = $1317 
L00092 = $132A 
L00093 = $132C 
L00094 = $1334 
L00095 = $133F 
L00096 = $1346 
L00120 = $15CA 
L00121 = $15CF 
L00122 = $1600 
L00123 = $1607 
L00124 = $160C 
L00125 = $1612 
L00126 = $1623 
L00127 = $162D 
L00128 = $1633 
L00129 = $163C 
L00130 = $163E 
L00131 = $1644 
L00132 = $164C 
L00133 = $1656 
L00134 = $165E 
L00135 = $1664 
L00136 = $168F 
L00137 = $1696 
L00138 = $16A1 
L00139 = $16B1 
L00140 = $16C2 
L00141 = $16C6 
L00142 = $16CB 
L00143 = $16DC 
L00144 = $16E4 
L00145 = $16EB 
L00146 = $16F9 
L00147 = $16FC 
L00148 = $1718 
L00149 = $171B 
L00150 = $1724 
L00151 = $172A 
L00152 = $1748 
L00153 = $175B 
L00154 = $175F 
L00155 = $1766 
L00156 = $177E 
L00157 = $1782 
L00158 = $1784 
L00159 = $1795 
L00160 = $17A6 
L00161 = $17B4 
L00162 = $17BC 
L00163 = $17CF 
L00164 = $17F7 
L00165 = $17FD 
L00166 = $180F 
L00167 = $1815 
L00168 = $181E 
L00169 = $1846 
L00170 = $1853 
L00171 = $1870 
L00172 = $188C 
L00173 = $1893 
L00174 = $18AB 
L00175 = $18BE 
L00176 = $18CD 
L00177 = $18D2 
L00178 = $18E4 
L00179 = $18F2 
L00180 = $1909 
L00181 = $1917 
L00182 = $1924 
L00183 = $192C 
L00184 = $192F 
L00185 = $1950 
L00186 = $195D 
L00187 = $1978 
L00188 = $198A 
L00189 = $1996 
L00190 = $1997 
L00191 = $199D 
L00192 = $19B4 
L00193 = $19B5 
L00194 = $19B8 
L00195 = $19C2 
L00196 = $19D0 
L00197 = $19D1 
L00198 = $19E2 
L00199 = $19E7 
L00200 = $1A02 
L00201 = $1A09 
L00202 = $1A0E 
L00203 = $1A1C 
L00204 = $1A26 
L00205 = $1A3C 
L00206 = $1A52 
L00207 = $1A65 
L00208 = $1A69 
L00209 = $1A6C 
L00210 = $1A6E 
L00211 = $1A6F 
L00212 = $1A7A 
L00213 = $1A7E 
L00214 = $1A82 
L00215 = $1A9A 
L00216 = $1ABE 
L00217 = $1AC7 
L00218 = $1ACB 
L00219 = $1AD4 
L00220 = $1AD8 
L00221 = $1ADD 
L00222 = $1AE0 
L00223 = $1AE4 
L00224 = $1AE9 
L00225 = $1AF1 
L00226 = $1AF2 
L00227 = $1AF4 
L00228 = $1AF9 
L00229 = $1AFC 
L00230 = $1B00 
L00231 = $1B32 
L00232 = $1B46 
L00233 = $1B48 
L00234 = $1B53 
L00235 = $1B5C 
L00236 = $1B7B 
L00237 = $1B97 
L00238 = $1BA3 
L00239 = $1BB9 
L00240 = $1BC0 

******* 4 Unused label(s) *******
L00002
L00041
L00224
L00235

******* 1 Variable(s) *******
tgt_c64  = $0001
******* 1 Unused variables(s) *******
tgt_c64

